0028B67C __cdecl
0006D320 DllCanUnloadNow
0006D3B8 DllGetClassObject
0006D4C8 DllRegisterServer
0006D520 DllUnregisterServer
0006D5E4 RDPAPI_CreateInstance
0006D6B8 __delayLoadHelper2
0006D848 ?MSTSCAX_IPersistPropertyBag_Load2@@YAJPEAUIPropertyBag2@@PEAUIErrorLog@@PEAUPROPBAG2_MAP_ENTRY@@PEAUIUnknown@@@Z
0006DC08 ?ProcessWindowMessage@CMsTscAx@@UEAAHPEAUHWND__@@I_K_JAEA_JK@Z
0006DE7C ?GetTypeInfo@CMsTscAxWebControl@@UEAAJIKPEAPEAUITypeInfo@@@Z
0006DEE8 ?GetIDsOfNames@CMsTscAxWebControl@@UEAAJAEBU_GUID@@PEAPEAGIKPEAJ@Z
0006DF18 ?Invoke@CMsTscAxWebControl@@UEAAJJAEBU_GUID@@KGPEAUtagDISPPARAMS@@PEAUtagVARIANT@@PEAUtagEXCEPINFO@@PEAI@Z
0006DFF4 ?GetTypeInfo@CMsTscAxStdControl@@UEAAJIKPEAPEAUITypeInfo@@@Z
0006E060 ?GetIDsOfNames@CMsTscAxStdControl@@UEAAJAEBU_GUID@@PEAPEAGIKPEAJ@Z
0006E090 ?Invoke@CMsTscAxStdControl@@UEAAJJAEBU_GUID@@KGPEAUtagDISPPARAMS@@PEAUtagVARIANT@@PEAUtagEXCEPINFO@@PEAI@Z
0006E190 WppControlCallback
0006E240 TSAXMAIN_DllMain
0006E508 ?CreateControlWindow@?$CComControl@VCMsTscAx@@V?$CWindowImpl@VCMsTscAx@@VCWindow@ATL@@V?$CWinTraits@$0FGAAAAAA@$0A@@3@@ATL@@@ATL@@UEAAPEAUHWND__@@PEAU3@AEAUtagRECT@@@Z
0006E674 ?ProcessWindowMessage@?$CComControl@VCMsTscAx@@V?$CWindowImpl@VCMsTscAx@@VCWindow@ATL@@V?$CWinTraits@$0FGAAAAAA@$0A@@3@@ATL@@@ATL@@UEAAHPEAUHWND__@@I_K_JAEA_JK@Z
0006E89C ?GetClassID@?$IPersistPropertyBag2Impl@VCMsTscAx@@@@UEAAJPEAU_GUID@@@Z
0006E8D0 ?Load@?$IPersistPropertyBag2Impl@VCMsTscAx@@@@UEAAJPEAUIPropertyBag2@@PEAUIErrorLog@@@Z
0006E9A4 ?TranslateAcceleratorW@?$IOleInPlaceActiveObjectImpl@VCMsTscAx@@@ATL@@UEAAJPEAUtagMSG@@@Z
0006EA8C ?OnDocWindowActivate@?$IOleInPlaceActiveObjectImpl@VCMsTscAx@@@ATL@@UEAAJH@Z
0006EAB8 ?Draw@?$IViewObjectExImpl@VCMsTscAx@@@ATL@@UEAAJKJPEAXPEAUtagDVTARGETDEVICE@@PEAUHDC__@@2PEBU_RECTL@@3P6AH_K@Z4@Z
0006EBDC ?SetAdvise@?$IViewObjectExImpl@VCMsTscAx@@@ATL@@UEAAJKKPEAUIAdviseSink@@@Z
0006EC34 ?GetAdvise@?$IViewObjectExImpl@VCMsTscAx@@@ATL@@UEAAJPEAK0PEAPEAUIAdviseSink@@@Z
0006ECAC ?QueryHitPoint@?$IViewObjectExImpl@VCMsTscAx@@@ATL@@UEAAJKPEBUtagRECT@@UtagPOINT@@JPEAK@Z
0006ECE4 ?QueryHitRect@?$IViewObjectExImpl@VCMsTscAx@@@ATL@@UEAAJKPEBUtagRECT@@0JPEAK@Z
0006EDB8 ?InPlaceDeactivate@?$IOleInPlaceObjectWindowlessImpl@VCMsTscAx@@@ATL@@UEAAJXZ
0006EE74 ?SetObjectRects@?$IOleInPlaceObjectWindowlessImpl@VCMsTscAx@@@ATL@@UEAAJPEBUtagRECT@@0@Z
0006EF78 ?OnWindowMessage@?$IOleInPlaceObjectWindowlessImpl@VCMsTscAx@@@ATL@@UEAAJI_K_JPEA_J@Z
0006EFD0 ?EnumConnectionPoints@?$IConnectionPointContainerImpl@VCMsTscAx@@@ATL@@UEAAJPEAPEAUIEnumConnectionPoints@@@Z
0006F230 ?FindConnectionPoint@?$IConnectionPointContainerImpl@VCMsTscAx@@@ATL@@UEAAJAEBU_GUID@@PEAPEAUIConnectionPoint@@@Z
0006F334 ?GetData@?$IDataObjectImpl@VCMsTscAx@@@ATL@@UEAAJPEAUtagFORMATETC@@PEAUtagSTGMEDIUM@@@Z
0006F534 ?DAdvise@?$IDataObjectImpl@VCMsTscAx@@@ATL@@UEAAJPEAUtagFORMATETC@@KPEAUIAdviseSink@@PEAK@Z
0006F5C8 ?DUnadvise@?$IDataObjectImpl@VCMsTscAx@@@ATL@@UEAAJK@Z
0006F600 ?EnumDAdvise@?$IDataObjectImpl@VCMsTscAx@@@ATL@@UEAAJPEAPEAUIEnumSTATDATA@@@Z
0006F634 ?_LocCPQueryInterface@?$IConnectionPointImpl@VCMsTscAx@@$1?IID_IPropertyNotifySink@@3U_GUID@@BVCComDynamicUnkArray@ATL@@@ATL@@UEAAJAEBU_GUID@@PEAPEAX@Z
0006F754 ?GetClientSite@?$IOleObjectImpl@VCMsTscAxWebControl@@@ATL@@UEAAJPEAPEAUIOleClientSite@@@Z
0006F7A4 ?DoVerb@?$IOleObjectImpl@VCMsTscAxStdControl@@@ATL@@UEAAJJPEAUtagMSG@@PEAUIOleClientSite@@JPEAUHWND__@@PEBUtagRECT@@@Z
0006F8E4 ?EnumVerbs@?$IOleObjectImpl@VCMsTscAxWebControl@@@ATL@@UEAAJPEAPEAUIEnumOLEVERB@@@Z
0006F9D8 ?Load@?$IPersistStreamInitImpl@VCMsTscAxWebControl@@@ATL@@UEAAJPEAUIStream@@@Z
0006FA38 ?Save@?$IPersistStreamInitImpl@VCMsTscAxWebControl@@@ATL@@UEAAJPEAUIStream@@H@Z
0006FAB0 ?GetSizeMax@?$IPersistStreamInitImpl@VCMsTscAxWebControl@@@ATL@@UEAAJPEAT_ULARGE_INTEGER@@@Z
0006FB04 ?GetInterfaceSafetyOptions@?$IObjectSafetyImpl@VCMsTscAxWebControl@@$02@ATL@@UEAAJAEBU_GUID@@PEAK1@Z
0006FB98 ?SetInterfaceSafetyOptions@?$IObjectSafetyImpl@VCMsTscAxWebControl@@$02@ATL@@UEAAJAEBU_GUID@@KK@Z
0006FC20 ?GetClassInfoW@?$IProvideClassInfo2Impl@$1?CLSID_MsRdpClient7@@3U_GUID@@B$1?DIID_IMsTscAxEvents@@3U2@B$1?LIBID_MSTSCLib@@3U2@B$00$0A@VCComTypeInfoHolder@ATL@@@ATL@@UEAAJPEAPEAUITypeInfo@@@Z
0006FCB8 ?SetClientSite@?$IOleObjectImpl@VCMsTscAxStdControl@@@ATL@@UEAAJPEAUIOleClientSite@@@Z
0006FD64 ?EnumVerbs@?$IOleObjectImpl@VCMsTscAxStdControl@@@ATL@@UEAAJPEAPEAUIEnumOLEVERB@@@Z
0006FDF8 ?Advise@?$IOleObjectImpl@VCMsTscAxWebControl@@@ATL@@UEAAJPEAUIAdviseSink@@PEAK@Z
0006FE58 ?Unadvise@?$IOleObjectImpl@VCMsTscAxWebControl@@@ATL@@UEAAJK@Z
0006FE8C ?EnumAdvise@?$IOleObjectImpl@VCMsTscAxWebControl@@@ATL@@UEAAJPEAPEAUIEnumSTATDATA@@@Z
0006FF34 ?Load@?$IPersistStreamInitImpl@VCMsTscAxStdControl@@@ATL@@UEAAJPEAUIStream@@@Z
0006FF94 ?Save@?$IPersistStreamInitImpl@VCMsTscAxStdControl@@@ATL@@UEAAJPEAUIStream@@H@Z
0007000C ?GetSizeMax@?$IPersistStreamInitImpl@VCMsTscAxStdControl@@@ATL@@UEAAJPEAT_ULARGE_INTEGER@@@Z
00070060 ?GetClassInfoW@?$IProvideClassInfo2Impl@$1?CLSID_MsRdpClient7NotSafeForScripting@@3U_GUID@@B$1?DIID_IMsTscAxEvents@@3U2@B$1?LIBID_MSTSCLib@@3U2@B$00$0A@VCComTypeInfoHolder@ATL@@@ATL@@UEAAJPEAPEAUITypeInfo@@@Z
000700C0 ?CreateInstance@?$CComCreator@V?$CComObjectCached@VCComClassFactory@ATL@@@ATL@@@ATL@@SAJPEAXAEBU_GUID@@PEAPEAX@Z
00070214 ?CreateInstance@?$CComCreator2@V?$CComCreator@V?$CComObject@VCMsTscAxWebControl@@@ATL@@@ATL@@V?$CComCreator@V?$CComAggObject@VCMsTscAxWebControl@@@ATL@@@2@@ATL@@SAJPEAXAEBU_GUID@@PEAPEAX@Z
00070378 ?CreateInstance@?$CComCreator2@V?$CComCreator@V?$CComObject@VCMsTscAxStdControl@@@ATL@@@ATL@@V?$CComCreator@V?$CComAggObject@VCMsTscAxStdControl@@@ATL@@@2@@ATL@@SAJPEAXAEBU_GUID@@PEAPEAX@Z
000704DC ?CreateInstance@?$CComCreator2@V?$CComCreator@V?$CComObject@VCPnPPluginControl@@@ATL@@@ATL@@V?$CComCreator@V?$CComAggObject@VCPnPPluginControl@@@ATL@@@2@@ATL@@SAJPEAXAEBU_GUID@@PEAPEAX@Z
000704FC ?CreateInstance@?$CComCreator2@V?$CComCreator@V?$CComObject@VCDeskBand@@@ATL@@@ATL@@V?$CComCreator@V?$CComAggObject@VCDeskBand@@@ATL@@@2@@ATL@@SAJPEAXAEBU_GUID@@PEAPEAX@Z
0007051C ?MSTSCAX_LoadProperties@?$IPersistPropertyBag2Impl@VCMsTscAx@@@@IEAAJPEAUIPropertyBag2@@PEAUIErrorLog@@@Z
000706E8 ?DoVerbPrimary@?$IOleObjectImpl@VCMsTscAxWebControl@@@ATL@@QEAAJPEBUtagRECT@@PEAUHWND__@@@Z
000707F8 ?Release@?$CComObject@V?$CComEnum@UIEnumConnectionPoints@@$1?IID_IEnumConnectionPoints@@3U_GUID@@BPEAUIConnectionPoint@@V?$_CopyInterface@UIConnectionPoint@@@ATL@@VCComMultiThreadModel@6@@ATL@@@ATL@@UEAAKXZ
000708B4 ?Release@?$CComObjectCached@VCComClassFactory@ATL@@@ATL@@UEAAKXZ
00070950 ?CreateInstance@?$CComCreator@V?$CComObject@VCPnPPluginControl@@@ATL@@@ATL@@SAJPEAXAEBU_GUID@@PEAPEAX@Z
00070AB8 ?CreateInstance@?$CComCreator@V?$CComAggObject@VCPnPPluginControl@@@ATL@@@ATL@@SAJPEAXAEBU_GUID@@PEAPEAX@Z
00070C34 ?CreateInstance@?$CComCreator@V?$CComObject@VCDeskBand@@@ATL@@@ATL@@SAJPEAXAEBU_GUID@@PEAPEAX@Z
00070D74 ?CreateInstance@?$CComCreator@V?$CComAggObject@VCDeskBand@@@ATL@@@ATL@@SAJPEAXAEBU_GUID@@PEAPEAX@Z
00070EAC ??_G?$CComObject@VCMsTscAxWebControl@@@ATL@@QEAAPEAXI@Z
00071048 ??_G?$CComObject@VCMsTscAxStdControl@@@ATL@@QEAAPEAXI@Z
000711D8 ??0?$CComObject@VCMsTscAxWebControl@@@ATL@@QEAA@PEAX@Z
00071384 ?Release@?$CComObject@VCMsTscAxWebControl@@@ATL@@UEAAKXZ
000713D0 ??0?$CComAggObject@VCMsTscAxWebControl@@@ATL@@QEAA@PEAX@Z
0007159C ?Release@?$CComAggObject@VCMsTscAxWebControl@@@ATL@@UEAAKXZ
000715F4 ??0?$CComObject@VCMsTscAxStdControl@@@ATL@@QEAA@PEAX@Z
00071774 ?Release@?$CComObject@VCMsTscAxStdControl@@@ATL@@UEAAKXZ
000717AC ??0?$CComAggObject@VCMsTscAxStdControl@@@ATL@@QEAA@PEAX@Z
00071960 ?QueryInterface@?$CComAggObject@VCMsTscAxWebControl@@@ATL@@UEAAJAEBU_GUID@@PEAPEAX@Z
000719DC ?QueryInterface@?$CComContainedObject@VCMsTscAxWebControl@@@ATL@@UEAAJAEBU_GUID@@PEAPEAX@Z
00071A40 ?Release@?$CComObject@VCPnPPluginControl@@@ATL@@UEAAKXZ
00071B00 ?Release@?$CComAggObject@VCPnPPluginControl@@@ATL@@UEAAKXZ
00071B9C ?QueryInterface@?$CComAggObject@VCPnPPluginControl@@@ATL@@UEAAJAEBU_GUID@@PEAPEAX@Z
00071C04 ?QueryInterface@?$CComContainedObject@VCPnPPluginControl@@@ATL@@UEAAJAEBU_GUID@@PEAPEAX@Z
00071C64 ?Release@?$CComObject@VCDeskBand@@@ATL@@UEAAKXZ
00071CF4 ?Release@?$CComAggObject@VCDeskBand@@@ATL@@UEAAKXZ
00071D4C ?QueryInterface@?$CComAggObject@VCDeskBand@@@ATL@@UEAAJAEBU_GUID@@PEAPEAX@Z
00071DA0 ?QueryInterface@?$CComContainedObject@VCDeskBand@@@ATL@@UEAAJAEBU_GUID@@PEAPEAX@Z
00071DF0 ?StartWindowProc@?$CWindowImplBaseT@VCWindow@ATL@@V?$CWinTraits@$0FGAAAAAA@$0A@@2@@ATL@@SA_JPEAUHWND__@@I_K_J@Z
00071ED4 ?WindowProc@?$CWindowImplBaseT@VCWindow@ATL@@V?$CWinTraits@$0FGAAAAAA@$0A@@2@@ATL@@SA_JPEAUHWND__@@I_K_J@Z
00072014 ?Advise@?$IConnectionPointImpl@VCMsTscAx@@$1?IID_IPropertyNotifySink@@3U_GUID@@BVCComDynamicUnkArray@ATL@@@ATL@@UEAAJPEAUIUnknown@@PEAK@Z
000720D0 ?EnumConnections@?$IConnectionPointImpl@VCMsTscAx@@$1?IID_IPropertyNotifySink@@3U_GUID@@BVCComDynamicUnkArray@ATL@@@ATL@@UEAAJPEAPEAUIEnumConnections@@@Z
00072304 ?Unadvise@?$IConnectionPointImpl@VCMsTscAx@@$1?DIID_IMsTscAxEvents@@3U_GUID@@BVCComDynamicUnkArray@ATL@@@ATL@@UEAAJK@Z
00072388 ??1?$CComEnumImpl@UIEnumConnectionPoints@@$1?IID_IEnumConnectionPoints@@3U_GUID@@BPEAUIConnectionPoint@@V?$_CopyInterface@UIConnectionPoint@@@ATL@@V?$CComEnum@UIEnumConnectionPoints@@$1?IID_IEnumConnectionPoints@@3U_GUID@@BPEAUIConnectionPoint@@V?$_CopyInterface@UIConnectionPoint@@@ATL@@VCComMultiThreadModel@6@@6@@ATL@@QEAA@XZ
000723E8 ?Next@?$CComEnumImpl@UIEnumConnectionPoints@@$1?IID_IEnumConnectionPoints@@3U_GUID@@BPEAUIConnectionPoint@@V?$_CopyInterface@UIConnectionPoint@@@ATL@@V?$CComEnum@UIEnumConnectionPoints@@$1?IID_IEnumConnectionPoints@@3U_GUID@@BPEAUIConnectionPoint@@V?$_CopyInterface@UIConnectionPoint@@@ATL@@VCComMultiThreadModel@6@@6@@ATL@@UEAAJKPEAPEAUIConnectionPoint@@PEAK@Z
000724F4 ?Clone@?$CComEnumImpl@UIEnumConnectionPoints@@$1?IID_IEnumConnectionPoints@@3U_GUID@@BPEAUIConnectionPoint@@V?$_CopyInterface@UIConnectionPoint@@@ATL@@V?$CComEnum@UIEnumConnectionPoints@@$1?IID_IEnumConnectionPoints@@3U_GUID@@BPEAUIConnectionPoint@@V?$_CopyInterface@UIConnectionPoint@@@ATL@@VCComMultiThreadModel@6@@6@@ATL@@UEAAJPEAPEAUIEnumConnectionPoints@@@Z
00072624 ?Init@?$CComEnumImpl@UIEnumConnectionPoints@@$1?IID_IEnumConnectionPoints@@3U_GUID@@BPEAUIConnectionPoint@@V?$_CopyInterface@UIConnectionPoint@@@ATL@@V?$CComEnum@UIEnumConnectionPoints@@$1?IID_IEnumConnectionPoints@@3U_GUID@@BPEAUIConnectionPoint@@V?$_CopyInterface@UIConnectionPoint@@@ATL@@VCComMultiThreadModel@6@@6@@ATL@@QEAAJPEAPEAUIConnectionPoint@@0PEAUIUnknown@@W4CComEnumFlags@2@@Z
00072734 ?Release@?$CComObject@V?$CComEnum@UIEnumConnections@@$1?IID_IEnumConnections@@3U_GUID@@BUtagCONNECTDATA@@V?$_Copy@UtagCONNECTDATA@@@ATL@@VCComMultiThreadModel@6@@ATL@@@ATL@@UEAAKXZ
000727BC ??1?$CComEnumImpl@UIEnumConnections@@$1?IID_IEnumConnections@@3U_GUID@@BUtagCONNECTDATA@@V?$_Copy@UtagCONNECTDATA@@@ATL@@V?$CComEnum@UIEnumConnections@@$1?IID_IEnumConnections@@3U_GUID@@BUtagCONNECTDATA@@V?$_Copy@UtagCONNECTDATA@@@ATL@@VCComMultiThreadModel@6@@6@@ATL@@QEAA@XZ
0007281C ?Next@?$CComEnumImpl@UIEnumConnections@@$1?IID_IEnumConnections@@3U_GUID@@BUtagCONNECTDATA@@V?$_Copy@UtagCONNECTDATA@@@ATL@@V?$CComEnum@UIEnumConnections@@$1?IID_IEnumConnections@@3U_GUID@@BUtagCONNECTDATA@@V?$_Copy@UtagCONNECTDATA@@@ATL@@VCComMultiThreadModel@6@@6@@ATL@@UEAAJKPEAUtagCONNECTDATA@@PEAK@Z
0007292C ?Clone@?$CComEnumImpl@UIEnumConnections@@$1?IID_IEnumConnections@@3U_GUID@@BUtagCONNECTDATA@@V?$_Copy@UtagCONNECTDATA@@@ATL@@V?$CComEnum@UIEnumConnections@@$1?IID_IEnumConnections@@3U_GUID@@BUtagCONNECTDATA@@V?$_Copy@UtagCONNECTDATA@@@ATL@@VCComMultiThreadModel@6@@6@@ATL@@UEAAJPEAPEAUIEnumConnections@@@Z
00072A5C ?Init@?$CComEnumImpl@UIEnumConnections@@$1?IID_IEnumConnections@@3U_GUID@@BUtagCONNECTDATA@@V?$_Copy@UtagCONNECTDATA@@@ATL@@V?$CComEnum@UIEnumConnections@@$1?IID_IEnumConnections@@3U_GUID@@BUtagCONNECTDATA@@V?$_Copy@UtagCONNECTDATA@@@ATL@@VCComMultiThreadModel@6@@6@@ATL@@QEAAJPEAUtagCONNECTDATA@@0PEAUIUnknown@@W4CComEnumFlags@2@@Z
00072AC8 ?CreateInstance@?$CComObject@V?$CComEnum@UIEnumConnectionPoints@@$1?IID_IEnumConnectionPoints@@3U_GUID@@BPEAUIConnectionPoint@@V?$_CopyInterface@UIConnectionPoint@@@ATL@@VCComMultiThreadModel@6@@ATL@@@ATL@@SAJPEAPEAV12@@Z
00072BC4 ?CreateInstance@?$CComObject@V?$CComEnum@UIEnumConnections@@$1?IID_IEnumConnections@@3U_GUID@@BUtagCONNECTDATA@@V?$_Copy@UtagCONNECTDATA@@@ATL@@VCComMultiThreadModel@6@@ATL@@@ATL@@SAJPEAPEAV12@@Z
000739BC ?OnDrawAdvanced@CComControlBase@ATL@@UEAAJAEAUATL_DRAWINFO@@@Z
00073BDC ?CreateInstance@CComClassFactory@ATL@@UEAAJPEAUIUnknown@@AEBU_GUID@@PEAPEAX@Z
00073C40 ?Add@CComDynamicUnkArray@ATL@@QEAAKPEAUIUnknown@@@Z
00073D58 IsolationAwareCreateWindowExW
00073EA8 ?Init@CWndProcThunk@ATL@@QEAAHP6A_JPEAUHWND__@@I_K_J@ZPEAX@Z
00073F48 ?GetSizeMax@CComVariant@ATL@@QEAAJPEAT_ULARGE_INTEGER@@@Z
00074164 ?AtlIPersistStreamInit_GetSizeMax2@ATL@@YAJPEAUATL_PROPMAP_ENTRY@1@PEAXPEAUIUnknown@@PEAT_ULARGE_INTEGER@@_N@Z
00074548 ?WriteToStream@CComVariant@ATL@@QEAAJPEAUIStream@@@Z
000747C0 ?AtlIPersistStreamInit_Save2@ATL@@YAJPEAUIStream@@HPEAUATL_PROPMAP_ENTRY@1@PEAXPEAUIUnknown@@_N@Z
00074C30 ?AtlIPersistStreamInit_Save@ATL@@YAJPEAUIStream@@HPEAUATL_PROPMAP_ENTRY@1@PEAXPEAUIUnknown@@@Z
00075044 ?ReadFromStream@CComBSTR@ATL@@QEAAJPEAUIStream@@@Z
000751AC ?ReadFromStream@CComVariant@ATL@@QEAAJPEAUIStream@@G@Z
000753AC ?AtlIPersistStreamInit_Load2@ATL@@YAJPEAUIStream@@PEAUATL_PROPMAP_ENTRY@1@PEAXPEAUIUnknown@@_N@Z
00075850 ?AtlIPersistStreamInit_Load@ATL@@YAJPEAUIStream@@PEAUATL_PROPMAP_ENTRY@1@PEAXPEAUIUnknown@@@Z
00075C6C ?InPlaceActivate@CComControlBase@ATL@@QEAAJJPEBUtagRECT@@@Z
000760B4 IsolationAwareGetClassInfoExW
00076190 IsolationAwareRegisterClassExW
00076268 ?AtlModuleRegisterWndClassInfoW@ATL@@YAGPEAU_ATL_MODULE@1@PEAU_ATL_WNDCLASSINFOW@@PEAP6A_JPEAUHWND__@@I_K_J@Z@Z
00076404 ?IQuickActivate_QuickActivate@CComControlBase@ATL@@QEAAJPEAUtagQACONTAINER@@PEAUtagQACONTROL@@@Z
0007678C ?IOleObject_SetExtent@CComControlBase@ATL@@QEAAJKPEAUtagSIZE@@@Z
000768C4 ?DoVerbProperties@CComControlBase@ATL@@QEAAJPEBUtagRECT@@PEAUHWND__@@@Z
00076C18 ?IOleObject_Close@CComControlBase@ATL@@QEAAJK@Z
00076D3C ?AtlHiMetricToPixel@ATL@@YAXPEBUtagSIZE@@PEAU2@@Z
00076E08 ?IOleInPlaceObject_UIDeactivate@CComControlBase@ATL@@QEAAJXZ
00076F10 ?OnMouseActivate@CComControlBase@ATL@@QEAA_JI_K_JAEAH@Z
00077068 ?AtlRegisterClassCategoriesHelper@ATL@@YAJAEBU_GUID@@PEBU_ATL_CATMAP_ENTRY@1@H@Z
0007716C ?AtlModuleLoadTypeLib@ATL@@YAJPEAU_ATL_MODULE@1@PEBGPEAPEAGPEAPEAUITypeLib@@@Z
000772EC ?AtlModuleGetClassObject@ATL@@YAJPEAU_ATL_MODULE@1@AEBU_GUID@@1PEAPEAX@Z
0007741C ?Term@CComModule@ATL@@QEAAXXZ
00077584 ?AtlModuleInit@ATL@@YAJPEAU_ATL_MODULE@1@PEAU_ATL_OBJMAP_ENTRY@1@PEAUHINSTANCE__@@@Z
00077710 WPP_SF_sD
000777A8 ?GetIDsOfNames@CComTypeInfoHolder@ATL@@QEAAJAEBU_GUID@@PEAPEAGIKPEAJ@Z
000778A4 ?Cleanup@CComTypeInfoHolder@ATL@@SAX_K@Z
0007792C ?LoadNameCache@CComTypeInfoHolder@ATL@@QEAAJPEAUITypeInfo@@@Z
00077B48 ?GetTI@CComTypeInfoHolder@ATL@@QEAAJK@Z
00077CE4 ?_Chain@CComObjectRootBase@ATL@@SAJPEAXAEBU_GUID@@PEAPEAX_K@Z
00077D2C ?OnPaint@CComControlBase@ATL@@QEAA_JI_K_JAEAH@Z
00077E18 ?Init@CComCriticalSection@ATL@@QEAAJXZ
00077E48 ?AddReplacement@CRegObject@ATL@@QEAAJPEBG0@Z
00077FA8 IsolationAwareLoadLibraryExW
00078078 ?PreProcessBuffer@CRegParser@ATL@@QEAAJPEBGPEAPEAG@Z
0007832C ?AddValue@CRegParser@ATL@@IEAAJAEAVCRegKey@2@PEBGPEAG_N@Z
00078990 ?_Atlresetstkoflw@_ATL_SAFE_ALLOCA_IMPL@ATL@@YAHXZ
00078B44 ?_AtlVerifyStackAvailable@_ATL_SAFE_ALLOCA_IMPL@ATL@@YA_N_K@Z
00078BBC ?RecurseDeleteKey@CRegKey@ATL@@QEAAJPEBG@Z
00078CF8 WinbaseIsolationAwarePrivatetRgzlnPgpgk
00078EE8 IsolationAwarePrivatenPgViNgRzlnPgpgk
00078F4C IsolationAwareLoadLibraryW
00079014 ?DeleteSubKey@CRegKey@ATL@@QEAAJPEBG@Z
000790C0 ?SkipAssignment@CRegParser@ATL@@IEAAJPEAG@Z
0007917C ?NextToken@CRegParser@ATL@@IEAAJPEAG@Z
00079304 ?RegisterSubkeys@CRegParser@ATL@@IEAAJPEAGPEAUHKEY__@@HH@Z
00079D70 ?RegisterBuffer@CRegParser@ATL@@QEAAJPEBGH@Z
00079F00 ?RegisterFromResource@CRegObject@ATL@@IEAAJPEBG00H@Z
0007A188 ?UpdateRegistryFromResourceS@CComModule@ATL@@QEAAJIHPEAU_ATL_REGMAP_ENTRY@2@@Z
0007A4FC ?PutProperty@CComDispatchDriver@ATL@@SAJPEAUIDispatch@@JPEAUtagVARIANT@@@Z
0007A60C ?InternalQueryInterface@CComObjectRootBase@ATL@@SAJPEAXPEBU_ATL_INTMAP_ENTRY@2@AEBU_GUID@@PEAPEAX@Z
0007A760 ?TSGetComponent__TscAxComponents@@YAJU_GUID@@PEAUIUnknown@@PEAPEAU2@@Z
0007AEF0 ?WinSqmAddToStream@@YAXPEAU_GUID@@KKPEAU_SQM_STREAM_ENTRY@@@Z
0007AF9C ?WinSqmIsOptedIn@@YAHXZ
0007B030 WPP_SF_S
0007B090 ??0CMsTscAx@@QEAA@W4MstscAx_ControlType@@@Z
0007B3C4 ??1?$CComControl@VCMsTscAx@@V?$CWindowImpl@VCMsTscAx@@VCWindow@ATL@@V?$CWinTraits@$0FGAAAAAA@$0A@@3@@ATL@@@ATL@@QEAA@XZ
0007B460 ??1CMsTscAx@@QEAA@XZ
0007B788 ?FinalConstruct@CMsTscAx@@UEAAJXZ
0007BB50 ?GetUlongPtrWin32Property@CMsTscAx@@QEAAJPEBDPEA_K@Z
0007BC0C ?SetUlongPtrWin32Property@CMsTscAx@@QEAAJPEBD_K@Z
0007BCD8 ?GetBSTRPropertyInternal@CMsTscAx@@IEAAJPEAVITSPropertySet@@PEBDPEAPEAG@Z
0007BDDC ?SetBSTRPropertyInternal@CMsTscAx@@IEAAJPEAVITSPropertySet@@PEBDPEAG@Z
0007BE8C ?SetSecureBSTRPropertyInternal@CMsTscAx@@IEAAJPEAVITSPropertySet@@PEBDPEAG@Z
0007BF3C ?GetVBOOLPropertyInternal@CMsTscAx@@IEAAJPEAVITSPropertySet@@PEBDPEAF@Z
0007BFFC ?SetVBOOLPropertyInternal@CMsTscAx@@IEAAJPEAVITSPropertySet@@PEBDFH@Z
0007C0D8 ?GetULONGPropertyInternal@CMsTscAx@@IEAAJPEAVITSPropertySet@@PEBDPEAK@Z
0007C194 ?SetULONGPropertyInternal@CMsTscAx@@IEAAJPEAVITSPropertySet@@PEBDKH@Z
0007C260 ?GetIUnknownPropertyInternal@CMsTscAx@@IEAAJPEAVITSPropertySet@@PEBDPEAPEAUIUnknown@@@Z
0007C304 ?SetIUnknownPropertyInternal@CMsTscAx@@IEAAJPEAVITSPropertySet@@PEBDPEAUIUnknown@@@Z
0007C3B0 ?put_Server@CMsTscAx@@UEAAJPEAG@Z
0007C744 ?put_DisconnectedText@CMsTscAx@@UEAAJPEAG@Z
0007C798 ?get_DisconnectedText@CMsTscAx@@UEAAJPEAPEAG@Z
0007C7DC ?put_ConnectingText@CMsTscAx@@UEAAJPEAG@Z
0007C834 ?get_ConnectingText@CMsTscAx@@UEAAJPEAPEAG@Z
0007C87C ?put_ConnectedStatusText@CMsTscAx@@UEAAJPEAG@Z
0007C8D4 ?get_ConnectedStatusText@CMsTscAx@@UEAAJPEAPEAG@Z
0007C91C ?internal_PutStartProgram@CMsTscAx@@UEAAJPEAG@Z
0007C9A4 ?internal_PutWorkDir@CMsTscAx@@UEAAJPEAG@Z
0007CA2C ?CreateVirtualChannels@CMsTscAx@@UEAAJPEAG@Z
0007CFC8 ?SendOnVirtualChannel@CMsTscAx@@UEAAJPEAG0@Z
0007D13C ?SetVirtualChannelOptions@CMsTscAx@@UEAAJPEAGJ@Z
0007D22C ?GetVirtualChannelOptions@CMsTscAx@@UEAAJPEAGPEAJ@Z
0007D2E8 ?SetWriteCompletionOptions@CMsTscAx@@UEAAJPEAGHK@Z
0007D364 ?get_Width@CMsTscAx@@UEAAJPEAJ@Z
0007D3FC ?get_Height@CMsTscAx@@UEAAJPEAJ@Z
0007D494 ?get_Bpp@CMsTscAx@@UEAAJPEAJ@Z
0007D52C ?GetFrameBufferBits@CMsTscAx@@UEAAJJJJJPEAG@Z
0007D6F8 ?ForceInputSync@CMsTscAx@@UEAAJXZ
0007D7FC ?put_Property@CMsTscAx@@UEAAJPEAGPEAUtagVARIANT@@@Z
0007DDB8 ?get_Property@CMsTscAx@@UEAAJPEAGPEAUtagVARIANT@@@Z
0007E1C8 ?RequestClose@CMsTscAx@@UEAAJPEAW4__MIDL_IMsRdpClient_0002@@@Z
0007E2BC ?NotifyRedirectDeviceChange@CMsTscAx@@UEAAJ_K_J@Z
0007E2E4 ?put_DesktopWidth@CMsTscAx@@UEAAJJ@Z
0007E320 ?get_DesktopWidth@CMsTscAx@@UEAAJPEAJ@Z
0007E398 ?put_DesktopHeight@CMsTscAx@@UEAAJJ@Z
0007E3D4 ?get_DesktopHeight@CMsTscAx@@UEAAJPEAJ@Z
0007E448 ?put_StartConnected@CMsTscAx@@UEAAJH@Z
0007E4FC ?get_Version@CMsTscAx@@UEAAJPEAPEAG@Z
0007E580 ?GetControlHostUrl@CMsTscAx@@QEAAJPEAPEAG@Z
0007E674 ?GetSecurityZone@CMsTscAx@@QEAAJPEAK@Z
0007E7BC ?get_SecuredSettingsEnabled@CMsTscAx@@UEAAJPEAH@Z
0007E860 ?get_SecuredSettings@CMsTscAx@@UEAAJPEAPEAUIMsTscSecuredSettings@@@Z
0007E9CC ?get_SecuredSettings2@CMsTscAx@@UEAAJPEAPEAUIMsRdpClientSecuredSettings@@@Z
0007EA28 ?get_AdvancedSettings@CMsTscAx@@UEAAJPEAPEAUIMsTscAdvancedSettings@@@Z
0007ED28 ?internal_GetDebugger@CMsTscAx@@UEAAJPEAPEAUIMsTscDebug@@@Z
0007EFF0 ?get_Debugger@CMsTscAx@@UEAAJPEAPEAUIMsTscDebug@@@Z
0007F058 ?internal_GetRail@CMsTscAx@@UEAAJPEAPEAUITSRemoteProgram@@@Z
0007F194 ?get_RemoteProgram@CMsTscAx@@UEAAJPEAPEAUITSRemoteProgram@@@Z
0007F1C0 ?internal_GetRail@CMsTscAx@@UEAAJPEAPEAUITSRemoteProgram2@@@Z
0007F2FC ?get_RemoteProgram2@CMsTscAx@@UEAAJPEAPEAUITSRemoteProgram2@@@Z
0007F328 ?internal_GetTransportSettings@CMsTscAx@@UEAAJPEAPEAUIMsRdpClientTransportSettings@@@Z
0007F408 ?internal_GetTransportSettings2@CMsTscAx@@UEAAJPEAPEAUIMsRdpClientTransportSettings2@@@Z
0007F4E8 ?internal_GetTransportSettings3@CMsTscAx@@UEAAJPEAPEAUIMsRdpClientTransportSettings3@@@Z
0007F608 ?internal_GetMsRdpClientShell@CMsTscAx@@UEAAJPEAPEAUIMsRdpClientShell@@@Z
0007F7CC ?GetErrorDescription@CMsTscAx@@UEAAJIIPEAPEAG@Z
0007F828 ?GetStatusText@CMsTscAx@@UEAAJIPEAPEAG@Z
0007F8CC ?get_SecuredSettings3@CMsTscAx@@UEAAJPEAPEAUIMsRdpClientSecuredSettings2@@@Z
0007F934 ?get_HorizontalScrollBarVisible@CMsTscAx@@UEAAJPEAH@Z
0007F968 ?get_VerticalScrollBarVisible@CMsTscAx@@UEAAJPEAH@Z
0007F99C ?put_FullScreenTitle@CMsTscAx@@UEAAJPEAG@Z
0007FAF4 ?Connect@CMsTscAx@@UEAAJXZ
0007FC10 ?Disconnect@CMsTscAx@@UEAAJXZ
0007FC6C ?OnDraw@CMsTscAx@@UEAAJAEAUATL_DRAWINFO@@@Z
0007FD0C ?OnFrameWindowActivate@CMsTscAx@@MEAAJH@Z
0007FD88 ?SaveTaskbarPtr@CMsTscAx@@IEAAJXZ
0007FE34 ?UpdateStatusText@CMsTscAx@@IEAAHPEAG@Z
0007FE80 ?SetConnectedStatus@CMsTscAx@@IEAAXW4TSCConnectState@1@@Z
0007FF1C ?OnCreate@CMsTscAx@@QEAA_JI_K_JAEAH@Z
0007FFD4 ?GetConnectionWindowExtents@CMsTscAx@@IEAAJPEAUtagTSSIZE@@@Z
00080124 ?OverrideUserSettings@CMsTscAx@@IEAAJXZ
0008061C ?StartEstablishConnection@CMsTscAx@@IEAAJXZ
00080C28 ?OverrideUserProxySettings@CMsTscAx@@QEAAJPEAH@Z
00081038 ?OnDestroy@CMsTscAx@@QEAA_JI_K_JAEAH@Z
00081274 ?GetVChannels@CMsTscAx@@UEAAJPEAPEAVCVChannels@@@Z
000812E0 ?InitWorkspaceExtension@CMsTscAx@@UEAAJHPEBGPEAEK@Z
000814D8 ?OnCoreApiConnecting@CMsTscAx@@UEAAJXZ
00081604 ?OnCoreApiConnected@CMsTscAx@@UEAAJXZ
00081868 ?OnCoreApiLoginComplete@CMsTscAx@@UEAAJXZ
00081984 ?OnCoreApiDisconnected@CMsTscAx@@UEAAJK@Z
00081C84 ?OnCoreApiGoneFullScreen@CMsTscAx@@UEAAJXZ
00081DA0 ?OnCoreApiLeftFullScreen@CMsTscAx@@UEAAJXZ
00081EBC ?OnCoreApiRequestFullScreen@CMsTscAx@@UEAAJH@Z
00081F20 ?OnCoreApiFatalError@CMsTscAx@@UEAAJK@Z
00082118 ?OnCoreApiMouseInputModeChanged@CMsTscAx@@UEAAJH@Z
00082318 ?OnCoreApiWarning@CMsTscAx@@UEAAJK@Z
00082510 ?OnCoreApiDesktopSizeChange@CMsTscAx@@UEAAJKK@Z
00082578 ?OnCoreApiIdleTimeout@CMsTscAx@@UEAAJXZ
00082694 ?OnCoreApiRemoteApplicationResult@CMsTscAx@@UEAAJPEBGJH@Z
0008282C ?OnCoreApiRemoteApplicationDisplayed@CMsTscAx@@UEAAJHK@Z
00082990 ?OnCoreApiRequestMinimize@CMsTscAx@@UEAAJXZ
00082AAC ?OnCoreApiAskConfirmClose@CMsTscAx@@UEAAJPEAH@Z
00082C28 ?OnCoreApiServiceMessageReceived@CMsTscAx@@UEAAJPEAG@Z
00082C70 ?OnCoreApiReceivedPublicKey@CMsTscAx@@UEAAJPEBDKPEAH@Z
00082D20 ?OnCoreApiLogonError@CMsTscAx@@UEAAJJ@Z
00082F18 ?OnCoreApiAxToContainer@CMsTscAx@@UEAAJH@Z
000830E8 ?OnCoreApiAutoReconnecting@CMsTscAx@@UEAAJJJPEAW4ARCContinueState@@@Z
00083204 ?OnCoreApiStatusInfoReceived@CMsTscAx@@UEAAJK@Z
00083394 ?OnCoreApiInternalDialogDisplayed@CMsTscAx@@UEAAJXZ
000834B0 ?OnCoreApiInternalDialogDismissed@CMsTscAx@@UEAAJXZ
000835CC ?OnUserNameAcquired@CMsTscAx@@UEAAJPEBG@Z
00083640 ?OnVcDataReceived@CMsTscAx@@QEAAJIPEAG@Z
0008378C ?OnVcWriteCompleted@CMsTscAx@@QEAAJIIPEAG@Z
000838B4 ?put_ColorDepth@CMsTscAx@@UEAAJJ@Z
00083994 ?get_ColorDepth@CMsTscAx@@UEAAJPEAJ@Z
00083A2C ?SendKeys@CMsTscAx@@UEAAJJPEAFPEAJ@Z
00083B30 ?put_UIParentWindowHandle@CMsTscAx@@UEAAJPEAUHWND__@@@Z
00083B5C ?get_UIParentWindowHandle@CMsTscAx@@UEAAJPEAPEAUHWND__@@@Z
00083BAC ?put_ConnectionBarText@CMsTscAx@@UEAAJPEAG@Z
00083BD8 ?get_ConnectionBarText@CMsTscAx@@UEAAJPEAPEAG@Z
00083CE8 ?put_ShowRedirectionWarningDialog@CMsTscAx@@UEAAJF@Z
00083D40 ?put_PromptForCredentials@CMsTscAx@@UEAAJF@Z
00083D98 ?put_NegotiateSecurityLayer@CMsTscAx@@UEAAJF@Z
00083F44 ?put_EnableCredSspSupport@CMsTscAx@@UEAAJF@Z
000840B0 ?put_RedirectionWarningType@CMsTscAx@@UEAAJW4__MIDL_IMsRdpClientNonScriptable4_0001@@@Z
00084114 ?put_MarkRdpSettingsSecure@CMsTscAx@@UEAAJF@Z
0008416C ?get_PublisherCertificateChain@CMsTscAx@@UEAAJPEAUtagVARIANT@@@Z
0008428C ?put_PublisherCertificateChain@CMsTscAx@@UEAAJPEAUtagVARIANT@@@Z
000844E0 ?put_AllowCredentialSaving@CMsTscAx@@UEAAJF@Z
00084538 ?put_PromptForCredsOnClient@CMsTscAx@@UEAAJF@Z
000845F0 ?get_PromptForCredsOnClient@CMsTscAx@@UEAAJPEAF@Z
000846A8 ?put_LaunchedViaClientShellInterface@CMsTscAx@@UEAAJF@Z
00084704 ?put_TrustedZoneSite@CMsTscAx@@UEAAJF@Z
00084760 ?internal_GetDeviceCollection@CMsTscAx@@UEAAJPEAPEAUIMsRdpDeviceCollection@@@Z
00084B60 ?internal_GetDriveCollection@CMsTscAx@@UEAAJPEAPEAUIMsRdpDriveCollection@@@Z
00084E40 ?get_RedirectDynamicDrives@CMsTscAx@@UEAAJPEAF@Z
00084E7C ?put_RedirectDynamicDrives@CMsTscAx@@UEAAJF@Z
00084EC0 ?get_RedirectDynamicDevices@CMsTscAx@@UEAAJPEAF@Z
00084EFC ?put_RedirectDynamicDevices@CMsTscAx@@UEAAJF@Z
00084F68 ?put_WarnAboutClipboardRedirection@CMsTscAx@@UEAAJF@Z
00084FC0 ?put_WarnAboutPrinterRedirection@CMsTscAx@@UEAAJF@Z
00085018 ?put_WarnAboutSendingCredentials@CMsTscAx@@UEAAJF@Z
00085070 ?get_AdvancedSettings2@CMsTscAx@@UEAAJPEAPEAUIMsRdpClientAdvancedSettings@@@Z
000850D8 ?get_AdvancedSettings3@CMsTscAx@@UEAAJPEAPEAUIMsRdpClientAdvancedSettings2@@@Z
00085140 ?get_AdvancedSettings4@CMsTscAx@@UEAAJPEAPEAUIMsRdpClientAdvancedSettings3@@@Z
000851A8 ?get_AdvancedSettings5@CMsTscAx@@UEAAJPEAPEAUIMsRdpClientAdvancedSettings4@@@Z
00085210 ?get_AdvancedSettings6@CMsTscAx@@UEAAJPEAPEAUIMsRdpClientAdvancedSettings5@@@Z
00085278 ?get_AdvancedSettings7@CMsTscAx@@UEAAJPEAPEAUIMsRdpClientAdvancedSettings6@@@Z
000852E0 ?get_AdvancedSettings8@CMsTscAx@@UEAAJPEAPEAUIMsRdpClientAdvancedSettings7@@@Z
00085348 ?get_ExtendedDisconnectReason@CMsTscAx@@UEAAJPEAW4__MIDL_IMsRdpClient_0001@@@Z
000853C4 ?put_UseMultimon@CMsTscAx@@UEAAJF@Z
0008541C ?get_RemoteMonitorCount@CMsTscAx@@UEAAJPEAK@Z
000854A8 ?GetRemoteMonitorsBoundingBox@CMsTscAx@@UEAAJPEAJ000@Z
00085560 ?get_RemoteMonitorLayoutMatchesLocal@CMsTscAx@@UEAAJPEAF@Z
00085600 ?put_DisableConnectionBar@CMsTscAx@@UEAAJF@Z
00085638 ?put_UseRedirectionServerName@CMsTscAx@@UEAAJF@Z
00085690 ?put_FullScreen@CMsTscAx@@UEAAJF@Z
000856F0 ?get_FullScreen@CMsTscAx@@UEAAJPEAF@Z
000857A0 ?DoVerbInPlaceActivate@CMsTscAxWebControl@@UEAAJPEBUtagRECT@@PEAUHWND__@@@Z
0008583C ?SetConnectWithEndpoint@CMsTscAx@@QEAAJPEAUtagVARIANT@@@Z
00085920 ?GetChannelIndexFromBSTR@CMsTscAx@@IEAAJPEAGPEAI@Z
00085ADC ?CovertChar2BSTR@CMsTscAx@@IEAAJPEBDPEAPEAG@Z
00085C3C ?IsRdpSignProperty@CMsTscAx@@IEAAHPEBD@Z
00085CAC ?put_DisableRemoteAppCapsCheck@CMsTscAx@@UEAAJF@Z
00085D04 ?put_WarnAboutDirectXRedirection@CMsTscAx@@UEAAJF@Z
00085D5C ?put_AllowPromptingForCredentials@CMsTscAx@@UEAAJF@Z
00085DB4 ?GetTypeInfo@?$IDispatchImpl@UIMsRdpClientShell@@$1?IID_IMsRdpClientShell@@3U_GUID@@B$1?LIBID_MSTSCLib@@3U3@B$00$0A@VCComTypeInfoHolder@ATL@@@ATL@@UEAAJIKPEAPEAUITypeInfo@@@Z
00085E20 ?GetIDsOfNames@?$IDispatchImpl@UIMsRdpClientShell@@$1?IID_IMsRdpClientShell@@3U_GUID@@B$1?LIBID_MSTSCLib@@3U3@B$00$0A@VCComTypeInfoHolder@ATL@@@ATL@@UEAAJAEBU_GUID@@PEAPEAGIKPEAJ@Z
00085E50 ?Invoke@?$IDispatchImpl@UIMsRdpClientShell@@$1?IID_IMsRdpClientShell@@3U_GUID@@B$1?LIBID_MSTSCLib@@3U3@B$00$0A@VCComTypeInfoHolder@ATL@@@ATL@@UEAAJJAEBU_GUID@@KGPEAUtagDISPPARAMS@@PEAUtagVARIANT@@PEAUtagEXCEPINFO@@PEAI@Z
00085EE8 ?Fire_ChannelReceivedData@?$CProxy_IMsTscAxEvents@VCMsTscAx@@@@QEAAXPEAG0@Z
00086020 ?Fire_ChannelWriteCompleted@?$CProxy_IMsTscAxEvents@VCMsTscAx@@@@QEAAXPEAG0J@Z
00086164 ?Fire_RequestGoFullScreen@?$CProxy_IMsTscAxEvents@VCMsTscAx@@@@QEAAXXZ
00086250 ?Fire_RequestLeaveFullScreen@?$CProxy_IMsTscAxEvents@VCMsTscAx@@@@QEAAXXZ
0008633C ?Fire_RemoteDesktopSizeChange@?$CProxy_IMsTscAxEvents@VCMsTscAx@@@@QEAAXJJ@Z
00086568 ?Fire_OnServiceMessageReceived@?$CProxy_IMsTscAxEvents@VCMsTscAx@@@@QEAAXPEAG@Z
0008667C ?Fire_OnReceivedPublicKey@?$CProxy_IMsTscAxEvents@VCMsTscAx@@@@QEAAJPEAGPEAF@Z
0008681C ?Fire_AutoReconnecting@?$CProxy_IMsTscAxEvents@VCMsTscAx@@@@QEAAJJJPEAW4__MIDL___MIDL_itf_mstsax_0000_0034_0001@@@Z
00086A6C ?Fire_UserNameAcquired@?$CProxy_IMsTscAxEvents@VCMsTscAx@@@@QEAAXPEAG@Z
00086B80 ?GetTypeInfo@?$IDispatchImpl@UIMsRdpClientAdvancedSettings7@@$1?IID_IMsRdpClientAdvancedSettings7@@3U_GUID@@B$1?LIBID_MSTSCLib@@3U3@B$00$0A@VCComTypeInfoHolder@ATL@@@ATL@@UEAAJIKPEAPEAUITypeInfo@@@Z
00086BEC ?GetIDsOfNames@?$IDispatchImpl@UIMsRdpClientAdvancedSettings7@@$1?IID_IMsRdpClientAdvancedSettings7@@3U_GUID@@B$1?LIBID_MSTSCLib@@3U3@B$00$0A@VCComTypeInfoHolder@ATL@@@ATL@@UEAAJAEBU_GUID@@PEAPEAGIKPEAJ@Z
00086C1C ?Invoke@?$IDispatchImpl@UIMsRdpClientAdvancedSettings7@@$1?IID_IMsRdpClientAdvancedSettings7@@3U_GUID@@B$1?LIBID_MSTSCLib@@3U3@B$00$0A@VCComTypeInfoHolder@ATL@@@ATL@@UEAAJJAEBU_GUID@@KGPEAUtagDISPPARAMS@@PEAUtagVARIANT@@PEAUtagEXCEPINFO@@PEAI@Z
00086CB4 ?GetTypeInfo@?$IDispatchImpl@UIMsTscDebug@@$1?IID_IMsTscDebug@@3U_GUID@@B$1?LIBID_MSTSCLib@@3U3@B$00$0A@VCComTypeInfoHolder@ATL@@@ATL@@UEAAJIKPEAPEAUITypeInfo@@@Z
00086D20 ?GetIDsOfNames@?$IDispatchImpl@UIMsTscDebug@@$1?IID_IMsTscDebug@@3U_GUID@@B$1?LIBID_MSTSCLib@@3U3@B$00$0A@VCComTypeInfoHolder@ATL@@@ATL@@UEAAJAEBU_GUID@@PEAPEAGIKPEAJ@Z
00086D50 ?Invoke@?$IDispatchImpl@UIMsTscDebug@@$1?IID_IMsTscDebug@@3U_GUID@@B$1?LIBID_MSTSCLib@@3U3@B$00$0A@VCComTypeInfoHolder@ATL@@@ATL@@UEAAJJAEBU_GUID@@KGPEAUtagDISPPARAMS@@PEAUtagVARIANT@@PEAUtagEXCEPINFO@@PEAI@Z
00086DE8 ?GetTypeInfo@?$IDispatchImpl@UITSRemoteProgram2@@$1?IID_ITSRemoteProgram2@@3U_GUID@@B$1?LIBID_MSTSCLib@@3U3@B$00$0A@VCComTypeInfoHolder@ATL@@@ATL@@UEAAJIKPEAPEAUITypeInfo@@@Z
00086E54 ?GetIDsOfNames@?$IDispatchImpl@UITSRemoteProgram2@@$1?IID_ITSRemoteProgram2@@3U_GUID@@B$1?LIBID_MSTSCLib@@3U3@B$00$0A@VCComTypeInfoHolder@ATL@@@ATL@@UEAAJAEBU_GUID@@PEAPEAGIKPEAJ@Z
00086E84 ?Invoke@?$IDispatchImpl@UITSRemoteProgram2@@$1?IID_ITSRemoteProgram2@@3U_GUID@@B$1?LIBID_MSTSCLib@@3U3@B$00$0A@VCComTypeInfoHolder@ATL@@@ATL@@UEAAJJAEBU_GUID@@KGPEAUtagDISPPARAMS@@PEAUtagVARIANT@@PEAUtagEXCEPINFO@@PEAI@Z
00086F1C ?GetTypeInfo@?$IDispatchImpl@UIMsRdpClientTransportSettings3@@$1?IID_IMsRdpClientTransportSettings3@@3U_GUID@@B$1?LIBID_MSTSCLib@@3U3@B$00$0A@VCComTypeInfoHolder@ATL@@@ATL@@UEAAJIKPEAPEAUITypeInfo@@@Z
00086F88 ?GetIDsOfNames@?$IDispatchImpl@UIMsRdpClientTransportSettings3@@$1?IID_IMsRdpClientTransportSettings3@@3U_GUID@@B$1?LIBID_MSTSCLib@@3U3@B$00$0A@VCComTypeInfoHolder@ATL@@@ATL@@UEAAJAEBU_GUID@@PEAPEAGIKPEAJ@Z
00086FB8 ?Invoke@?$IDispatchImpl@UIMsRdpClientTransportSettings3@@$1?IID_IMsRdpClientTransportSettings3@@3U_GUID@@B$1?LIBID_MSTSCLib@@3U3@B$00$0A@VCComTypeInfoHolder@ATL@@@ATL@@UEAAJJAEBU_GUID@@KGPEAUtagDISPPARAMS@@PEAUtagVARIANT@@PEAUtagEXCEPINFO@@PEAI@Z
0008706C ?GetTypeInfo@?$IDispatchImpl@UIMsRdpClientSecuredSettings2@@$1?IID_IMsRdpClientSecuredSettings2@@3U_GUID@@B$1?LIBID_MSTSCLib@@3U3@B$00$0A@VCComTypeInfoHolder@ATL@@@ATL@@UEAAJIKPEAPEAUITypeInfo@@@Z
000870D8 ?GetIDsOfNames@?$IDispatchImpl@UIMsRdpClientSecuredSettings2@@$1?IID_IMsRdpClientSecuredSettings2@@3U_GUID@@B$1?LIBID_MSTSCLib@@3U3@B$00$0A@VCComTypeInfoHolder@ATL@@@ATL@@UEAAJAEBU_GUID@@PEAPEAGIKPEAJ@Z
00087108 ?Invoke@?$IDispatchImpl@UIMsRdpClientSecuredSettings2@@$1?IID_IMsRdpClientSecuredSettings2@@3U_GUID@@B$1?LIBID_MSTSCLib@@3U3@B$00$0A@VCComTypeInfoHolder@ATL@@@ATL@@UEAAJJAEBU_GUID@@KGPEAUtagDISPPARAMS@@PEAUtagVARIANT@@PEAUtagEXCEPINFO@@PEAI@Z
000871A0 ?Release@?$CComObject@VCMstscAdvSettings@@@ATL@@UEAAKXZ
000871F8 ?Release@?$CComObject@VCMsTscDebugger@@@ATL@@UEAAKXZ
0008728C ?Release@?$CComObject@VCMsTscRail@@@ATL@@UEAAKXZ
000872D4 ?Release@?$CComObject@VCMsTscTransportSettings@@@ATL@@UEAAKXZ
00087338 ?Release@?$CComObject@VCMsTscSecuredSettings@@@ATL@@UEAAKXZ
00087390 ?Release@?$CComObject@VCMsRdpClientShell@@@ATL@@UEAAKXZ
000873DC ?Release@?$CComObject@VCMsRdpDeviceCollection@@@ATL@@UEAAKXZ
00087420 ?Release@?$CComObject@VCMsRdpDriveCollection@@@ATL@@UEAAKXZ
000874A4 ??_E?$CComObject@VCMsTscRail@@@ATL@@UEAAPEAXI@Z
000874F4 ??_E?$CComObject@VCMsTscTransportSettings@@@ATL@@UEAAPEAXI@Z
00087544 ??_G?$CComObject@VCWorkspaceClientExt@@@ATL@@UEAAPEAXI@Z
000875A0 ??_G?$CComObject@VCMsRdpClientShell@@@ATL@@UEAAPEAXI@Z
00087600 ??_G?$CComObject@VCMsRdpDeviceCollection@@@ATL@@QEAAPEAXI@Z
00087694 ??1?$IConnectionPointImpl@VCMsTscAx@@$1?DIID_IMsTscAxEvents@@3U_GUID@@BVCComDynamicUnkArray@ATL@@@ATL@@QEAA@XZ
00087704 ?CreateInstance@?$CComObject@VCMsTscRail@@@ATL@@SAJPEAPEAV12@@Z
00087794 ?CreateInstance@?$CComObject@VCMsTscTransportSettings@@@ATL@@SAJPEAPEAV12@@Z
00087810 ?CreateInstance@?$CComObject@VCWorkspaceClientExt@@@ATL@@SAJPEAPEAV12@@Z
000878C8 ??0?$CComObject@VCWorkspaceClientExt@@@ATL@@QEAA@PEAX@Z
00087A64 ?ReadPolicyDWORD@CPolicy@@KAJPEAUHKEY__@@PEBGPEAK1@Z
00087B9C ?ReadEffectivePolicyDWORD@CPolicy@@SAJPEBGPEAK0@Z
00087C6C WPP_SF_s
00087CEC WPP_SF_
00087D10 ?StringCchCatW@@YAJPEAG_KPEBG@Z
00087DDC ?RegisterServer@CMsTscAxModule@@QEAAJHPEBU_GUID@@@Z
00087E94 ?AtlModuleRegisterTypeLib@ATL@@YAJPEAU_ATL_MODULE@1@PEBG@Z
00088028 ?put_ClearTextPassword@CMsTscAx@@UEAAJPEAG@Z
00088100 ?ResetPassword@CMsTscAx@@UEAAJXZ
00088168 ?NonDelegatingQueryInterface@CRdpDrPlugin@@UEAAJAEBU_GUID@@PEAPEAX@Z
00088254 ??_GCScriptVCPlugin@@UEAAPEAXI@Z
000882D4 TSCPluginCreate_CScriptVCPlugin
00088404 ??_ECTSObject@@UEAAPEAXI@Z
00088460 ?NonDelegatingRelease@CTSUnknown@@UEAAKXZ
000884B8 ?FinalRelease@CMsTscDebugger@@UEAAJXZ
00088590 ??0CVChannels@@QEAA@PEAVITSThread@@PEAVCMsTscAx@@@Z
00088660 ??_ECVChannels@@UEAAPEAXI@Z
00088750 ?SendDataOnChannel@CVChannels@@QEAAHIPEAXK@Z
0008882C ?HandleReceiveData@CVChannels@@QEAAHIPEAXIII@Z
00088A70 ?HandleChanelWriteCompleted@CVChannels@@QEAAHIPEAXI@Z
00088BA8 ?IntVirtualChannelOpenEventEx@CVChannels@@QEAAXKIPEAXIII@Z
00088CFC ?IntVirtualChannelInitEventProcEx@CVChannels@@QEAAXPEAXI0I@Z
00088F6C MSTSCAX_VirtualChannelEntryEx
0008932C VirtualChannelOpenEventEx
00089360 VirtualChannelInitEventProcEx
00089384 ?OnVcDataReceived@CVChannels@@UEAAJPEAVITSAsyncResult@@_K@Z
0008948C ?OnVcWriteCompleted@CVChannels@@UEAAJPEAVITSAsyncResult@@_K@Z
00089598 ?put_StartProgram@CMsTscSecuredSettings@@UEAAJPEAG@Z
000895C0 ?get_StartProgram@CMsTscSecuredSettings@@UEAAJPEAPEAG@Z
000895E8 ?put_WorkDir@CMsTscSecuredSettings@@UEAAJPEAG@Z
00089610 ?get_WorkDir@CMsTscSecuredSettings@@UEAAJPEAPEAG@Z
00089638 ?put_FullScreen@CMsTscSecuredSettings@@UEAAJH@Z
00089670 ?get_FullScreen@CMsTscSecuredSettings@@UEAAJPEAH@Z
000896A0 ?put_KeyboardHookMode@CMsTscSecuredSettings@@UEAAJJ@Z
000896F0 ?put_AudioRedirectionMode@CMsTscSecuredSettings@@UEAAJJ@Z
00089780 ?CreateExplicitPathList@CMstscAdvSettings@@AEAAPEAGPEBG@Z
00089A90 ?put_Compress@CMstscAdvSettings@@UEAAJJ@Z
00089AC8 ?get_Compress@CMstscAdvSettings@@UEAAJPEAJ@Z
00089B14 ?get_BitmapPeristence@CMstscAdvSettings@@UEAAJPEAJ@Z
00089B60 ?put_allowBackgroundInput@CMstscAdvSettings@@UEAAJJ@Z
00089BA4 ?get_allowBackgroundInput@CMstscAdvSettings@@UEAAJPEAJ@Z
00089C1C ?put_PluginDlls@CMstscAdvSettings@@UEAAJPEAG@Z
00089E04 ?put_IconFile@CMstscAdvSettings@@UEAAJPEAG@Z
00089EA8 ?put_ContainerHandledFullScreen@CMstscAdvSettings@@UEAAJH@Z
00089EE8 ?get_ContainerHandledFullScreen@CMstscAdvSettings@@UEAAJPEAH@Z
00089F20 ?put_DisableRdpdr@CMstscAdvSettings@@UEAAJH@Z
00089F78 ?put_AcceleratorPassthrough@CMstscAdvSettings@@UEAAJJ@Z
00089FB0 ?get_AcceleratorPassthrough@CMstscAdvSettings@@UEAAJPEAJ@Z
00089FF0 ?put_TransportType@CMstscAdvSettings@@UEAAJJ@Z
0008A040 ?put_SasSequence@CMstscAdvSettings@@UEAAJJ@Z
0008A090 ?put_EncryptionEnabled@CMstscAdvSettings@@UEAAJJ@Z
0008A0C8 ?get_EncryptionEnabled@CMstscAdvSettings@@UEAAJPEAJ@Z
0008A114 ?put_RDPPort@CMstscAdvSettings@@UEAAJJ@Z
0008A164 ?put_DisableCtrlAltDel@CMstscAdvSettings@@UEAAJJ@Z
0008A19C ?get_DisableCtrlAltDel@CMstscAdvSettings@@UEAAJPEAJ@Z
0008A1E8 ?put_EnableWindowsKey@CMstscAdvSettings@@UEAAJJ@Z
0008A220 ?get_EnableWindowsKey@CMstscAdvSettings@@UEAAJPEAJ@Z
0008A26C ?put_DoubleClickDetect@CMstscAdvSettings@@UEAAJJ@Z
0008A2A4 ?get_DoubleClickDetect@CMstscAdvSettings@@UEAAJPEAJ@Z
0008A2F0 ?put_MaximizeShell@CMstscAdvSettings@@UEAAJJ@Z
0008A328 ?get_MaximizeShell@CMstscAdvSettings@@UEAAJPEAJ@Z
0008A374 ?put_HotKeyFullScreen@CMstscAdvSettings@@UEAAJJ@Z
0008A3C4 ?put_HotKeyCtrlEsc@CMstscAdvSettings@@UEAAJJ@Z
0008A414 ?put_HotKeyAltEsc@CMstscAdvSettings@@UEAAJJ@Z
0008A464 ?put_HotKeyAltTab@CMstscAdvSettings@@UEAAJJ@Z
0008A4B4 ?put_HotKeyAltShiftTab@CMstscAdvSettings@@UEAAJJ@Z
0008A504 ?put_HotKeyAltSpace@CMstscAdvSettings@@UEAAJJ@Z
0008A554 ?put_HotKeyCtrlAltDel@CMstscAdvSettings@@UEAAJJ@Z
0008A5A4 ?put_HotKeyFocusReleaseLeft@CMstscAdvSettings@@UEAAJJ@Z
0008A5F4 ?put_HotKeyFocusReleaseRight@CMstscAdvSettings@@UEAAJJ@Z
0008A644 ?get_AuthenticationType@CMstscAdvSettings@@UEAAJPEAI@Z
0008A720 ?put_BitmapCacheSize@CMstscAdvSettings@@UEAAJJ@Z
0008A770 ?put_BitmapVirtualCacheSize@CMstscAdvSettings@@UEAAJJ@Z
0008A7C0 ?put_BitmapPeristence@CMstscAdvSettings@@UEAAJJ@Z
0008A818 ?put_minInputSendInterval@CMstscAdvSettings@@UEAAJJ@Z
0008A868 ?put_keepAliveInterval@CMstscAdvSettings@@UEAAJJ@Z
0008A8B8 ?put_shutdownTimeout@CMstscAdvSettings@@UEAAJJ@Z
0008A908 ?put_overallConnectionTimeout@CMstscAdvSettings@@UEAAJJ@Z
0008A958 ?put_singleConnectionTimeout@CMstscAdvSettings@@UEAAJJ@Z
0008A9A8 ?put_ConnectToAdministerServer@CMstscAdvSettings@@UEAAJF@Z
0008AA14 ?put_SmartSizing@CMstscAdvSettings@@UEAAJF@Z
0008AA9C ?put_MinutesToIdleTimeout@CMstscAdvSettings@@UEAAJJ@Z
0008AB10 ?put_ClearTextPassword@CMstscAdvSettings@@UEAAJPEAG@Z
0008AB50 ?put_DisplayConnectionBar@CMstscAdvSettings@@UEAAJF@Z
0008AB9C ?get_DisplayConnectionBar@CMstscAdvSettings@@UEAAJPEAF@Z
0008ABD4 ?put_PinConnectionBar@CMstscAdvSettings@@UEAAJF@Z
0008AC20 ?get_PinConnectionBar@CMstscAdvSettings@@UEAAJPEAF@Z
0008AC58 ?put_GrabFocusOnConnect@CMstscAdvSettings@@UEAAJF@Z
0008ACA8 ?put_LoadBalanceInfo@CMstscAdvSettings@@UEAAJPEAG@Z
0008ADF8 ?get_LoadBalanceInfo@CMstscAdvSettings@@UEAAJPEAPEAG@Z
0008AF10 ?put_RedirectDrives@CMstscAdvSettings@@UEAAJF@Z
0008B178 ?get_RedirectDrives@CMstscAdvSettings@@UEAAJPEAF@Z
0008B3B8 ?put_RedirectPrinters@CMstscAdvSettings@@UEAAJF@Z
0008B4A8 ?put_RedirectPorts@CMstscAdvSettings@@UEAAJF@Z
0008B4F8 ?put_RedirectSmartCards@CMstscAdvSettings@@UEAAJF@Z
0008B548 ?put_BitmapVirtualCache16BppSize@CMstscAdvSettings@@UEAAJJ@Z
0008B598 ?put_BitmapVirtualCache24BppSize@CMstscAdvSettings@@UEAAJJ@Z
0008B5E8 ?put_BitmapVirtualCache32BppSize@CMstscAdvSettings@@UEAAJJ@Z
0008B638 ?put_PerformanceFlags@CMstscAdvSettings@@UEAAJJ@Z
0008B688 ?put_ConnectWithEndpoint@CMstscAdvSettings@@UEAAJPEAUtagVARIANT@@@Z
0008B6AC ?put_NotifyTSPublicKey@CMstscAdvSettings@@UEAAJF@Z
0008B7A8 ?get_NotifyTSPublicKey@CMstscAdvSettings@@UEAAJPEAF@Z
0008B864 ?get_CanAutoReconnect@CMstscAdvSettings@@UEAAJPEAF@Z
0008B8E8 ?put_EnableAutoReconnect@CMstscAdvSettings@@UEAAJF@Z
0008B938 ?put_MaxReconnectAttempts@CMstscAdvSettings@@UEAAJJ@Z
0008B988 ?put_ConnectionBarShowMinimizeButton@CMstscAdvSettings@@UEAAJF@Z
0008B9D8 ?put_ConnectionBarShowRestoreButton@CMstscAdvSettings@@UEAAJF@Z
0008BA28 ?put_AuthenticationLevel@CMstscAdvSettings@@UEAAJI@Z
0008BB84 ?put_AuthenticationServiceClass@CMstscAdvSettings@@UEAAJPEAG@Z
0008BC2C ?get_AuthenticationServiceClass@CMstscAdvSettings@@UEAAJPEAPEAG@Z
0008BC9C ?put_RedirectClipboard@CMstscAdvSettings@@UEAAJF@Z
0008BD8C ?get_RedirectDevices@CMstscAdvSettings@@UEAAJPEAF@Z
0008BFCC ?put_RedirectDevices@CMstscAdvSettings@@UEAAJF@Z
0008C21C ?put_RedirectPOSDevices@CMstscAdvSettings@@UEAAJF@Z
0008C24C ?put_RelativeMouseMode@CMstscAdvSettings@@UEAAJF@Z
0008C29C ?put_AudioRedirectionMode@CMstscAdvSettings@@UEAAJI@Z
0008C2EC ?put_ConnectionBarShowPinButton@CMstscAdvSettings@@UEAAJF@Z
0008C33C ?put_PublicMode@CMstscAdvSettings@@UEAAJF@Z
0008C38C ?put_PCB@CMstscAdvSettings@@UEAAJPEAG@Z
0008C450 ?get_PCB@CMstscAdvSettings@@UEAAJPEAPEAG@Z
0008C4C0 ?get_EnableCredSspSupport@CMstscAdvSettings@@UEAAJPEAF@Z
0008C530 ?put_EnableCredSspSupport@CMstscAdvSettings@@UEAAJF@Z
0008C5AC ?put_AudioCaptureRedirectionMode@CMstscAdvSettings@@UEAAJF@Z
0008C5FC ?put_VideoPlaybackMode@CMstscAdvSettings@@UEAAJI@Z
0008C64C ?put_EnableSuperPan@CMstscAdvSettings@@UEAAJF@Z
0008C6D4 ?put_SuperPanAccelerationFactor@CMstscAdvSettings@@UEAAJK@Z
0008C730 ?get_NegotiateSecurityLayer@CMstscAdvSettings@@UEAAJPEAF@Z
0008C7A0 ?put_NegotiateSecurityLayer@CMstscAdvSettings@@UEAAJF@Z
0008C81C ?put_AudioQualityMode@CMstscAdvSettings@@UEAAJI@Z
0008C86C ?put_NetworkConnectionType@CMstscAdvSettings@@UEAAJI@Z
0008C8BC ?StringCbCatW@@YAJPEAG_KPEBG@Z
0008CA04 ?GetIRailPlugin@CMsTscRail@@AEAAJPEAPEAVITSRailPlugin@@@Z
0008CB28 ??1CMsTscRail@@UEAA@XZ
0008CB90 ?Initialize@CMsTscRail@@QEAAHPEAVITSCoreApi@@PEAVITSWin32CoreApi@@@Z
0008CC9C ?putBSTRProp@CMsTscRail@@AEAAJPEBDPEAG@Z
0008CCFC ?putBoolPropInternal@CMsTscRail@@AEAAJPEAVITSPropertySet@@PEBDF@Z
0008CDB0 ?getBoolPropInternal@CMsTscRail@@AEAAJPEAVITSPropertySet@@PEBDPEAF@Z
0008CEB4 ?ServerStartProgram@CMsTscRail@@UEAAJPEAG00F0F@Z
0008D070 ?GetBSTRProperty@CMsTscTransportSettings@@AEAAJPEBDPEAPEAG@Z
0008D174 ?SetBSTRProperty@CMsTscTransportSettings@@AEAAJPEBDPEAG@Z
0008D218 ?GetULONGProperty@CMsTscTransportSettings@@AEAAJPEBDPEAK@Z
0008D2D4 ?SetULONGProperty@CMsTscTransportSettings@@AEAAJPEBDK@Z
0008D374 ??1CMsTscTransportSettings@@UEAA@XZ
0008D3B4 ?Initialize@CMsTscTransportSettings@@QEAAHPEAVITSCoreApi@@@Z
0008D448 ?get_GatewayHostname@CMsTscTransportSettings@@UEAAJPEAPEAG@Z
0008D4A0 ?put_GatewayHostname@CMsTscTransportSettings@@UEAAJPEAG@Z
0008D4F8 ?get_GatewayUsageMethod@CMsTscTransportSettings@@UEAAJPEAK@Z
0008D550 ?put_GatewayUsageMethod@CMsTscTransportSettings@@UEAAJK@Z
0008D5E4 ?get_GatewayProfileUsageMethod@CMsTscTransportSettings@@UEAAJPEAK@Z
0008D63C ?put_GatewayProfileUsageMethod@CMsTscTransportSettings@@UEAAJK@Z
0008D6D0 ?put_GatewayPreAuthRequirement@CMsTscTransportSettings@@UEAAJK@Z
0008D764 ?get_GatewayPreAuthRequirement@CMsTscTransportSettings@@UEAAJPEAK@Z
0008D7BC ?put_GatewayPreAuthServerAddr@CMsTscTransportSettings@@UEAAJPEAG@Z
0008D814 ?get_GatewayPreAuthServerAddr@CMsTscTransportSettings@@UEAAJPEAPEAG@Z
0008D86C ?put_GatewaySupportUrl@CMsTscTransportSettings@@UEAAJPEAG@Z
0008D8C4 ?get_GatewaySupportUrl@CMsTscTransportSettings@@UEAAJPEAPEAG@Z
0008D91C ?put_GatewayEncryptedOtpCookie@CMsTscTransportSettings@@UEAAJPEAG@Z
0008D974 ?get_GatewayEncryptedOtpCookie@CMsTscTransportSettings@@UEAAJPEAPEAG@Z
0008D9CC ?put_GatewayEncryptedOtpCookieSize@CMsTscTransportSettings@@UEAAJK@Z
0008DA24 ?get_GatewayEncryptedOtpCookieSize@CMsTscTransportSettings@@UEAAJPEAK@Z
0008DA7C ?get_GatewayCredsSource@CMsTscTransportSettings@@UEAAJPEAK@Z
0008DAD4 ?put_GatewayCredsSource@CMsTscTransportSettings@@UEAAJK@Z
0008DB68 ?get_GatewayUserSelectedCredsSource@CMsTscTransportSettings@@UEAAJPEAK@Z
0008DBC0 ?put_GatewayUserSelectedCredsSource@CMsTscTransportSettings@@UEAAJK@Z
0008DC54 ?get_GatewayCredSharing@CMsTscTransportSettings@@UEAAJPEAK@Z
0008DCAC ?put_GatewayCredSharing@CMsTscTransportSettings@@UEAAJK@Z
0008DD40 ?get_GatewayIsSupported@CMsTscTransportSettings@@UEAAJPEAH@Z
0008DDC4 ?get_GatewayDefaultUsageMethod@CMsTscTransportSettings@@UEAAJPEAK@Z
0008DFA0 ?put_GatewayCredSourceCookie@CMsTscTransportSettings@@UEAAJK@Z
0008E03C ?get_GatewayCredSourceCookie@CMsTscTransportSettings@@UEAAJPEAK@Z
0008E0B0 ?put_GatewayAuthCookieServerAddr@CMsTscTransportSettings@@UEAAJPEAG@Z
0008E108 ?get_GatewayAuthCookieServerAddr@CMsTscTransportSettings@@UEAAJPEAPEAG@Z
0008E160 ?put_GatewayEncryptedAuthCookie@CMsTscTransportSettings@@UEAAJPEAG@Z
0008E1B8 ?get_GatewayEncryptedAuthCookie@CMsTscTransportSettings@@UEAAJPEAPEAG@Z
0008E210 ?put_GatewayEncryptedAuthCookieSize@CMsTscTransportSettings@@UEAAJK@Z
0008E268 ?get_GatewayEncryptedAuthCookieSize@CMsTscTransportSettings@@UEAAJPEAK@Z
0008E2C0 ?put_GatewayAuthLoginPage@CMsTscTransportSettings@@UEAAJPEAG@Z
0008E318 ?get_GatewayAuthLoginPage@CMsTscTransportSettings@@UEAAJPEAPEAG@Z
0008E370 ?get_GatewayUsername@CMsTscTransportSettings@@UEAAJPEAPEAG@Z
0008E3C8 ?put_GatewayUsername@CMsTscTransportSettings@@UEAAJPEAG@Z
0008E420 ?get_GatewayDomain@CMsTscTransportSettings@@UEAAJPEAPEAG@Z
0008E478 ?put_GatewayDomain@CMsTscTransportSettings@@UEAAJPEAG@Z
0008E4D0 ?put_GatewayPassword@CMsTscTransportSettings@@UEAAJPEAG@Z
0008E5C0 ?get_RdpFileContents@CMsRdpClientShell@@UEAAJPEAPEAG@Z
0008E624 ?put_RdpFileContents@CMsRdpClientShell@@UEAAJPEAG@Z
0008E7E8 ?SetRdpProperty@CMsRdpClientShell@@UEAAJPEAGUtagVARIANT@@@Z
0008EA20 ?GetRdpProperty@CMsRdpClientShell@@UEAAJPEAGPEAUtagVARIANT@@@Z
0008ED08 ?Launch@CMsRdpClientShell@@UEAAJXZ
0008F13C ?get_IsRemoteProgramClientInstalled@CMsRdpClientShell@@UEAAJPEAF@Z
0008F1A4 ?GetRdpFileContents@CMsRdpClientShell@@AEAAJPEAPEAG@Z
0008F224 ?GetClientProcess@CMsRdpClientShell@@AEAAJPEAPEAG@Z
0008F3F0 ?CookieAuthRequired@@YAHHPEAG@Z
0008F4EC ?GetStringFromRdp@@YAPEAGPEAG0@Z
0008F6B8 ?WriteCookieToFile@CMsRdpClientShell@@AEAAJHPEAEKPEAI@Z
0008FAFC ?Base64Encode@@YAKPEAEK0KPEAK@Z
0008FC88 ?GetCookie@CMsRdpClientShell@@AEAAJHPEAK@Z
0009010C ?UseTestClient@@YAHPEAGK@Z
000901DC ?LaunchClientProcess@CMsRdpClientShell@@AEAAJPEBG@Z
00090728 ?CreateCommandLine@CMsRdpClientShell@@AEAAJHPEBGPEAPEAG1@Z
00090FC4 ?GetRandomNumber@CMsRdpClientShell@@AEAAJPEAI@Z
000910B4 ?StringCchPrintfW@@YAJPEAG_KPEBGZZ
00091124 ??1CWorkspaceClientExt@@UEAA@XZ
00091234 ?ParseWorkspaceId@CWorkspaceClientExt@@AEAAJPEBG@Z
000913FC ?RegisterForClientEvents@CWorkspaceClientExt@@AEAAJXZ
0009152C ?Initialize@CWorkspaceClientExt@@QEAAJHPEBGPEAEKPEAVCMsTscAx@@@Z
00091768 ?GetResourceId@CWorkspaceClientExt@@UEAAJPEAPEAG@Z
0009178C ?GetResourceDisplayName@CWorkspaceClientExt@@UEAAJPEAPEAG@Z
000917C8 ?IssueDisconnect@CWorkspaceClientExt@@UEAAJXZ
00091864 ?OnConnected@CWorkspaceClientExt@@AEAAJXZ
00091A5C ?OnDisconnected@CWorkspaceClientExt@@AEAAJJ@Z
00091C10 ?Invoke@CWorkspaceClientExt@@UEAAJJAEBU_GUID@@KGPEAUtagDISPPARAMS@@PEAUtagVARIANT@@PEAUtagEXCEPINFO@@PEAI@Z
00091C50 ?UpdateWorkspaceCredentials@CWorkspaceClientExt@@AEAAJXZ
00091FA0 ?GetWorkspaceCredentials@CWorkspaceClientExt@@AEAAJPEAPEAG0@Z
00092488 ?InitializeWorkspaceSSOProperties@CWorkspaceClientExt@@AEAAJXZ
000926A8 ?InitializePublisherThumbPrint@CWorkspaceClientExt@@AEAAJPEAEK@Z
00092878 ?get_DeviceByIndex@CMsRdpDeviceCollection@@UEAAJKPEAPEAUIMsRdpDevice@@@Z
000929DC ?get_DeviceById@CMsRdpDeviceCollection@@UEAAJPEAGPEAPEAUIMsRdpDevice@@@Z
00092B4C ?get_DeviceCount@CMsRdpDeviceCollection@@UEAAJPEAK@Z
00092BA8 ?RescanDevices@CMsRdpDeviceCollection@@UEAAJF@Z
00092C38 ?Initialize@CMsRdpDeviceCollection@@QEAAJXZ
00092D70 ?GetDeviceInterfaceAndClassEnumsIUnkowns@CMsRdpDeviceCollection@@QEAAJPEAPEAUIUnknown@@0@Z
00092EC4 ?get_DeviceInstanceId@CMsRdpDevice@@UEAAJPEAPEAG@Z
00092FC0 ?get_FriendlyName@CMsRdpDevice@@UEAAJPEAPEAG@Z
000930BC ?get_DeviceText@CMsRdpDevice@@UEAAJPEAPEAG@Z
000931B8 ?get_DeviceDescription@CMsRdpDevice@@UEAAJPEAPEAG@Z
000932D8 ?get_RedirectionState@CMsRdpDevice@@UEAAJPEAF@Z
00093324 ?get_IsUSBDevice@CMsRdpDevice@@UEAAJPEAF@Z
00093370 ?get_IsCompositeDevice@CMsRdpDevice@@UEAAJPEAF@Z
000933E0 ?get_IsOptionalDevice@CMsRdpDevice@@UEAAJPEAF@Z
0009342C ?get_CmClassGuid@CMsRdpDevice@@UEAAJPEAPEAG@Z
00093528 ?Initialize@CMsRdpDevice@@QEAAJPEAUILocalDevice@@@Z
00093630 ?Release@?$CComObject@VCMsRdpDevice@@@ATL@@UEAAKXZ
000936AC ?CreateInstance@?$CComObject@VCMsRdpDevice@@@ATL@@SAJPEAPEAV12@@Z
00093718 ?get_DriveByIndex@CMsRdpDriveCollection@@UEAAJKPEAPEAUIMsRdpDrive@@@Z
00093930 ?get_DriveCount@CMsRdpDriveCollection@@UEAAJPEAK@Z
00093998 ?RescanDrives@CMsRdpDriveCollection@@UEAAJF@Z
00093A04 ?get_Name@CMsRdpDrive@@UEAAJPEAPEAG@Z
00093BA0 ?get_RedirectionState@CMsRdpDrive@@UEAAJPEAF@Z
00093C08 ?Release@?$CComObject@VCMsRdpDrive@@@ATL@@UEAAKXZ
00093C84 ?TRC_NRM_FROM_MACRO@@YAXPEBGZZ
00093D54 ?TRC_ERR_FROM_MACRO@@YAXPEBGZZ
00093E24 ?NonDelegatingQueryInterface@CClientProxyTransport@@UEAAJAEBU_GUID@@PEAPEAX@Z
00093F44 ?Invoke@OnConnectedAsyncAsyncCallback@CClientProxyTransport@@UEAAJPEAVITSAsyncResult@@_K@Z
00093F8C ?Invoke@OnBufferAvailableAsyncAsyncCallback@CClientProxyTransport@@UEAAJPEAVITSAsyncResult@@_K@Z
00093FD4 ?Invoke@OnDataAvailableAsyncAsyncCallback@CClientProxyTransport@@UEAAJPEAVITSAsyncResult@@_K@Z
0009402C ?Invoke@DisconnectSyncAsyncCallback@CClientProxyTransport@@UEAAJPEAVITSAsyncResult@@_K@Z
000940DC WPP_SF_qdq
0009413C WPP_SF_ss
0009423C WPP_SF_ssd
00094350 ?TsProxyPrivateParseUserName@@YAJPEBGPEAGK1K@Z
0009448C ?TsProxyParseUserName@CClientProxyTransport@@QEAAJPEBGPEAGK1K@Z
0009465C ??0CClientProxyTransport@@QEAA@PEAUIUnknown@@@Z
0009495C ??_GCClientProxyTransport@@UEAAPEAXI@Z
00094994 ??1CClientProxyTransport@@UEAA@XZ
00094AC4 ?Initialize@CClientProxyTransport@@UEAAJPEAVITSTransportStackNotifySink@@@Z
00094D98 ?Terminate@CClientProxyTransport@@UEAAJXZ
00094DC0 ?InternalTerminate@CClientProxyTransport@@AEAAJH@Z
0009503C ?Reset@CClientProxyTransport@@UEAAJPEAEIPEAVITSPropertySet@@@Z
000952A4 ?CheckDefaultGateway@CClientProxyTransport@@AEAAJXZ
00095354 ?ProxyBase64Encode@@YAKPEAEK0KPEAK@Z
0009549C ?CheckAuthCookie@CClientProxyTransport@@AEAAJPEAVITSPropertySet@@PEAVIAAProfile@@H@Z
00095D54 ?ForwardPreAuthCookie@CClientProxyTransport@@AEAAJPEAVITSPropertySet@@PEAVIAAProfile@@@Z
00095F24 ?Connect@CClientProxyTransport@@UEAAJPEAEIPEAVITSPropertySet@@PEAK@Z
000967D4 ?GetSendBuffer@CClientProxyTransport@@UEAAJIPEAPEAEPEA_KH@Z
000969D0 ?SendData@CClientProxyTransport@@UEAAJPEAEI_K@Z
00096AD4 ?FreeBuffer@CClientProxyTransport@@UEAAJ_K@Z
00096B60 ?ReadData@CClientProxyTransport@@UEAAKPEAEI@Z
00096D9C ?DirectReceive@CClientProxyTransport@@UEAAJPEAPEAEK@Z
00096E78 ?IsDataAvailable@CClientProxyTransport@@UEAAHXZ
00096EFC ?OnConnected@CClientProxyTransport@@UEAAJXZ
00096F88 ?DropLink@CClientProxyTransport@@UEAAJH@Z
00097024 ?Disconnect@CClientProxyTransport@@UEAAJXZ
00097078 ?CloseProxyRawTransport@CClientProxyTransport@@AEAAJK@Z
00097110 ?OnDisconnected@CClientProxyTransport@@QEAAXK@Z
000971C0 ?OnDataAvailable@CClientProxyTransport@@UEAAJXZ
00097214 ?PresetBufferList@CClientProxyTransport@@AEAAJXZ
00097360 ?WriteBuffersToProxy@CClientProxyTransport@@QEAAJPEAVITSAsyncResult@@_K@Z
000976A0 ?OnPacketSent@CClientProxyTransport@@UEAAJ_KJ@Z
000977F4 ?PopulateConnectionSettings@CClientProxyTransport@@AEAAJPEAVITSPropertySet@@PEAPEAVIAAProfile@@PEAU_AAUSERCREDS@@@Z
00097D58 ?PopulateConnectionSettingsWrapper@CClientProxyTransport@@UEAAJPEAPEAVIAAProfile@@PEAU_AAUSERCREDS@@@Z
00097D8C ?GetEffectiveProxyProfile@CClientProxyTransport@@AEAAJPEAVITSPropertySet@@PEAPEAVIAAProfile@@@Z
000981A4 ?GetErrorStatus@CClientProxyTransport@@SAKJPEAV1@@Z
00098DE4 ?ConfigureTSRedirection@CClientProxyTransport@@QEAAJPEAX@Z
00099074 ?OnIdleTimeout@CClientProxyTransport@@UEAAJPEAVITSAsyncResult@@_K@Z
00099098 ?ConvertWideCharToMultiByte@CClientProxyTransport@@AEAAJPEBGKPEAPEAEPEAK@Z
000992C0 ??_ECProxyResolver@@UEAAPEAXI@Z
000992F8 ??1CProxyResolver@@UEAA@XZ
00099378 ?Initialize@CProxyResolver@@UEAAJXZ
000993C0 ?ResolveName@CProxyResolver@@UEAAJPEBGPEAVITSTransportStackNotifySink@@KPEAEPEAG3PEAVITSPropertySet@@PEAK@Z
00099670 ?Cancel@CProxyResolver@@UEAAJXZ
000996C0 ?OnNotifyFailToConnect@CProxyResolver@@UEAAJKPEAH@Z
00099840 ?OnRetargetSuccess@CProxyResolver@@UEAAJXZ
00099880 ?OnRetargetFailure@CProxyResolver@@UEAAJJPEAH@Z
00099988 ?Release@CAABase@@UEAAKXZ
000999B8 ??_ECAABase@@UEAAPEAXI@Z
000999F0 ?OnPacketSent@_CLIENT_SEND_PACKET@@UEAAXJ@Z
00099A44 ?OnComplete@_CLIENT_SEND_PACKET@@UEAAXJK@Z
00099B30 ??0CProxyRawTrans@@QEAA@PEAVCClientProxyTransport@@@Z
00099D60 ??_GCProxyRawTrans@@UEAAPEAXI@Z
00099DBC ??_GIAARedirectionConfig@@UEAAPEAXI@Z
00099DF0 ?InitForChannelConnect@CProxyRawTrans@@QEAAXXZ
00099F44 ??1CProxyRawTrans@@UEAA@XZ
0009A1BC ?OnTunnelCreated@CProxyRawTrans@@UEAAXJPEAVIAATunnel@@@Z
0009A408 ?OnTunnelDisconnected@CProxyRawTrans@@UEAAXJPEAVIAATunnel@@@Z
0009A528 ?OnProxyMessageReceived@CProxyRawTrans@@UEAAXPEAU_TSC_PROXY_MESSAGE@@@Z
0009ADD0 ?OnChannelCreated@CProxyRawTrans@@UEAAXJPEAVIAAChannel@@@Z
0009AEE0 ?OnDataAvailable@CProxyRawTrans@@UEAAXPEAVIAAChannel@@K@Z
0009AF0C ?OnChannelDisconnected@CProxyRawTrans@@UEAAXJPEAVIAAChannel@@@Z
0009AFE0 ?ReadData@CProxyRawTrans@@QEAAHPEAEIAEAI@Z
0009B0D4 ?Disconnect@CProxyRawTrans@@QEAAJK@Z
0009B2B4 ?DisconnectChannel@CProxyRawTrans@@QEAAJK@Z
0009B334 ?CancelTunnelConnect@CProxyRawTrans@@AEAAJXZ
0009B38C ?CreateProxyConnection@CProxyRawTrans@@QEAAJPEAVIAAProfile@@PEAU_AAUSERCREDS@@H@Z
0009B5A0 ?SetPortAndTs@CProxyRawTrans@@QEAAJKPEAPEBGKQEAPEBGE@Z
0009B9D0 ?CreateNewChannel@CProxyRawTrans@@QEAAJXZ
0009BB38 ?GetAsyncPacketLimit@CProxyRawTrans@@UEAAKXZ
0009BBDC ??1?$CPacketMgr@U_CLIENT_SEND_PACKET@@@@QEAA@XZ
0009BD48 ??_G_CLIENT_SEND_PACKET@@UEAAPEAXI@Z
0009BD7C ??0CAAAsyncMessageHandler@@QEAA@XZ
0009BE38 ??_GCAAAsyncMessageHandler@@UEAAPEAXI@Z
0009BEFC ?Init@CAAAsyncMessageHandler@@QEAAJPEAVITSPropertySet@@PEAGKH11@Z
0009C2BC ?MessageDisplayCompleteCb@CAAAsyncMessageHandler@@UEAAXH@Z
0009C2F0 WPP_SF_ssD
0009C378 ?GetAAModuleName@@YAJPEA_KPEAG@Z
0009C5E0 ?LoadAALibrary@@YAKXZ
0009C818 ?IsProxySupportEnabled@@YAHXZ
0009C938 ?ExplicitProxySettingsAllowed@@YAHPEAK@Z
0009CA30 ?CreateTemporaryProfile@@YAJPEBG0W4__MIDL___MIDL_itf_tsgpolicyengine_0000_0000_0001@@PEAPEAVIAAProfile@@@Z
0009CB50 ?LoadDefaultProfile@@YAJPEAPEAVIAAProfile@@@Z
0009CC08 ?GetDefaultProxyUsage@@YAJPEAW4AAProxyUsage@@PEAH@Z
0009CDB4 ?GetMUIHandle@@YAJPEAPEAUHINSTANCE__@@@Z
0009CE08 ??0CAAProfile@@AEAA@XZ
0009CEC4 ??_ECAAProfile@@UEAAPEAXI@Z
0009CF40 ?CreateTempProfile@CAAProfile@@SAJPEBG0W4__MIDL___MIDL_itf_tsgpolicyengine_0000_0000_0001@@0PEAPEAV1@@Z
0009D1D4 ?SetProxyHostName@CAAProfile@@UEAAJPEBG@Z
0009D294 ?SetProxyPreAuthServerAddr@CAAProfile@@UEAAJPEBG@Z
0009D334 ?SetProxySupportUrl@CAAProfile@@UEAAJPEBG@Z
0009D3D4 ?SetProxyPreAuthCookie@CAAProfile@@UEAAJPEAEK@Z
0009D4E0 ?GetProxyPreAuthCookie@CAAProfile@@UEAAJPEAPEAEPEAK@Z
0009D578 ?SetAuthScheme@CAAProfile@@UEAAJW4__MIDL___MIDL_itf_tsgpolicyengine_0000_0000_0001@@@Z
0009D5D8 ?SetAlternateSPN@CAAProfile@@UEAAJPEBG@Z
0009D7A0 ?NeedsCreds@CAAProfile@@UEAAHXZ
0009D7C8 ?ReadCreds@CAAProfile@@UEAAJPEAPEAGPEAH@Z
0009DAB4 ?CleanUpCreds@CAAProfile@@UEAAJXZ
0009DAF8 ?UpdateCredentials@CAAProfile@@UEAAJPEAUHWND__@@PEBG11HH@Z
0009DCA0 ?GatherCredentials@CAAProfile@@UEAAJPEAU_TSC_PROXY_GATHER_CREDS_INFO@@PEAPEAU_TSC_PROXY_OUTPUT_CREDS_INFO@@@Z
0009DEAC ?GatherCreds@CAAProfile@@UEAAJPEAUHWND__@@PEBG1PEAUHBITMAP__@@1HH1PEAH3PEAPEAG4PEAPEAXPEAPEAU_AAUSERCREDS@@PEAW4__MIDL___MIDL_itf_tsgpolicyengine_0000_0000_0001@@@Z
0009DF7C ?InternalGatherCreds@CAAProfile@@AEAAJPEAUHWND__@@PEBG1PEAUHBITMAP__@@1HHHH11PEAH3PEAPEAG4PEAPEAXPEAPEAU_AAUSERCREDS@@PEAW4__MIDL___MIDL_itf_tsgpolicyengine_0000_0000_0001@@@Z
0009EE8C ?FreeUserCreds@CAAProfile@@UEAAJPEAU_AAUSERCREDS@@@Z
0009EF0C ?LoadGPProfile@CAAProfile@@SAJPEAPEAV1@@Z
0009F2C0 ?InternalGetDefaultProxyUsage@CAAProfile@@CAJPEAUHKEY__@@PEAW4AAProxyUsage@@PEAH2@Z
0009F478 ?InternalGetDefaultProxyHostName@CAAProfile@@CAJPEAUHKEY__@@PEAGKPEAH2@Z
0009F664 ?InternalGetDefaultAuthMode@CAAProfile@@CAJPEAUHKEY__@@PEAW4__MIDL___MIDL_itf_tsgpolicyengine_0000_0000_0001@@PEAH2@Z
0009F81C ?GetMessageText@CAAProfile@@AEAAPEAGXZ
0009FA04 ?GetCaptionText@CAAProfile@@AEAAPEAGXZ
0009FBF0 ?GetEffectiveSettings@CTscProxyUtil@@SAJKPEAKPEAPEBG0PEAPEAVIAAProfile@@@Z
000A0070 ?ValidateAndOverrideGPSettings@CTscProxyUtil@@SAJPEAVIAAProfile@@PEAK@Z
000A0154 ?StringCbPrintfW@@YAJPEAG_KPEBGZZ
000A01C4 ?TsCreateFileStream@@YAJPEBGPEAPEAVITsRdpSettingsStream@@@Z
000A02E4 ?TsCreateMemoryStream@@YAJPEBGPEAPEAVITsRdpSettingsStream@@@Z
000A0468 ?TsCreateSettingsStore@@YAJPEAPEAVITsSettingsStore@@@Z
000A04F0 ?TsOpenMemorySettingsStore@@YAJPEBGPEAPEAVITsSettingsStore@@@Z
000A0644 ??0CRdpSettingsFileStream@@QEAA@XZ
000A0710 ??_GCRdpSettingsFileStream@@MEAAPEAXI@Z
000A07F8 ?LoadFileContents@CRdpSettingsFileStream@@IEAAJXZ
000A096C ?OpenForRead@CRdpSettingsFileStream@@UEAAJPEBG@Z
000A0AD0 ?OpenForWrite@CRdpSettingsFileStream@@UEAAJPEBGH@Z
000A0D00 ?Close@CRdpSettingsFileStream@@UEAAJXZ
000A0D58 ?Write@CRdpSettingsFileStream@@UEAAJPEBG@Z
000A0FA4 ?ResetFilePointerToStart@CRdpSettingsFileStream@@IEAAJXZ
000A0FE8 ?GetSettingsString@CRdpSettingsFileStream@@UEAAJPEAPEAG@Z
000A1298 ?GetNextLine@CRdpSettingsFileStream@@UEAAPEAGXZ
000A12D0 ?PrepareForRead@CRdpSettingsFileStream@@UEAAJXZ
000A1338 ?InitializeFromMoniker@CRdpSettingsFileStream@@UEAAJPEBG@Z
000A1444 ??_GCRdpSettingsMemoryStream@@MEAAPEAXI@Z
000A14FC ?OpenForRead@CRdpSettingsMemoryStream@@UEAAJPEBG@Z
000A15B0 ?InitializeFromMoniker@CRdpSettingsMemoryStream@@UEAAJPEBG@Z
000A1704 ?Close@CRdpSettingsMemoryStream@@UEAAJXZ
000A1734 ?GetSettingsString@CRdpSettingsMemoryStream@@UEAAJPEAPEAG@Z
000A1828 ??0CRdpSettingsStore@@QEAA@XZ
000A18F8 ??_ECRdpSettingsStore@@UEAAPEAXI@Z
000A1930 ??1CRdpSettingsStore@@UEAA@XZ
000A19B0 ?OpenStore@CRdpSettingsStore@@UEAAJPEAVITsRdpSettingsStream@@H@Z
000A1B28 ?CommitStore@CRdpSettingsStore@@UEAAJPEAVITsRdpSettingsStream@@@Z
000A1DD8 ?SerializeStore@CRdpSettingsStore@@UEAAJPEAPEAG@Z
000A2080 ?CloseStore@CRdpSettingsStore@@UEAAJXZ
000A20FC ?ReadStringNoDefault@CRdpSettingsStore@@UEAAHPEBGPEAGI@Z
000A21D0 ?ReadString@CRdpSettingsStore@@UEAAHPEBG0PEAGI@Z
000A22B8 ?WriteString@CRdpSettingsStore@@UEAAHPEBG00H@Z
000A2348 ?ReadBinary@CRdpSettingsStore@@UEAAHPEBGPEAEI@Z
000A23E4 ?WriteBinary@CRdpSettingsStore@@UEAAHPEBGPEAEI@Z
000A2418 ?ReadIntNoDefault@CRdpSettingsStore@@UEAAHPEBGPEAI@Z
000A2490 ?ReadInt@CRdpSettingsStore@@UEAAHPEBGIPEAI@Z
000A24E8 ?WriteInt@CRdpSettingsStore@@UEAAHPEBGIIH@Z
000A2540 ?ReadBool@CRdpSettingsStore@@UEAAHPEBGIPEAH@Z
000A2580 ?WriteBool@CRdpSettingsStore@@UEAAHPEBGIHH@Z
000A25A4 ?ParseStream@CRdpSettingsStore@@IEAAJXZ
000A26A4 ?InsertRecordFromLine@CRdpSettingsStore@@IEAAHPEBG@Z
000A28FC ?ParseLine@CRdpSettingsStore@@IEAAHPEBGPEAIPEAG_K23@Z
000A2BE4 ?FreeNodeBuffer@@YAHPEAUtagRDPF_RECORD@@@Z
000A2C28 ?InsertRecord@CRdpSettingsStore@@UEAAHPEBGI0@Z
000A2D28 ?SetNodeValue@CRdpSettingsStore@@IEAAHPEAUtagRDPF_RECORD@@IPEBG@Z
000A2EC8 ?InsertIntRecord@CRdpSettingsStore@@IEAAHPEBGI@Z
000A2F84 ?InsertBinaryRecord@CRdpSettingsStore@@IEAAHPEBGPEAEK@Z
000A30B8 ?RecordToString@CRdpSettingsStore@@IEAAJPEAUtagRDPF_RECORD@@PEAGIPEAI@Z
000A3524 ?FindRecord@CRdpSettingsStore@@IEAAPEAUtagRDPF_RECORD@@PEBG@Z
000A3648 ?NewRecord@CRdpSettingsStore@@IEAAPEAUtagRDPF_RECORD@@PEBGI@Z
000A3760 ?DeleteRecords@CRdpSettingsStore@@IEAAHXZ
000A37D0 ?DeleteRecord@CRdpSettingsStore@@IEAAHPEAUtagRDPF_RECORD@@@Z
000A3858 ?DeleteValueIfPresent@CRdpSettingsStore@@UEAAHPEBG@Z
000A3898 ?SetToNullStore@CRdpSettingsStore@@UEAAJXZ
000A38DC ?IsValuePresent@CRdpSettingsStore@@UEAAHPEBGPEAH@Z
000A391C ?GetDataLength@CRdpSettingsStore@@UEAAKPEBG@Z
000A3984 ?ApplyCertSignature@CRdpSettingsStore@@UEAAJPEBU_CERT_CONTEXT@@@Z
000A3C4C ?ApplyCurrentUserSignature@CRdpSettingsStore@@UEAAJXZ
000A3DD8 ?GetSignatureType@CRdpSettingsStore@@UEAAJPEAW4RDP_STORE_SIGNATURE_TYPE@@@Z
000A4490 ?GetSignature@CRdpSettingsStore@@UEAAJPEAPEAVITsRdpSignature@@@Z
000A456C ?VerifySignature@CRdpSettingsStore@@UEAAJPEAK@Z
000A48BC ?InitializeSignature@CRdpSettingsStore@@IEAAJH@Z
000A4F14 ?InternalSign@CRdpSettingsStore@@IEAAJPEAVCTsRdpSignature@@W4RDP_STORE_SIGNATURE_TYPE@@@Z
000A5324 ?GenerateSignScope@CRdpSettingsStore@@IEAAJPEAPEAGPEAK@Z
000A5620 ?VerifySenstitiveSettings@CRdpSettingsStore@@IEAAJPEAG@Z
000A58D8 ?GenerateSecureSettingsBlob@CRdpSettingsStore@@IEAAJPEBGPEAPEAEPEAK@Z
000A5B30 ?CalculateSecureSettingsLength@CRdpSettingsStore@@IEAAJPEAGPEAK@Z
000A5CEC ?CopySecureSettings@CRdpSettingsStore@@IEAAJPEAG0K@Z
000A5EA0 ?StringCchCatExW@@YAJPEAG_KPEBGPEAPEAGPEA_KK@Z
000A61A4 ??_GCTsRdpCertSignature@@UEAAPEAXI@Z
000A6210 ?Reset@CTsRdpCertSignature@@UEAAXXZ
000A6284 ?SetCertificate@CTsRdpCertSignature@@UEAAJPEBU_CERT_CONTEXT@@PEBU_CERT_CHAIN_CONTEXT@@@Z
000A63A0 ?GetCertificate@CTsRdpCertSignature@@UEAAJPEAPEBU_CERT_CONTEXT@@@Z
000A6420 ?GetCertificateChainContext@CTsRdpCertSignature@@UEAAJPEAPEBU_CERT_CHAIN_CONTEXT@@@Z
000A64D0 ?GetCertificateThumbPrint@CTsRdpCertSignature@@UEAAJPEAPEAEPEAK@Z
000A6678 ?Sign@CTsRdpCertSignature@@UEAAJXZ
000A6AD0 ?Serialize@CTsRdpCertSignature@@UEAAJPEAPEAU_RDP_SERIALIZED_SIG@@PEAK@Z
000A6BE8 ?Initialize@CTsRdpCertSignature@@UEAAJPEAU_RDP_SERIALIZED_SIG@@K@Z
000A6E74 ?VerifySignature@CTsRdpCertSignature@@UEAAJPEAK@Z
000A7130 ?ValidateCertificate@CTsRdpCertSignature@@AEAAJPEBU_CERT_CONTEXT@@PEAXPEAKPEAPEBU_CERT_CHAIN_CONTEXT@@@Z
000A7604 ?CertChainContextToArray@CTsRdpCertSignature@@AEAAJPEBU_CERT_CHAIN_CONTEXT@@PEAKPEAPEAPEBU_CERT_CONTEXT@@@Z
000A76E0 ?GetHandleToMsgStore@CTsRdpCertSignature@@AEAAPEAXPEBEK@Z
000A786C ??_GCTsRdpSignature@@MEAAPEAXI@Z
000A78A4 ??1CTsRdpSignature@@MEAA@XZ
000A78FC ?Reset@CTsRdpSignature@@UEAAXXZ
000A7988 ?GetUnsignedBlob@CTsRdpSignature@@UEAAJPEAPEAEPEAK@Z
000A79C4 ?GetSignedBlob@CTsRdpSignature@@UEAAJPEAPEAEPEAK@Z
000A7A10 ?IsProcFeatPresent@@YA_NW4ProcFeature@@@Z
000A7A54 TsCryptEncryptString
000A7B94 TsCryptBinaryToString
000A7C5C ?TsCryptDecodeObject@@YAJKPEBDPEBEKKPEAPEAXPEAK@Z
000A7D3C TsCryptGetCertContext
000A7DF8 TsCryptGetCertTimeStatus
000A7EAC ?TsCryptEnhancedKeyUsageContainsIds@@YAHPEAU_CTL_USAGE@@PEAPEBDKW4EKUSearchOption@@@Z
000A7FE8 TsCryptCertContainsEnhancedKeyUsage
000A80FC TsCryptIsValidRdpSignEndCertificate
000A81B8 ?TsCryptGetCertName@@YAJPEBU_CERT_CONTEXT@@PEAGPEA_KK@Z
000A829C TsCryptConstructCertChain
000A83EC WPP_SF_dss
000A8500 ?UT_ReadRegistryStringCch@CUT@@SAXPEBG00PEAGHW4UT_REGREAD_LOCATION@@@Z
000A8658 ?UT_ReadRegistryStringCch@CUT@@SAXPEBG000PEAGHW4UT_REGREAD_LOCATION@@@Z
000A86C4 ?UT_ReadRegistryInt@CUT@@SAHPEBG0HW4UT_REGREAD_LOCATION@@@Z
000A873C ?UT_RegGetServerAuthValue@CUT@@SAKXZ
000A878C ?UT_ReadRegistryBinary@CUT@@SAXPEBG00PEAGHPEAKW4UT_REGREAD_LOCATION@@@Z
000A888C ?UT_WriteRegistryString@CUT@@SAHPEBG000@Z
000A8998 ?UT_WriteRegistryInt@CUT@@SAHPEBG0H@Z
000A8A10 ?UT_WriteRegistryBinary@CUT@@SAHPEBG0PEAGH@Z
000A8AD8 ?UT_ValidateProductSuite@CUT@@QEAAHPEBD@Z
000A8C04 ?ValidateServerName@CUT@@SAHPEBGH@Z
000A8CB8 ?IsValidIPv6Address@CUT@@SAHPEBG@Z
000A8D40 ?NotifyShellOfFullScreen@CUT@@SAHPEAUHWND__@@HPEAPEAUITaskbarList2@@PEAH@Z
000A8EFC ?ScreenToClientRect@CUT@@SAXPEAUHWND__@@PEAUtagRECT@@@Z
000A8F74 ?MonitorRectFromHwnd@CUT@@SAHPEAUHWND__@@PEAUtagRECT@@@Z
000A9024 ?StringPropPut@CUT@@SAJPEAGIPEBG@Z
000A9074 ?UT_IsRunningOnPTS@CUT@@SAHXZ
000A9144 ?UT_IsTSListenerPort@CUT@@SAJGPEAH@Z
000A9454 ?UT_IsTSOnWin2KOrGreater@CUT@@SAHXZ
000A9558 ?UT_IsRunningOnWin2kOrLess@CUT@@SAHXZ
000A9600 ?UT_IsRunningOnVistaOrLess@CUT@@SAHXZ
000A96AC ?UT_IsLoRIEDirectoryEnabled@CUT@@SAHXZ
000A977C ?OverwriteByteBlob@CUT@@SAJPEAEKPEAPEAEPEAK@Z
000A9848 ?BinaryToString@CUT@@SAH_KPEAEPEAGPEAI@Z
000A9960 ?StringToBinary@CUT@@SAH_KPEAGPEAEPEAK@Z
000A9ADC ?BinaryToBase64String@CUT@@SAJPEAEKPEAPEAGPEAK@Z
000A9C90 ?Base64StringToBinary@CUT@@SAJPEBGPEAPEAEPEAK@Z
000A9E18 ?UTMakeFullSection@CUT@@CAPEAGPEBG0@Z
000AA008 SetupMSLicensingKey
000AA09C ?AddACLToObjectSecurityDescriptor@@YAHPEAXW4_SE_OBJECT_TYPE@@@Z
000AA404 ?AddACLToStoreObjectSecurityDescriptor@@YAHPEAXW4_SE_OBJECT_TYPE@@@Z
000AA7A4 CreateRegAddAcl
000AA898 CreateAndWriteHWID
000AA954 ?UTReadRegistryInt@CUT@@CAHPEBG0PEAHW4UT_REGREAD_LOCATION@@@Z
000AAA84 ?UTWriteRegistryInt@CUT@@CAHPEBG0H@Z
000AAAF4 WPP_SF_Dx
000AAB4C WPP_SF_D
000AAB88 WPP_SF_sl
000AAC24 WPP_SF_ssl
000AAD38 ?UTReadEntry@CUT@@SAHPEAUHKEY__@@PEBG1PEAEHJPEAKH@Z
000AAF2C ?UTWriteEntry@CUT@@CAHPEAUHKEY__@@PEBG1QEAEHJ@Z
000AB148 ?UTDeleteEntry@CUT@@CAHPEBG0@Z
000AB2F4 ?NonDelegatingQueryInterface@CTSExternalStreamTransport@@UEAAJAEBU_GUID@@PEAPEAX@Z
000AB464 ??0CTSExternalStreamTransport@@QEAA@PEAUIUnknown@@@Z
000AB594 ??_GCTSExternalStreamTransport@@UEAAPEAXI@Z
000AB5CC ??1CTSExternalStreamTransport@@UEAA@XZ
000AB698 ?Initialize@CTSExternalStreamTransport@@UEAAJPEAVITSTransportStackNotifySink@@@Z
000AB918 ?Terminate@CTSExternalStreamTransport@@UEAAJXZ
000ABA0C ?Connect@CTSExternalStreamTransport@@UEAAJPEAEIPEAVITSPropertySet@@PEAK@Z
000ABCDC ?GetSendBuffer@CTSExternalStreamTransport@@UEAAJIPEAPEAEPEA_KH@Z
000ABDA0 ?SendData@CTSExternalStreamTransport@@UEAAJPEAEI_K@Z
000ABE68 ?FreeBuffer@CTSExternalStreamTransport@@UEAAJ_K@Z
000ABE9C ?ReadData@CTSExternalStreamTransport@@UEAAKPEAEI@Z
000AC07C ?IsDataAvailable@CTSExternalStreamTransport@@UEAAHXZ
000AC0F4 ?DropLink@CTSExternalStreamTransport@@UEAAJH@Z
000AC130 ?GetLocalAddress@CTSExternalStreamTransport@@UEAAJPEAG0@Z
000AC1E4 ?OnStreamClosed@CTSExternalStreamTransport@@UEAAXJ@Z
000AC304 ?OnReadCompleted@CTSExternalStreamTransport@@UEAAXPEAUIRDPENCNetStreamBuffer@@@Z
000AC410 ?OnWriteCompleted@CTSExternalStreamTransport@@UEAAXPEAUIRDPENCNetStreamBuffer@@@Z
000AC430 ?Decoupled_OnDisconnected@CTSExternalStreamTransport@@UEAAJPEAVITSAsyncResult@@_K@Z
000AC4EC ?Decoupled_OnConnected@CTSExternalStreamTransport@@UEAAJPEAVITSAsyncResult@@_K@Z
000AC580 ?Decoupled_OnDataAvailable@CTSExternalStreamTransport@@UEAAJPEAVITSAsyncResult@@_K@Z
000AC63C ?WriteLock@CTSReaderWriterLock@@QEAAXXZ
000AC764 ?NonDelegatingQueryInterface@CExternalNetStreamResolver@@UEAAJAEBU_GUID@@PEAPEAX@Z
000AC80C ??_GCExternalNetStreamResolver@@UEAAPEAXI@Z
000AC844 ??1CExternalNetStreamResolver@@UEAA@XZ
000AC8CC ?ResolveName@CExternalNetStreamResolver@@UEAAJPEBGPEAVITSTransportStackNotifySink@@KPEAEPEAG3PEAVITSPropertySet@@PEAK@Z
000AC9B8 ?Cancel@CExternalNetStreamResolver@@UEAAJXZ
000ACA2C ??1CDNSResult@@UEAA@XZ
000ACB44 ??_GCDNSResult@@UEAAPEAXI@Z
000ACB7C ??0CTCPResolver@@QEAA@PEAUIUnknown@@@Z
000ACCB0 ??_ECTCPResolver@@UEAAPEAXI@Z
000ACCE8 ??1CTCPResolver@@UEAA@XZ
000ACD9C ?Initialize@CTCPResolver@@UEAAJXZ
000ACF18 ?Terminate@CTCPResolver@@UEAAJXZ
000ACFFC ?ResolveName@CTCPResolver@@UEAAJPEBGPEAVITSTransportStackNotifySink@@KPEAEPEAG3PEAVITSPropertySet@@PEAK@Z
000AD3B4 ?Cancel@CTCPResolver@@UEAAJXZ
000AD3F0 ?OnNotifyFailToConnect@CTCPResolver@@UEAAJKPEAH@Z
000AD4B0 ?TSGetAddrInfo@CTCPResolver@@SAJPEBGPEAUaddrinfo@@PEAPEAU2@@Z
000AD618 ?OnDoDnsLookup@CTCPResolver@@SAXPEAX@Z
000AD96C ?OnDnsLookupComplete@CTCPResolver@@IEAAJPEAVCDNSResult@@@Z
000ADBAC ?ConnectWithResolvedName@CTCPResolver@@IEAAJPEAUtagTS_SOCKADDR@@@Z
000ADCE4 ?GetNextSockAddress@CDNSResult@@QEAAHPEAUtagTS_SOCKADDR@@@Z
000ADDCC ?GetFirst@CDNSResult@@QEAAHPEAUtagTS_SOCKADDR@@@Z
000ADEB4 ?GetNext@CDNSResult@@QEAAHPEAUtagTS_SOCKADDR@@@Z
000AE018 ?StartDNSResolution@CTCPResolver@@IEAAJPEAVCDNSResult@@@Z
000AE0DC ?InitializeDNSResoultionHWND@CTCPResolver@@IEAAJXZ
000AE284 ?DNSResolutionWndProc@CTCPResolver@@SA_JPEAUHWND__@@I_K_J@Z
000AE35C ?StartWinsock@@YAJXZ
000AE480 WspiapiLookupNode
000AE6C0 WspiapiNewAddrInfo
000AE764 WspiapiLegacyGetAddrInfo
000AEB44 WspiapiLegacyGetNameInfo
000AEDA0 WspiapiLegacyFreeAddrInfo
000AEDF8 WspiapiLoad
000AF010 ??0CTCPReverseResolver@@QEAA@PEAUIUnknown@@@Z
000AF12C ??_GCTCPReverseResolver@@UEAAPEAXI@Z
000AF164 ??1CTCPReverseResolver@@UEAA@XZ
000AF1E0 ?Initialize@CTCPReverseResolver@@UEAAJXZ
000AF340 ?Terminate@CTCPReverseResolver@@UEAAJXZ
000AF36C ?ResolveName@CTCPReverseResolver@@UEAAJPEBGPEAVITSTransportStackNotifySink@@KPEAEPEAG3PEAVITSPropertySet@@PEAK@Z
000AF4D0 ?Cancel@CTCPReverseResolver@@UEAAJXZ
000AF544 ?NonDelegatingQueryInterface@CTCPTransport@@UEAAJAEBU_GUID@@PEAPEAX@Z
000AF620 ??0CTCPTransport@@QEAA@PEAUIUnknown@@@Z
000AF738 ??_GCTCPTransport@@UEAAPEAXI@Z
000AF770 ??1CTCPTransport@@UEAA@XZ
000AF7EC ?Initialize@CTCPTransport@@UEAAJPEAVITSTransportStackNotifySink@@@Z
000AF940 ?Terminate@CTCPTransport@@UEAAJXZ
000AF9CC ?Connect@CTCPTransport@@UEAAJPEAEIPEAVITSPropertySet@@PEAK@Z
000AFAC4 ?Disconnect@CTCPTransport@@UEAAJXZ
000AFAE8 ?GetSendBuffer@CTCPTransport@@UEAAJIPEAPEAEPEA_KH@Z
000AFB1C ?SendData@CTCPTransport@@UEAAJPEAEI_K@Z
000AFC98 ?FreeBuffer@CTCPTransport@@UEAAJ_K@Z
000AFD9C ?IsDataAvailable@CTCPTransport@@UEAAHXZ
000AFDE8 ?DropLink@CTCPTransport@@UEAAJH@Z
000AFE54 ?GetLocalAddress@CTCPTransport@@UEAAJPEAG0@Z
000B00B4 ?GetLocalAddressFamily@CTCPTransport@@UEAAJPEAG@Z
000B0198 ?OnTDDisconnected@CTCPTransport@@QEAAXK@Z
000B01F8 ?OnTDBufferAvailable@CTCPTransport@@QEAAXXZ
000B0268 ?RDPAPI_GetPerSecLongCounter@@YAJPEBGKKKPEAPEAUIRDPPerfCounterLong@@@Z
000B0388 ?Invoke@OnTDClearSendQueueAsyncCallback@CTD@@UEAAJPEAVITSAsyncResult@@_K@Z
000B0548 ?Invoke@OnTDSendErrorAsyncCallback@CTD@@UEAAJPEAVITSAsyncResult@@_K@Z
000B05AC WPP_SF_DsD
000B0660 WPP_SF_IDq
000B06C4 WPP_SF_qDDD
000B0730 ??0CTD@@QEAA@PEAVCTCPTransport@@PEAVITSClientPlatformInstance@@@Z
000B0814 ??_ECTD@@UEAAPEAXI@Z
000B08B4 ?TD_Init@CTD@@QEAAJXZ
000B09D4 ?TD_Connect@CTD@@QEAAJHPEAUtagTS_SOCKADDR@@_K@Z
000B0AEC ?TD_GetPublicBuffer@CTD@@QEAAHIPEAPEAEPEA_K@Z
000B0D60 ?TD_GetPrivateBuffer@CTD@@QEAAHIPEAPEAEPEA_K@Z
000B1030 ?TD_Recv@CTD@@QEAAIPEAEI@Z
000B13B4 ?TDDoWinsockRecv@CTD@@QEAAIPEAEI@Z
000B1494 WPP_SF_DII
000B14F8 WPP_SF_HH
000B154C WPP_SF_i
000B1588 ?TDInit@CTD@@AEAAJXZ
000B1A90 ?TDTerm@CTD@@AEAAXXZ
000B1BA4 ?StaticTDWndProc@CTD@@CA_JPEAUHWND__@@I_K_J@Z
000B1C24 ?TDWndProc@CTD@@AEAA_JPEAUHWND__@@I_K_J@Z
000B1FE4 ?TDBeginSktConnectWithConnectedEndpoint@CTD@@AEAAX_K@Z
000B20EC ?TDBeginSktConnect@CTD@@AEAAXPEAUtagTS_SOCKADDR@@@Z
000B23C8 ?TDDisconnect@CTD@@AEAAXXZ
000B2510 ?TDKillTimer@CTD@@AEAAXXZ
000B25B4 ?OnTDFlushSendQueue@CTD@@QEAAJPEAVITSAsyncResult@@_K@Z
000B2998 ?OnBufferAvailable@CTD@@UEAAJPEAVITSAsyncResult@@_K@Z
000B29BC TRC_DBG_FROM_MACRO
000B2A8C TRC_ERR_FROM_MACRO
000B2B5C WPP_SF_qDq
000B2BC0 ?TDConnectFSMProc@CTD@@AEAAJI_K@Z
000B2F98 ?TDAllocBuf@CTD@@AEAAXPEAUtagTD_SNDBUF_INFO@@I@Z
000B3048 ??_GCEtwEventProv@@MEAAPEAXI@Z
000B307C ?Initialize@CEtwEventProv@@QEAAJU_GUID@@P6AXPEBU2@KE_K2PEAU_EVENT_FILTER_DESCRIPTOR@@PEAX@Z4@Z
000B32EC ?Terminate@CEtwEventProv@@QEAAJXZ
000B33B0 ?GetProviderInstance@CEtwEventProv@@SAAEAV1@XZ
000B3418 ?InternalEtwEventTrace@CEtwEventProv@@AEAAJAEBU_EVENT_DESCRIPTOR@@KPEAU_EVENT_DATA_DESCRIPTOR@@@Z
000B356C ?EtwEventTemplate1@CEtwEventProv@@QEAAJAEBU_EVENT_DESCRIPTOR@@PEBG11@Z
000B35FC ?EtwEventTemplate2@CEtwEventProv@@QEAAJAEBU_EVENT_DESCRIPTOR@@PEBGJ1@Z
000B3674 ?EtwEventTemplate5@CEtwEventProv@@QEAAJAEBU_EVENT_DESCRIPTOR@@PEBGZZ
000B3794 PAL_System_Initialize
000B38A8 PAL_System_Terminate
000B3A2C PAL_System_CritSecInit
000B3AF0 PAL_System_CritSecTerminate
000B3B30 PAL_System_CondAlloc
000B3B7C PAL_System_CondWait
000B3E04 PAL_System_SemaphoreAlloc
000B3E48 PAL_System_SemaphoreAcquire
000B3ECC PAL_System_TimerInit
000B3FEC PAL_System_TimerSet
000B4210 PAL_System_TimerCancel
000B43CC PAL_System_TimerIsSet
000B4418 PAL_System_TimerDelete
000B4470 PAL_System_ThreadAlloc
000B45E8 PAL_System_ThreadAllocInit
000B47D8 PAL_System_ThreadFree
000B4874 PAL_System_ThreadSetContext
000B48B4 PAL_System_ThreadQuit
000B497C PAL_System_ThreadSignalAlloc
000B4AA4 PAL_System_ThreadSignalPulse
000B4B24 PAL_System_ThreadSignalDestroy
000B4BC8 PAL_System_ThreadGetId
000B4C00 PAL_System_TimeGetTimeZoneInformation
000B4D50 PAL_System_CryptEncrypt
000B4E60 PAL_System_CryptDecrypt
000B4F6C PAL_System_CryptFree
000B5044 PAL_System_GetNetworkStatus
000B545C PAL_System_NetworkMonitorInit
000B5840 StringCchPrintfW
000B58AC PAL_System_Win32_GetModuleSpecificClassName
000B593C PAL_System_Win32_TimerGetHWND
000B5A3C PAL_System_Win32_TimerProc
000B5B60 PAL_System_Win32_TimerCreateWindow
000B5D10 PAL_System_Win32_TimerRegisterWindowClass
000B5EB4 PAL_System_Win32_TimerUnRegisterWindowClass
000B5FC8 PAL_System_Win32_ThreadProcWrapper
000B6014 PAL_System_Win32_ThreadCreateWindow
000B61C8 PAL_System_Win32_ThreadRegisterWindowClass
000B636C PAL_System_Win32_ThreadUnRegisterWindowClass
000B6480 PAL_System_Win32_ThreadWndProc
000B64B0 PAL_System_CryptProtectMemoryIsSupported
000B6504 PAL_System_Win32_CryptProtectMemory
000B661C PAL_System_Win32_CryptUnprotectMemory
000B673C PAL_System_Win32_SimpleListAdd
000B6808 PAL_System_Win32_SimpleListRemove
000B685C PAL_System_Win32_RegisterWaitForNetworkChanges
000B6AC0 PAL_System_Win32_StartNetworkMonitor
000B6CE0 ?Initialize@CTSCriticalSection@@QEAAHXZ
000B6D40 ?Terminate@CTSCriticalSection@@QEAAHXZ
000B6D7C ?_LockSpin@CTSReaderWriterLock@@AEAAXW4SPIN_TYPE@1@@Z
000B6F78 ?TSInitializeCachedResourceLibrary@@YAJXZ
000B705C ?TSFreeLoadedResourceLibrary@@YAXXZ
000B70F4 ?TSDisplayMUILoadErrorW@@YAXPEAUHINSTANCE__@@PEBG@Z
000B7328 ?TSFindResourceInHModule@@YAPEAUHINSTANCE__@@PEAU1@@Z
000B746C ?TSCreateDialogParamW@@YAPEAUHWND__@@PEAUHINSTANCE__@@PEBGPEAU1@P6A_J2I_K_J@Z4@Z
000B7500 ?TSLoadString@@YAHPEAUHINSTANCE__@@IPEAGH@Z
000B7588 ?NonDelegatingQueryInterface@CRdpDeviceRedirectionConfig@@UEAAJAEBU_GUID@@PEAPEAX@Z
000B7698 ??_GCRdpDeviceRedirectionConfig@@UEAAPEAXI@Z
000B76D0 ??1CRdpDeviceRedirectionConfig@@UEAA@XZ
000B7778 ?Initialize@CRdpDeviceRedirectionConfig@@UEAAJPEAVITSPropertySet@@0PEAVITSWin32CoreApi@@PEAVITSCLX@@PEAUHINSTANCE__@@@Z
000B78B4 ?Terminate@CRdpDeviceRedirectionConfig@@UEAAJXZ
000B7920 ?IsDriveRedirGloballyDisabled@CRdpDeviceRedirectionConfig@@SAHXZ
000B79EC ?IsPrinterRedirectionEnabled@CRdpDeviceRedirectionConfig@@UEAAHXZ
000B7A7C ?IsPortRedirectionEnabled@CRdpDeviceRedirectionConfig@@UEAAHXZ
000B7B0C ?IsSmartCardRedirectionEnabled@CRdpDeviceRedirectionConfig@@UEAAHXZ
000B7B9C ?IsAudioRedirectionEnabled@CRdpDeviceRedirectionConfig@@UEAAHXZ
000B7BD4 ?IsAudioCaptureRedirectionEnabled@CRdpDeviceRedirectionConfig@@UEAAHXZ
000B7C04 ?VideoPlaybackMode@CRdpDeviceRedirectionConfig@@UEAAKXZ
000B7C38 ?AudioQualityMode@CRdpDeviceRedirectionConfig@@UEAAKXZ
000B7C68 ?IsDynamicDriveRedirectionEnabled@CRdpDeviceRedirectionConfig@@UEAAHXZ
000B7CF8 ?IsDirectXRedirectionEnabled@CRdpDeviceRedirectionConfig@@UEAAHXZ
000B7D88 ?GetDriveCollection@CRdpDeviceRedirectionConfig@@UEAAJPEAPEAVITSDriveCollection@@@Z
000B7FA8 ?GetPrinterLocalDocName@CRdpDeviceRedirectionConfig@@UEAAJPEAPEAG@Z
000B8084 ?GetUpdateDeviceInterface@CRdpDeviceRedirectionConfig@@UEAAJPEAPEAVIRDPDR_INTERFACE_OBJ@@@Z
000B80E0 ?SetUpdateDeviceInterface@CRdpDeviceRedirectionConfig@@UEAAJPEAVIRDPDR_INTERFACE_OBJ@@@Z
000B8138 ?SetPrinterCollection@CRdpDeviceRedirectionConfig@@UEAAJPEAVIPrinterCollection@@@Z
000B8180 ?GetWindowMapper@CRdpDeviceRedirectionConfig@@UEAAJPEAPEAVITSWindowMapper@@@Z
000B8290 ?GetWin32CoreApi@CRdpDeviceRedirectionConfig@@UEAAJPEAPEAVITSWin32CoreApi@@@Z
000B82B0 ?GetCLX@CRdpDeviceRedirectionConfig@@UEAAJPEAPEAVITSCLX@@@Z
000B82E0 ?NonDelegatingQueryInterface@CRDPPerfCounterLongTimedAvg@@UEAAJAEBU_GUID@@PEAPEAX@Z
000B83D8 ??_GCRDPPerfCounterStateBasic@@UEAAPEAXI@Z
000B8410 ??1CRDPPerfCounterStateBasic@@UEAA@XZ
000B849C ?InitializeInstance@CRDPPerfCounterStateBasic@@UEAAJPEBGKKKJJ@Z
000B85BC ??_GCRDPPerfCounterStateInterval@@UEAAPEAXI@Z
000B8620 ?InitializeInstance@CRDPPerfCounterStateInterval@@UEAAJPEBGKKKJJ@Z
000B8658 ??_GCRDPPerfCounterStateFull@@UEAAPEAXI@Z
000B86BC ?InitializeInstance@CRDPPerfCounterStateFull@@UEAAJPEBGKKKJJ@Z
000B8744 ?LogDataInternal@CRDPPerfCounterLongAveraging@@IEAAJXZ
000B87C4 ??_ECRDPPerfCounterLongTimedAvg@@UEAAPEAXI@Z
000B883C ?InitializeInstance@CRDPPerfCounterLongTimedAvg@@UEAAJPEBGKKKJJ@Z
000B88BC ?LogData@CRDPPerfCounterLongTimedAvg@@UEAAJXZ
000B88E4 ?OnCountChange@CRDPPerfCounterLongTimedAvg@@AEAAJXZ
000B8968 ?NonDelegatingQueryInterface@CRDPETWLogger@@UEAAJAEBU_GUID@@PEAPEAX@Z
000B8A10 ?NonDelegatingQueryInterface@CRDPETWLoggerFactory@@UEAAJAEBU_GUID@@PEAPEAX@Z
000B8AB8 ??_GCRDPETWLogger@@UEAAPEAXI@Z
000B8B54 ?InitializeInstance@CRDPETWLogger@@UEAAJPEBGKKKI@Z
000B8CCC ?TerminateInstance@CRDPETWLogger@@UEAAJXZ
000B8D18 ?LogCount@CRDPETWLogger@@UEBAJ_J@Z
000B8EE0 ??_ECRDPETWLoggerFactory@@UEAAPEAXI@Z
000B8F1C ?CreateInstance@CRDPETWLoggerFactory@@UEAAJPEAUIUnknown@@AEBU_GUID@@PEAPEAX@Z
000B9034 CRDPETWLoggerFactory_CreateInstance
000B911C McGenControlCallback
000B91E8 McGenEventTracingRegister
000B939C ?MapNameToProvider@CRDPETWNameMap@@QEBA_NPEBGPEAU_GUID@@@Z
000B943C ?GetTracingSessionForName@CRDPETWTracingSessionManager@@AEAAJPEBGPEAPEAVCRDPETWTracingSession@@@Z
000B9808 ??_GRefCnt@@MEAAPEAXI@Z
000B9834 ??_GCRDPETWTracingSession@@UEAAPEAXI@Z
000B990C ?McGenInitTracingSupport@CRDPETWTracingSession@@AEAAXXZ
000B99F8 ?McGenEventTracingRegister@CRDPETWTracingSession@@AEAAKPEBU_GUID@@P6AX0KE_K1PEAU_EVENT_FILTER_DESCRIPTOR@@PEAX@Z3@Z
000B9AAC ?McGenControlCallback@CRDPETWTracingSession@@CAKW4WMIDPREQUESTCODE@@PEAXPEAK1@Z
000B9B74 ?Release@CRDPENCOREGlobalContext@@UEAAKXZ
000B9B9C ?CreatePlatformContext@CRDPENCOREGlobalContext@@UEAAJHPEAPEAUIUnknown@@@Z
000B9CDC ?CreateGlobalObjects@CRDPENCOREGlobalContext@@QEAAJXZ
000B9DEC ?DestroyGlobalObjects@CRDPENCOREGlobalContext@@QEAAJXZ
000B9E78 ?StaticInit@CRDPENCOREGlobalContext@@QEAAJXZ
000B9FD0 ?StaticTerm@CRDPENCOREGlobalContext@@QEAAJXZ
000BA034 ?GetGlobalObject@CRDPENCOREGlobalContext@@QEAAJAEBU_GUID@@0PEAPEAX@Z
000BA194 ?CreateGlobalObject@CRDPENCOREGlobalContext@@IEAAJAEBU_GUID@@0PEAPEAX@Z
000BA2E0 RDPENCORE_InitializeLibrary
000BA488 RDPENCORE_TerminateLibrary
000BA544 RDPENCORE_CreatePlatformContext
000BA694 ?Add@?$CTSSimpleArray@PEAUtagRDPAPI_GLOBAL_OBJECT@@$0BA@@@UEAAJPEAUtagRDPAPI_GLOBAL_OBJECT@@@Z
000BA768 ?Remove@?$CTSSimpleArray@PEAUtagRDPAPI_GLOBAL_OBJECT@@$0BA@@@UEAAJPEAUtagRDPAPI_GLOBAL_OBJECT@@@Z
000BA810 ?NonDelegatingQueryInterface@CRDPCollection@@UEAAJAEBU_GUID@@PEAPEAX@Z
000BA8B8 ??1CRDPCollection@@UEAA@XZ
000BA93C ?GetProperty@CRDPCollection@@UEAAJPEBGPEAUtagVARIANT@@@Z
000BA9D4 ?SetProperty@CRDPCollection@@UEAAJPEBGPEAUtagVARIANT@@@Z
000BABC4 ?GetPropertyBool@CRDPCollection@@UEAAJPEBGPEAH@Z
000BAC40 ?GetPropertyUnsignedLong@CRDPCollection@@UEAAJPEBGPEAK@Z
000BACB4 ?GetPropertyInterface@CRDPCollection@@UEAAJPEBGAEBU_GUID@@PEAPEAX@Z
000BAD70 ?SetPropertyBool@CRDPCollection@@UEAAJPEBGH@Z
000BADE0 ?SetPropertyUnsignedLong@CRDPCollection@@UEAAJPEBGK@Z
000BAE4C ?SetPropertyInterface@CRDPCollection@@UEAAJPEBGPEAUIUnknown@@@Z
000BAEC4 ??_ECRDPCollection@@UEAAPEAXI@Z
000BAEFC ??_E?$CTSSimplePtrArray@VCRDPAPICollectionImplItem@@@@UEAAPEAXI@Z
000BAF54 ??1CRDPENCPlatformContext@@MEAA@XZ
000BB0B8 ?NonDelegatingQueryInterface@CRDPENCPlatformContext@@UEAAJAEBU_GUID@@PEAPEAX@Z
000BB1A4 ??_GCRDPENCPlatformContext@@MEAAPEAXI@Z
000BB1DC ?CreateInstance@CRDPENCPlatformContext@@SAJPEAUIRDPENCOREGlobalContext@@PEAXHPEAPEAUIUnknown@@@Z
000BB358 ?Initialize@CRDPENCPlatformContext@@IEAAJPEAUIRDPENCOREGlobalContext@@PEAXH@Z
000BB714 ?Terminate@CRDPENCPlatformContext@@MEAAJXZ
000BB7D4 ?TerminateInstance@CRDPENCPlatformContext@@MEAAJXZ
000BB800 ?STATIC_STAThreadProc@CRDPENCPlatformContext@@KAXPEAX@Z
000BB840 ?RemoveAll@?$CTSSimplePtrArray@VCRDPAPICollectionImplItem@@@@UEAAXXZ
000BB93C ?__AllocStdCallThunk_cmn@@YAPEAXXZ
000BBA78 TSRNG_GenerateRandomBits
000BBD88 LoadMUIFileV
000BC1F4 LoadMUILibraryW
000BC6B0 DownLevelLangIDToLanguageName
000BC760 NewGenRandomEx
000BC844 InitRand
000BC97C InitializeRNG
000BCA30 GenRandom
000BCC0C GatherRandomKey
000BD5AC IsRNGWinNT
000BD6B8 rc4_safe_shutdown
000BD718 VeryLargeHashUpdate
000BDA40 UpdateCircularHash
000BDB94 INIT_LOCK
000BDBB0 ??_GCRdpDrPlugin@@UEAAPEAXI@Z
000BDC30 TSCPluginCreate_CRdpDrPlugin
000BDD50 ??_ECPnPRdrPlugin@@UEAAPEAXI@Z
000BDD98 ?LoadInternalPlgins@@YAJPEAVICommonVCChannelManagerInternal@@@Z
000BDFA4 ?PNPRDR_VirtualChannelEntryEx@@YAHPEAUtagCHANNEL_ENTRY_POINTS_EX@@PEAX@Z
000BE2D4 ??_GCTSDrive@@UEAAPEAXI@Z
000BE360 ?NonDelegatingQueryInterface@CTSDriveCollection@@UEAAJAEBU_GUID@@PEAPEAX@Z
000BE408 ??_ECTSDriveCollection@@UEAAPEAXI@Z
000BE4C0 ?Initialize@CTSDrive@@UEAAJKPEAG@Z
000BE584 ?GetName@CTSDrive@@UEAAJPEAGPEAK@Z
000BE66C ?GetRedirectionState@CTSDrive@@UEAAJPEAH@Z
000BE6C8 ?RescanDrives@CTSDriveCollection@@UEAAJH@Z
000BEAA4 ?Initialize@CTSDriveCollection@@UEAAJXZ
000BEB18 ?GetInitializedInstanceOf@CTSDriveCollection@@SAJPEAPEAVITSDriveCollection@@@Z
000BEC2C ?GetDriveCount@CTSDriveCollection@@UEAAJPEAK@Z
000BEC80 ?GetDriveByIndex@CTSDriveCollection@@UEAAJKPEAPEAVITSDrive@@@Z
000BED20 ?GetDriveByChar@CTSDriveCollection@@UEAAJGPEAPEAVITSDrive@@@Z
000BED90 ?IsAnyDriveEnabled@CTSDriveCollection@@UEAAJPEAH@Z
000BEF6C ?NonDelegatingQueryInterface@CPrinterCollection@@UEAAJAEBU_GUID@@PEAPEAX@Z
000BF028 ?CreateInstance@CPrinterCollection@@SAJPEAVVCManager@@PEAPEAVIPrinterCollection@@@Z
000BF154 ??_GCPrinterCollection@@UEAAPEAXI@Z
000BF1C4 WPP_SF_DLlL
000BF230 WPP_SF_Dq
000BF27C WPP_SF_qd
000BF2C8 ?RDPDR_InitEventFnEx@@YAXPEAX0I0I@Z
000BF394 ??_GVCManager@@QEAAPEAXI@Z
000BF420 ?RDPDR_OpenEventFn@@YAXPEAXKI0III@Z
000BF4D8 RDPDR_VirtualChannelEntryEx
000BF810 ?ChannelWrite@VCManager@@QEAAXPEAXI@Z
000BF8CC ?ChannelWriteEx@VCManager@@QEAAIPEAXI@Z
000BF988 ?ChannelClose@VCManager@@QEAAIXZ
000BF9E0 ?ChannelInitEvent@VCManager@@QEAAXPEAXI0I@Z
000BFBA0 ?ChannelOpenEvent@VCManager@@QEAAXKIPEAXIII@Z
000BFDF4 ?OnDeviceChange@VCManager@@UEAAX_K_J@Z
000BFE14 ?GetPrinterW@VCManager@@UEAAJKPEAPEAG@Z
000BFE8C ?OpenEventFnEx@@YAXPEAXKI0III@Z
000BFECC ?MsgWndProc@@YA_JPEAUHWND__@@I_K_J@Z
000BFFF0 ??0CRDPSound@@QEAA@PEAUtagCHANNEL_ENTRY_POINTS_EX@@PEAXAEAV?$ComPlainSmartPtr@VITSCoreApi@@@@@Z
000C021C ??_GCRDPSound@@UEAAPEAXI@Z
000C03B0 ?InitEventFn@CRDPSound@@QEAAXPEAXIPEAVIRdpDeviceRedirectionConfig@@0I@Z
000C0830 ?OpenEventFn@CRDPSound@@QEAAXKIPEAXIII@Z
000C0D9C ?ChannelWriteNCopy@CRDPSound@@QEAAHPEAXI@Z
000C0E78 ?DataArrived@CRDPSound@@QEAAXPEAUSNDPROLOG@@PEAX@Z
000C14AC ?vcwaveResample@CRDPSound@@QEAAXXZ
000C1644 ?CreateMsgWindow@CRDPSound@@QEAAHPEAUHINSTANCE__@@@Z
000C1790 ?ChannelWrite@CRDPSound@@QEAAHPEAXI@Z
000C18BC ?vcwaveCallback@CRDPSound@@QEAAXPEAUHWAVEOUT__@@IPEAUwavehdr_tag@@@Z
000C1B1C ?vcwaveGetDevCaps@CRDPSound@@QEAAXPEAUSNDFORMATMSG@@@Z
000C1C9C ?vcwaveChooseSoundFormat@CRDPSound@@QEAAHKPEAUSNDFORMATITEM@@PEAPEAU2@PEAK2@Z
000C206C ?vcwaveCleanSoundFormats@CRDPSound@@QEAAXXZ
000C20EC ?vcwaveSaveSoundFormats@CRDPSound@@QEAAHPEAUSNDFORMATITEM@@K@Z
000C228C ?vcwaveClose@CRDPSound@@QEAAXXZ
000C2380 ?vcwaveOpen@CRDPSound@@QEAAHPEAUtWAVEFORMATEX@@@Z
000C2534 ?vcwaveFreeAllWaves@CRDPSound@@QEAAXXZ
000C2598 ?vcwaveOutWrite@CRDPSound@@QEAAIPEAUwavehdr_tag@@@Z
000C2688 ?vcwaveWrite@CRDPSound@@QEAAHEKKKPEAX@Z
000C2A10 ?sendQualityMode@CRDPSound@@AEAAXXZ
000C2AE0 ?OnAudioPlaybackDeviceChanged@CRDPSound@@UEAAJPEAVITSAsyncResult@@_K@Z
000C2B5C ?UpdateWaveOutDevice@CRDPSound@@QEAAXXZ
000C2E64 ?Invoke@OnAudioPlaybackDeviceChangedAsyncTerminatingCallback@CRDPSound@@UEAAJPEAVITSAsyncResult@@_K@Z
000C2EA4 WPP_SF_DDcccc
000C2F30 WPP_SF_dsD
000C2FF0 ?Instantiate@ProcObj@@SAPEAV1@PEAVVCManager@@@Z
000C30F8 ??_EProcObj@@UEAAPEAXI@Z
000C3130 ??1ProcObj@@UEAA@XZ
000C31E0 ?Initialize@ProcObj@@UEAAKXZ
000C32C4 ?ProcessServerPacket@ProcObj@@QEAAXPEAU_VC_TX_DATA@@@Z
000C3494 ?ProcessCoreServerPacket@ProcObj@@IEAAXPEAUtagRDPDR_HEADER@@I@Z
000C37C8 ?MsgCoreAnnounce@ProcObj@@IEAAXPEAUtagRDPDR_SERVER_ANNOUNCE_PACKET@@@Z
000C3A10 ?GenerateAnnouncePacket@ProcObj@@QEAAPEAUtagRDPDR_HEADER@@PEAHHW4tagDEVICEANNOUNCETYPE@@@Z
000C3CB4 ?GenerateDeviceRemovePacket@ProcObj@@QEAAPEAUtagRDPDR_HEADER@@PEAH@Z
000C3E60 ?AnnounceClientCapability@ProcObj@@IEAAXXZ
000C3F4C ?OnServerCapability@ProcObj@@IEAAXPEAUtagRDPDR_HEADER@@K@Z
000C4158 ?GetPrinterW@ProcObj@@QEAAJKPEAPEAG@Z
000C42A0 ??1?$DrObjectMgr@VDrDevice@@@@UEAA@XZ
000C4304 ?Initialize@?$DrObjectMgr@VDrDevice@@@@QEAAKXZ
000C4340 ?RemoveObject@?$DrObjectMgr@VDrDevice@@@@QEAAPEAVDrDevice@@K@Z
000C43F8 ?GetObjectW@?$DrObjectMgr@VDrDevice@@@@QEAAPEAVDrDevice@@K@Z
000C447C ?GetFirstObject@?$DrObjectMgr@VDrDevice@@@@QEAAPEAVDrDevice@@XZ
000C44D8 ?GetNextObject@?$DrObjectMgr@VDrDevice@@@@QEAAPEAVDrDevice@@XZ
000C4540 ??_G?$DrObjectMgr@VDrDevice@@@@UEAAPEAXI@Z
000C45CC MIDL_user_allocate
000C45F8 MIDL_user_free
000C4628 ??0W32SCard@@QEAA@PEAVProcObj@@KPEBG1@Z
000C4918 ??_GW32SCard@@UEAAPEAXI@Z
000C4950 ??1W32SCard@@UEAA@XZ
000C4B14 ?FlushIRPs@W32SCard@@MEAAXXZ
000C4DEC ?Enumerate@W32SCard@@SAKPEAVProcObj@@PEAV?$DrObjectMgr@VDrDevice@@@@@Z
000C5124 ?GetDevAnnounceDataSize@W32SCard@@UEAAKXZ
000C5140 ?GetDevAnnounceData@W32SCard@@UEAAXPEAUtagRDPDR_DEVICE_ANNOUNCE@@@Z
000C51A4 ?AddSCardContextToList@W32SCard@@IEAAH_K@Z
000C5308 ?AddThreadToList@W32SCard@@IEAAHPEAX@Z
000C5478 ?RemoveThreadFromList@W32SCard@@IEAAXPEAX@Z
000C5508 ?AddIORequestToList@W32SCard@@IEAAHPEAUtagRDPDR_IOREQUEST_PACKET@@@Z
000C5654 ?SCardHandleCall_ThreadProc@W32SCard@@KAKPEAX@Z
000C5A74 ?DefaultIORequestMsgHandleWrapper@W32SCard@@IEAAXPEAUtagRDPDR_IOREQUEST_PACKET@@J@Z
000C5AA8 ?MsgIrpDeviceControl@W32SCard@@UEAAXPEAUtagRDPDR_IOREQUEST_PACKET@@I@Z
000C6520 ?AllocateAndChannelWriteReplyPacket@W32SCard@@IEAAXPEAUtagRDPDR_IOREQUEST_PACKET@@PEADK@Z
000C65EC ?DecodeContextCall@W32SCard@@IEAAJPEAUtagRDPDR_IOREQUEST_PACKET@@PEA_K@Z
000C6728 ?DecodeContextAndStringCallA@W32SCard@@IEAAJPEAUtagRDPDR_IOREQUEST_PACKET@@PEA_KPEAPEAD@Z
000C699C ?DecodeContextAndStringCallW@W32SCard@@IEAAJPEAUtagRDPDR_IOREQUEST_PACKET@@PEA_KPEAPEAG@Z
000C6BD0 ?EncodeAndChannelWriteLongReturn@W32SCard@@IEAAXPEAUtagRDPDR_IOREQUEST_PACKET@@J@Z
000C6CD0 ?EstablishContext@W32SCard@@IEAAXPEAUtagRDPDR_IOREQUEST_PACKET@@@Z
000C6F58 ?HandleContextCallWithLongReturn@W32SCard@@IEAAXPEAUtagRDPDR_IOREQUEST_PACKET@@K@Z
000C7058 ?EncodeAndChannelWriteLongAndMultiStringReturn@W32SCard@@IEAAXPEAUtagRDPDR_IOREQUEST_PACKET@@JPEAEKH@Z
000C71DC ?ListReaderGroups@W32SCard@@IEAAXPEAUtagRDPDR_IOREQUEST_PACKET@@K@Z
000C751C ?ListReaders@W32SCard@@IEAAXPEAUtagRDPDR_IOREQUEST_PACKET@@K@Z
000C786C ?HandleContextAndStringCallWithLongReturn@W32SCard@@IEAAXPEAUtagRDPDR_IOREQUEST_PACKET@@K@Z
000C7994 ?HandleContextAndTwoStringCallWithLongReturn@W32SCard@@IEAAXPEAUtagRDPDR_IOREQUEST_PACKET@@K@Z
000C7DB0 ?AllocateAndCopyReaderStateStructsForCallA@W32SCard@@IEAAJKPEAU_ReaderStateA@@PEAPEAUSCARD_READERSTATEA@@@Z
000C7E98 ?AllocateAndCopyReaderStateStructsForCallW@W32SCard@@IEAAJKPEAU_ReaderStateW@@PEAPEAUSCARD_READERSTATEW@@@Z
000C7F80 ?AllocateAndCopyATRMasksForCall@W32SCard@@IEAAJKPEAU_LocateCards_ATRMask@@PEAPEAU_SCARD_ATRMASK@@@Z
000C8068 ?AllocateAndCopyReaderStateStructsForReturnA@W32SCard@@IEAAJKPEAUSCARD_READERSTATEA@@PEAPEAU_ReaderState_Return@@@Z
000C8138 ?AllocateAndCopyReaderStateStructsForReturnW@W32SCard@@IEAAJKPEAUSCARD_READERSTATEW@@PEAPEAU_ReaderState_Return@@@Z
000C8208 ?LocateCardsA@W32SCard@@IEAAXPEAUtagRDPDR_IOREQUEST_PACKET@@@Z
000C851C ?LocateCardsW@W32SCard@@IEAAXPEAUtagRDPDR_IOREQUEST_PACKET@@@Z
000C8830 ?LocateCardsByATRA@W32SCard@@IEAAXPEAUtagRDPDR_IOREQUEST_PACKET@@@Z
000C8B60 ?LocateCardsByATRW@W32SCard@@IEAAXPEAUtagRDPDR_IOREQUEST_PACKET@@@Z
000C8E90 ?GetStatusChangeThreadProc@W32SCard@@KAKPEAX@Z
000C8F08 ?GetStatusChangeWrapper@W32SCard@@IEAAXPEAUtagRDPDR_IOREQUEST_PACKET@@K@Z
000C9090 ?GetStatusChangeA@W32SCard@@IEAAXPEAUtagRDPDR_IOREQUEST_PACKET@@@Z
000C9394 ?GetStatusChangeW@W32SCard@@IEAAXPEAUtagRDPDR_IOREQUEST_PACKET@@@Z
000C9698 ?Connect@W32SCard@@IEAAXPEAU_SCARDHANDLECALLSTRUCT@@K@Z
000C9B78 ?Reconnect@W32SCard@@IEAAXPEAU_SCARDHANDLECALLSTRUCT@@@Z
000C9E1C ?HandleHCardAndDispositionCall@W32SCard@@IEAAXPEAU_SCARDHANDLECALLSTRUCT@@K@Z
000CA058 ?State@W32SCard@@IEAAXPEAU_SCARDHANDLECALLSTRUCT@@@Z
000CA488 ?Status@W32SCard@@IEAAXPEAU_SCARDHANDLECALLSTRUCT@@K@Z
000CAA1C ?Transmit@W32SCard@@IEAAXPEAU_SCARDHANDLECALLSTRUCT@@@Z
000CB0A4 ?Control@W32SCard@@IEAAXPEAU_SCARDHANDLECALLSTRUCT@@@Z
000CB4F0 ?GetAttrib@W32SCard@@IEAAXPEAU_SCARDHANDLECALLSTRUCT@@@Z
000CB8F8 ?SetAttrib@W32SCard@@IEAAXPEAU_SCARDHANDLECALLSTRUCT@@@Z
000CBAD8 ?GetTransmitCount@W32SCard@@IEAAXPEAU_SCARDHANDLECALLSTRUCT@@@Z
000CBD90 ?ReadCache@W32SCard@@IEAAXPEAUtagRDPDR_IOREQUEST_PACKET@@K@Z
000CC2A0 ?WriteCache@W32SCard@@IEAAXPEAUtagRDPDR_IOREQUEST_PACKET@@K@Z
000CC578 ?WaitForStartedEventCallback@@YAXPEAXE@Z
000CC634 ?AccessStartedEvent@W32SCard@@IEAAXPEAUtagRDPDR_IOREQUEST_PACKET@@@Z
000CC7B0 ?BindToSCardFunctions@W32SCard@@IEAAHXZ
000CCEA8 ?AddObject@?$DrObjectMgr@VDrDevice@@@@QEAAKPEAVDrDevice@@@Z
000CCFE0 ?GetDevAnnounceDataSize@W32DrPRT@@UEAAKXZ
000CD008 ?GetDevAnnounceData@W32DrPRT@@UEAAXPEAUtagRDPDR_DEVICE_ANNOUNCE@@@Z
000CD098 ?Enumerate@W32DrLPT@@SAKPEAVProcObj@@PEAV?$DrObjectMgr@VDrDevice@@@@@Z
000CD3C8 ??_GW32DRDEV_ASYNCIO_PARAMS@@UEAAPEAXI@Z
000CD520 ??0W32Drive@@QEAA@PEAVProcObj@@KPEBG1@Z
000CD61C ??_EW32Drive@@UEAAPEAXI@Z
000CD654 ??1W32Drive@@UEAA@XZ
000CD68C ?Enumerate@W32Drive@@SAKPEAVProcObj@@PEAV?$DrObjectMgr@VDrDevice@@@@@Z
000CD788 ?EnumerateDrives@W32Drive@@SAKPEAVProcObj@@PEAV?$DrObjectMgr@VDrDevice@@@@I@Z
000CDA70 ?RemoveDrives@W32Drive@@SAKPEAVProcObj@@PEAV?$DrObjectMgr@VDrDevice@@@@I@Z
000CDBD0 ?StartFSFunc@W32Drive@@MEAAPEAXPEAVW32DRDEV_ASYNCIO_PARAMS@@PEAK@Z
000CDD0C ?MsgIrpQueryDirectory@W32Drive@@UEAAXPEAUtagRDPDR_IOREQUEST_PACKET@@I@Z
000CE520 ?MsgIrpDirectoryControl@W32Drive@@UEAAXPEAUtagRDPDR_IOREQUEST_PACKET@@I@Z
000CE6DC ?AsyncDirCtrlFunc@W32Drive@@MEAAKPEAVW32DRDEV_ASYNCIO_PARAMS@@PEAX@Z
000CE728 ?AsyncNotifyChangeDir@W32Drive@@MEAAKPEAVW32DRDEV_ASYNCIO_PARAMS@@PEAX@Z
000CE990 ?MsgIrpQueryVolumeInfo@W32Drive@@UEAAXPEAUtagRDPDR_IOREQUEST_PACKET@@I@Z
000CED48 ?MsgIrpSetVolumeInfo@W32Drive@@UEAAXPEAUtagRDPDR_IOREQUEST_PACKET@@I@Z
000CEE80 ?MsgIrpQueryFileInfo@W32Drive@@UEAAXPEAUtagRDPDR_IOREQUEST_PACKET@@I@Z
000CF294 ?MsgIrpSetFileInfo@W32Drive@@UEAAXPEAUtagRDPDR_IOREQUEST_PACKET@@I@Z
000CF8E0 ?MsgIrpDeviceControl@W32Drive@@UEAAXPEAUtagRDPDR_IOREQUEST_PACKET@@I@Z
000CF9DC ?MsgIrpLockControl@W32Drive@@UEAAXPEAUtagRDPDR_IOREQUEST_PACKET@@I@Z
000CFD10 ?SetPrivilege@@YAHPEAXPEBGH@Z
000CFE50 ?MsgIrpQuerySdInfo@W32Drive@@UEAAXPEAUtagRDPDR_IOREQUEST_PACKET@@I@Z
000D0170 ?MsgIrpSetSdInfo@W32Drive@@UEAAXPEAUtagRDPDR_IOREQUEST_PACKET@@I@Z
000D02D4 ?GetObjectW@?$DrObjectMgr@VDrDevice@@@@QEAAPEAVDrDevice@@PEBGK@Z
000D0384 ?GetObjectW@?$DrObjectMgr@VDrFile@@@@QEAAPEAVDrFile@@K@Z
000D0530 ??0W32DrAutoPrn@@QEAA@PEAVProcObj@@PEBG11HK1@Z
000D06E4 ??_EW32DrAutoPrn@@UEAAPEAXI@Z
000D071C ??1W32DrAutoPrn@@UEAA@XZ
000D0784 ?ShouldAddThisPrinter@W32DrAutoPrn@@KAHKKPEAU_PrinterInfo@1@K@Z
000D0894 ?GetRDPDefaultPrinter@W32DrAutoPrn@@KAPEAGXZ
000D0958 ?GetPrinterInfoAndSessionID@W32DrAutoPrn@@KAKPEAVProcObj@@PEAGKPEAPEAEPEAK3PEAU_PrinterInfo@1@@Z
000D0C88 ?Enumerate@W32DrAutoPrn@@SAKPEAVProcObj@@PEAV?$DrObjectMgr@VDrDevice@@@@@Z
000D148C ?CreateNestedName@W32DrAutoPrn@@KAPEAGPEAGPEAH@Z
000D1768 ?CreateFriendlyNameFromNetworkName@W32DrAutoPrn@@KAPEAGPEBGH@Z
000D1848 ?MsgIrpCreate@W32DrAutoPrn@@MEAAXPEAUtagRDPDR_IOREQUEST_PACKET@@I@Z
000D1940 ?CanUseXPS@W32DrAutoPrn@@MEAAHXZ
000D1A58 ?StartXPSJob@W32DrAutoPrn@@IEAAJXZ
000D1B38 ?AsyncMsgIrpCreateFunc@W32DrAutoPrn@@MEAAKPEAVW32DRDEV_ASYNCIO_PARAMS@@@Z
000D1D88 ?ClosePrinter@W32DrAutoPrn@@IEAAXXZ
000D1F2C ?MsgIrpClose@W32DrAutoPrn@@MEAAXPEAUtagRDPDR_IOREQUEST_PACKET@@I@Z
000D2024 ?AsyncMsgIrpCloseFunc@W32DrAutoPrn@@MEAAKPEAVW32DRDEV_ASYNCIO_PARAMS@@@Z
000D2088 ?DisablePrinterPopup@W32DrAutoPrn@@IEAAXPEAXK@Z
000D22AC ?AsyncWriteIOFunc@W32DrAutoPrn@@MEAAKPEAVW32DRDEV_ASYNCIO_PARAMS@@@Z
000D23D4 ??_EW32DrManualPrn@@UEAAPEAXI@Z
000D240C ??1W32DrManualPrn@@UEAA@XZ
000D2448 ?InitializeDevice@W32DrManualPrn@@UEAAKPEAVDrFile@@@Z
000D24D8 ?Enumerate@W32DrManualPrn@@SAKPEAVProcObj@@PEAV?$DrObjectMgr@VDrDevice@@@@@Z
000D27FC ?CachedDataRestored@W32DrManualPrn@@UEAAXXZ
000D2888 ?ParsePrinterCacheInfo@W32DrManualPrn@@AEAAHXZ
000D2A70 ??_EW32DrLPT@@UEAAPEAXI@Z
000D2AA8 ?Enumerate@W32DrCOM@@SAKPEAVProcObj@@PEAV?$DrObjectMgr@VDrDevice@@@@@Z
000D2D50 ?InitializeDevice@W32DrCOM@@UEAAKPEAVDrFile@@@Z
000D2E14 ??_GW32ProcObj@@UEAAPEAXI@Z
000D2E4C ??1W32ProcObj@@UEAA@XZ
000D2E8C ?GetDWordParameter@W32ProcObj@@UEAAKPEBGPEAK@Z
000D2F9C ?Initialize@W32ProcObj@@UEAAKXZ
000D31EC ?Shutdown@W32ProcObj@@AEAAXXZ
000D340C ?PreLogonAnnounceDevicesToServer@W32ProcObj@@EEAAXXZ
000D3434 ?_PreLogonAnnounceDevicesToServerFunc@W32ProcObj@@CAPEAXPEAV1@PEAK@Z
000D3528 ?PostLogonAnnounceDevicesToServer@W32ProcObj@@EEAAXXZ
000D3550 ?_PostLogonAnnounceDevicesToServerFunc@W32ProcObj@@CAPEAXPEAV1@PEAK@Z
000D3644 ?SpecialTypeAnnounceDevicesToServer@W32ProcObj@@EEAAXXZ
000D366C ?_SpecialTypeAnnounceDevicesToServerFunc@W32ProcObj@@CAPEAXPEAV1@PEAK@Z
000D3760 ?DispatchAsyncIORequest@W32ProcObj@@UEAAKP6APEAXPEAXPEAK@ZP6AX0K@ZP6AX0@Z0@Z
000D3860 ?CreateWorkerThreadEntry@W32ProcObj@@AEAAKPEAPEAU_ThreadInfo@1@@Z
000D3B40 ?ProcessWorkerThreadObject@W32ProcObj@@AEAAXPEAU_ThreadInfo@1@K@Z
000D3C14 ?_ObjectWorkerThread@W32ProcObj@@CAKPEAX@Z
000D3D84 ?_DispatchAsyncIORequest_Private@W32ProcObj@@CAXPEAU_AsyncIOReqContext@1@H@Z
000D3E98 ?GetClientComputerName@W32ProcObj@@MEAAXPEAEPEAKPEAH1@Z
000D3FB0 ?OnDeviceChange@W32ProcObj@@UEAAX_K_J@Z
000D40A0 ?_OnDeviceChangeFunc@W32ProcObj@@CAPEAXPEAVW32DeviceChangeParam@@PEAK@Z
000D41B8 ??1RefCount@@UEAA@XZ
000D4214 ?AddRef@RefCount@@QEAAXXZ
000D4278 ?Release@RefCount@@QEAAXXZ
000D4318 ??_EThreadPoolReq@@UEAAPEAXI@Z
000D4360 ??0W32DrPRN@@QEAA@PEAVProcObj@@PEBG111HK1@Z
000D44F8 ??_GW32DrPRN@@UEAAPEAXI@Z
000D4540 ?ResolveCachedPrinter@W32DrPRN@@KAPEAV1@PEAVProcObj@@PEAV?$DrObjectMgr@VDrDevice@@@@PEAUHKEY__@@PEAG@Z
000D4A34 ?AddPrinterCacheInfo@W32DrPRN@@KAKPEAUtagRDPDR_PRINTER_ADD_CACHEDATA@@I@Z
000D4C60 ?DeletePrinterCacheInfo@W32DrPRN@@KAKPEAUtagRDPDR_PRINTER_DELETE_CACHEDATA@@I@Z
000D4D8C ?RenamePrinterCacheInfo@W32DrPRN@@KAKPEAUtagRDPDR_PRINTER_RENAME_CACHEDATA@@I@Z
000D52A0 ?UpdatePrinterCacheInfo@W32DrPRN@@KAKPEAUtagRDPDR_PRINTER_UPDATE_CACHEDATA@@I@Z
000D568C ?RenamePrinter@W32DrPRN@@KAXPEAG0@Z
000D599C ?GetDevAnnounceDataSize@W32DrPRN@@UEAAKXZ
000D5A00 ?GetDevAnnounceData@W32DrPRN@@UEAAXPEAUtagRDPDR_DEVICE_ANNOUNCE@@@Z
000D5BE4 WPP_SF_sDDDDD
000D5CD4 ??0W32DrDeviceAsync@@QEAA@PEAVProcObj@@KPEBG@Z
000D5D18 ??_GW32DrDeviceAsync@@UEAAPEAXI@Z
000D5D50 ?StartIOFunc@W32DrDeviceAsync@@MEAAPEAXPEAVW32DRDEV_ASYNCIO_PARAMS@@PEAK@Z
000D5F64 ?CompleteIOFunc@W32DrDeviceAsync@@MEAAXPEAVW32DRDEV_ASYNCIO_PARAMS@@K@Z
000D6120 ?AsyncIOCTLFunc@W32DrDeviceAsync@@MEAAKPEAVW32DRDEV_ASYNCIO_PARAMS@@@Z
000D62B8 ?AsyncReadIOFunc@W32DrDeviceAsync@@MEAAKPEAVW32DRDEV_ASYNCIO_PARAMS@@@Z
000D647C ?AsyncWriteIOFunc@W32DrDeviceAsync@@MEAAKPEAVW32DRDEV_ASYNCIO_PARAMS@@@Z
000D6630 ?MsgIrpCreate@W32DrDeviceAsync@@MEAAXPEAUtagRDPDR_IOREQUEST_PACKET@@I@Z
000D675C ?MsgIrpReadWrite@W32DrDeviceAsync@@IEAAXPEAUtagRDPDR_IOREQUEST_PACKET@@I@Z
000D68B8 ?CancelIOFunc@W32DrDeviceAsync@@MEAAXPEAVW32DRDEV_ASYNCIO_PARAMS@@@Z
000D69EC ?AsyncMsgIrpCreateFunc@W32DrDeviceAsync@@MEAAKPEAVW32DRDEV_ASYNCIO_PARAMS@@@Z
000D71D0 ?AddObject@?$DrObjectMgr@VDrFile@@@@QEAAKPEAVDrFile@@@Z
000D733C ??1W32DrDevice@@UEAA@XZ
000D7374 ?ConstructFileName@W32DrDevice@@MEAAPEAGPEAGK@Z
000D7568 ?MsgIrpFlushBuffers@W32DrDevice@@MEAAXPEAUtagRDPDR_IOREQUEST_PACKET@@I@Z
000D7630 ?MsgIrpClose@W32DrDevice@@MEAAXPEAUtagRDPDR_IOREQUEST_PACKET@@I@Z
000D76EC ?RemoveObject@?$DrObjectMgr@VDrFile@@@@QEAAPEAVDrFile@@K@Z
000D778C ??_EDrFile@@UEAAPEAXI@Z
000D77C4 ?Initialize@DrFile@@QEAAHXZ
000D77F0 ??1DrFile@@UEAA@XZ
000D7850 ?CloseFileHandle@DrFile@@UEAAHXZ
000D78D0 ?RDPConvertToAnsi@@YAKPEBGPEADK@Z
000D7968 ?RDPConvertToUnicode@@YAKPEBDPEAGK@Z
000D7A00 ?DrUTL_AllocateReplyBuf@@YAJPEAUtagRDPDR_IOREQUEST_PACKET@@PEAPEAUtagRDPDR_IOCOMPLETION_PACKET@@PEAK@Z
000D7AC8 ?DrUTL_AllocIOCompletePacket@@YAPEAUtagRDPDR_IOCOMPLETION_PACKET@@QEAUtagRDPDR_IOREQUEST_PACKET@@K@Z
000D7B60 ??_GDrDevice@@UEAAPEAXI@Z
000D7B98 ??1DrDevice@@UEAA@XZ
000D7C88 ?Initialize@DrDevice@@UEAAKXZ
000D7D54 ?ProcessIORequest@DrDevice@@UEAAXPEAUtagRDPDR_IOREQUEST_PACKET@@I@Z
000D7F70 ?DefaultIORequestMsgHandle@DrDevice@@MEAAXPEAUtagRDPDR_IOREQUEST_PACKET@@J@Z
000D806C ?IsDosDevice@@YAHPEAG@Z
000D811C ?CancelIOFunc@W32DrDeviceOverlapped@@MEAAXPEAVW32DRDEV_OVERLAPPEDIO_PARAMS@@@Z
000D820C ?MsgIrpCreate@W32DrDeviceOverlapped@@MEAAXPEAUtagRDPDR_IOREQUEST_PACKET@@I@Z
000D880C ?MsgIrpReadWrite@W32DrDeviceOverlapped@@IEAAXPEAUtagRDPDR_IOREQUEST_PACKET@@I@Z
000D8968 ?StartReadIO@W32DrDeviceOverlapped@@MEAAPEAXPEAVW32DRDEV_OVERLAPPEDIO_PARAMS@@PEAK@Z
000D8C38 ?StartWriteIO@W32DrDeviceOverlapped@@MEAAPEAXPEAVW32DRDEV_OVERLAPPEDIO_PARAMS@@PEAK@Z
000D8ED8 ?StartIOCTL@W32DrDeviceOverlapped@@MEAAPEAXPEAVW32DRDEV_OVERLAPPEDIO_PARAMS@@PEAK@Z
000D9160 ?CompleteIOFunc@W32DrDeviceOverlapped@@IEAAXPEAVW32DRDEV_OVERLAPPEDIO_PARAMS@@K@Z
000D9388 ?DispatchIOCTLDirectlyToDriver@W32DrDeviceOverlapped@@IEAAXPEAUtagRDPDR_IOREQUEST_PACKET@@@Z
000D9488 ?_StartIOFunc@W32DrDeviceOverlapped@@KAPEAXPEAXPEAK@Z
000D94F0 ?SerialHandleEscapeCode@DrPRT@@IEAAXPEAUtagRDPDR_IOREQUEST_PACKET@@K@Z
000D9594 ??_GDrPRT@@UEAAPEAXI@Z
000D95CC ??1DrPRT@@UEAA@XZ
000D9608 ?GetDevAnnounceData@DrPRT@@UEAAXPEAUtagRDPDR_DEVICE_ANNOUNCE@@KK@Z
000D9668 ?GetDevAnnounceDataSize@DrPRT@@UEAAKXZ
000D9688 ?MsgIrpDeviceControlTranslate@DrPRT@@MEAAHPEAUtagRDPDR_IOREQUEST_PACKET@@@Z
000D99B8 ?SerialSetBaudRate@DrPRT@@MEAAXPEAUtagRDPDR_IOREQUEST_PACKET@@@Z
000D9A94 ?SerialGetBaudRate@DrPRT@@MEAAXPEAUtagRDPDR_IOREQUEST_PACKET@@@Z
000D9B6C ?SerialSetLineControl@DrPRT@@MEAAXPEAUtagRDPDR_IOREQUEST_PACKET@@@Z
000D9C24 ?SerialGetLineControl@DrPRT@@MEAAXPEAUtagRDPDR_IOREQUEST_PACKET@@@Z
000D9DA8 ?SerialImmediateChar@DrPRT@@MEAAXPEAUtagRDPDR_IOREQUEST_PACKET@@@Z
000D9E38 ??0W32DrPRT@@QEAA@PEAVProcObj@@PEBGK1@Z
000D9F44 ??1W32DrPRT@@UEAA@XZ
000D9F80 ?GetPortHandle@W32DrPRT@@MEAAPEAXK@Z
000D9FC4 ?MsgIrpDeviceControl@W32DrPRT@@MEAAXPEAUtagRDPDR_IOREQUEST_PACKET@@I@Z
000DA034 ?StartWaitOnMaskFunc@W32DrPRT@@IEAAPEAXPEAVW32DRDEV_OVERLAPPEDIO_PARAMS@@PEAK@Z
000DA268 ?SerialSetTimeouts@W32DrPRT@@MEAAXPEAUtagRDPDR_IOREQUEST_PACKET@@@Z
000DA34C ?SerialGetTimeouts@W32DrPRT@@MEAAXPEAUtagRDPDR_IOREQUEST_PACKET@@@Z
000DA460 ?SerialSetChars@W32DrPRT@@MEAAXPEAUtagRDPDR_IOREQUEST_PACKET@@@Z
000DA528 ?SerialGetChars@W32DrPRT@@MEAAXPEAUtagRDPDR_IOREQUEST_PACKET@@@Z
000DA65C ?SerialSetQueueSize@W32DrPRT@@MEAAXPEAUtagRDPDR_IOREQUEST_PACKET@@@Z
000DA6D4 ?SerialGetWaitMask@W32DrPRT@@MEAAXPEAUtagRDPDR_IOREQUEST_PACKET@@@Z
000DA7C4 ?SerialSetWaitMask@W32DrPRT@@MEAAXPEAUtagRDPDR_IOREQUEST_PACKET@@@Z
000DA838 ?SerialWaitOnMask@W32DrPRT@@MEAAXPEAUtagRDPDR_IOREQUEST_PACKET@@@Z
000DA984 ?SerialPurge@W32DrPRT@@MEAAXPEAUtagRDPDR_IOREQUEST_PACKET@@@Z
000DA9F8 ?SerialGetHandflow@W32DrPRT@@MEAAXPEAUtagRDPDR_IOREQUEST_PACKET@@@Z
000DABC0 ?SerialSetHandflow@W32DrPRT@@MEAAXPEAUtagRDPDR_IOREQUEST_PACKET@@@Z
000DAD68 ?SerialGetModemStatus@W32DrPRT@@MEAAXPEAUtagRDPDR_IOREQUEST_PACKET@@@Z
000DAED0 ?SerialGetCommStatus@W32DrPRT@@MEAAXPEAUtagRDPDR_IOREQUEST_PACKET@@@Z
000DB068 ?SerialGetProperties@W32DrPRT@@MEAAXPEAUtagRDPDR_IOREQUEST_PACKET@@@Z
000DB158 ?SerialConfigSize@W32DrPRT@@MEAAXPEAUtagRDPDR_IOREQUEST_PACKET@@@Z
000DB248 ?SerialGetConfig@W32DrPRT@@MEAAXPEAUtagRDPDR_IOREQUEST_PACKET@@@Z
000DB324 ?GetIniCommValues@W32DrPRT@@KAHPEBGPEAU_DCB@@@Z
000DB4A0 ?InitializeSerialPort@W32DrPRT@@SAXPEBGPEAX@Z
000DB5E4 WPP_SF_lD
000DB638 WPP_SF_lll
000DB698 ??_GThreadPool@@UEAAPEAXI@Z
000DB6D0 ??1ThreadPool@@UEAA@XZ
000DB710 ?RemoveAllThreads@ThreadPool@@QEAAXXZ
000DB7B4 ?Initialize@ThreadPool@@QEAAKXZ
000DB7F0 ?SubmitRequest@ThreadPool@@QEAAHPEAPEAXP6AKPEAX1@Z11@Z
000DB9E4 ?CloseRequest@ThreadPool@@QEAAXPEAX@Z
000DBA44 ?CleanUpThread@ThreadPool@@AEAAXPEAUtagTHREADPOOL_THREAD@1@K@Z
000DBBB4 ?AddNewThreadToPool@ThreadPool@@AEAAPEAUtagTHREADPOOL_THREAD@1@XZ
000DBE18 ?PooledThread@ThreadPool@@AEAAKPEAUtagTHREADPOOL_THREAD@1@@Z
000DC0E4 ??0DrFSFile@@QEAA@PEAVDrDevice@@KPEAXHPEBG@Z
000DC18C ??_EDrFSFile@@UEAAPEAXI@Z
000DC1C4 ??1DrFSFile@@UEAA@XZ
000DC1FC ?Close@DrFSFile@@UEAAHXZ
000DC254 ?DrSetStringValue@@YAHPEAPEAGPEBG@Z
000DC32C ??_EDrPRN@@UEAAPEAXI@Z
000DC364 ??1DrPRN@@UEAA@XZ
000DC3CC ?SetCachedDataSize@DrPRN@@UEAAKK@Z
000DC458 ?UpdatePrinterCacheData@DrPRN@@KAKPEAPEAEPEAKPEAEK@Z
000DC520 ?UpdatePrinterNameInCacheData@DrPRN@@KAKPEAPEAEPEAKPEAEK@Z
000DC63C ??_EW32DispatchQueue@@UEAAPEAXI@Z
000DC6A4 ?Initialize@W32DispatchQueue@@QEAAKXZ
000DC7C4 ?Dequeue@W32DispatchQueue@@QEAAHPEAP6AXPEAXH@ZPEAPEAX@Z
000DC8AC ?Enqueue@W32DispatchQueue@@QEAAHP6AXPEAXH@Z0@Z
000DC9CC ?Requeue@W32DispatchQueue@@QEAAHP6AXPEAXH@Z0H@Z
000DCAE8 ?Initialize@?$DrQueue@U_QUEUEELEMENT@W32DispatchQueue@@@@QEAAKXZ
000DCB1C ??_E?$DrQueue@U_QUEUEELEMENT@W32DispatchQueue@@@@UEAAPEAXI@Z
000DCBE0 ?CreateInstance@CLocalDevice@@SAJPEAPEAUILocalDevice@@PEBGH@Z
000DCDC4 ?NonDelegatingQueryInterface@CPnpXmlContentHandler@@UEAAJAEBU_GUID@@PEAPEAX@Z
000DCE6C ??_ECPnpXmlContentHandler@@UEAAPEAXI@Z
000DCFAC ?CreateLocaDevicesCollection@@YAJPEAPEAUIDeviceCollection@@@Z
000DD100 ?CreateDeviceUpdates@@YAJPEAPEAUIDeviceUpdates@@@Z
000DD1EC ?GetDevicesToRedirect@@YAJHHPEAUIEnumGUID@@0PEAUIEnumString@@1PEAPEAUIDeviceCollection@@PEAK@Z
000DD7F8 ?LPWSTR_clone@@YAJPEAGPEAPEAG@Z
000DD8EC ?GetTsRegistryDeviceInformation@@YAJPEAPEAUIEnumGUID@@0PEAPEAUIEnumString@@@Z
000DE704 ??_E?$CTSGenericEnumerator@U_GUID@@$1??$default_deallocator@U_GUID@@@@YAXU1@@Z$1??$default_clone@U_GUID@@@@YAJ0PEAU1@@Z@@UEAAPEAXI@Z
000DE78C ??_E?$CTSGenericEnumerator@PEAG$1?LPWSTR_deallocator@@YAXPEAG@Z$1?LPWSTR_clone@@YAJ0PEAPEAG@Z@@UEAAPEAXI@Z
000DE82C ??_E?$CTSSimpleEnumerator@PEAG@@UEAAPEAXI@Z
000DE858 ?RefreshDevicesToRedirect@@YAJHHPEAUIEnumGUID@@0PEAUIEnumString@@1PEAUIDeviceCollection@@H@Z
000DEB54 ?DeviceCollectionFromDeviceIdEnumerations@@YAJPEAUIEnumString@@0PEAPEAUIDeviceCollection@@@Z
000DED40 ?GeneratePnpRedirectionXmlSettings@@YAJHHHHPEAUIEnumGUID@@0PEAUIDeviceCollection@@PEAPEAG@Z
000DFD4C ?ParsePnpRedirectionXmlSettings@@YAJPEAGPEAH11PEAPEAUIEnumGUID@@2PEAPEAUIEnumString@@3@Z
000E0094 ?startElement@CPnpXmlContentHandler@@UEAAJPEBGH0H0HPEAUISAXAttributes@@@Z
000E0878 ?endElement@CPnpXmlContentHandler@@UEAAJPEBGH0H0H@Z
000E0BE4 ?characters@CPnpXmlContentHandler@@UEAAJPEBGH@Z
000E0CB0 ?endDocument@CPnpXmlContentHandler@@UEAAJXZ
000E0E48 ?getSettings@CPnpXmlContentHandler@@QEAAXPEAH00PEAPEAUIEnumGUID@@1PEAPEAUIEnumString@@2@Z
000E0F34 ?Reset@?$CTSGenericEnumerator@U_GUID@@$1??$default_deallocator@U_GUID@@@@YAXU1@@Z$1??$default_clone@U_GUID@@@@YAJ0PEAU1@@Z@@UEAAJXZ
000E0FA0 ?Next@?$CTSGenericEnumerator@U_GUID@@$1??$default_deallocator@U_GUID@@@@YAXU1@@Z$1??$default_clone@U_GUID@@@@YAJ0PEAU1@@Z@@UEAAJPEAU_GUID@@@Z
000E1034 ?Skip@?$CTSGenericEnumerator@U_GUID@@$1??$default_deallocator@U_GUID@@@@YAXU1@@Z$1??$default_clone@U_GUID@@@@YAJ0PEAU1@@Z@@UEAAJXZ
000E1098 ?Add@?$CTSGenericEnumerator@U_GUID@@$1??$default_deallocator@U_GUID@@@@YAXU1@@Z$1??$default_clone@U_GUID@@@@YAJ0PEAU1@@Z@@QEAAJPEAU_GUID@@@Z
000E1134 ?Reset@?$CTSGenericEnumerator@PEAG$1?LPWSTR_deallocator@@YAXPEAG@Z$1?LPWSTR_clone@@YAJ0PEAPEAG@Z@@UEAAJXZ
000E11A0 ?Next@?$CTSGenericEnumerator@PEAG$1?LPWSTR_deallocator@@YAXPEAG@Z$1?LPWSTR_clone@@YAJ0PEAPEAG@Z@@UEAAJPEAPEAG@Z
000E123C ?Skip@?$CTSGenericEnumerator@PEAG$1?LPWSTR_deallocator@@YAXPEAG@Z$1?LPWSTR_clone@@YAJ0PEAPEAG@Z@@UEAAJXZ
000E12A0 ?Add@?$CTSGenericEnumerator@PEAG$1?LPWSTR_deallocator@@YAXPEAG@Z$1?LPWSTR_clone@@YAJ0PEAPEAG@Z@@QEAAJPEAPEAG@Z
000E134C ?NonDelegatingQueryInterface@?$CTSEnumerator@U_GUID@@UIEnumGUID@@$E?IID_IEnumGUID@@3U1@B@@UEAAJAEBU_GUID@@PEAPEAX@Z
000E13F4 ?CreateInstance@?$CTSEnumerator@U_GUID@@UIEnumGUID@@$E?IID_IEnumGUID@@3U1@B@@SAJPEAV?$CTSSimpleEnumerator@U_GUID@@@@PEAPEAV1@@Z
000E1530 ?Next@?$CTSEnumerator@U_GUID@@UIEnumGUID@@$E?IID_IEnumGUID@@3U1@B@@UEAAJKPEAU_GUID@@PEAK@Z
000E1618 ?Skip@?$CTSEnumerator@PEAGUIEnumString@@$E?IID_IEnumString@@3U_GUID@@B@@UEAAJK@Z
000E16A0 ?NonDelegatingQueryInterface@?$CTSEnumerator@PEAGUIEnumString@@$E?IID_IEnumString@@3U_GUID@@B@@UEAAJAEBU_GUID@@PEAPEAX@Z
000E1748 ?CreateInstance@?$CTSEnumerator@PEAGUIEnumString@@$E?IID_IEnumString@@3U_GUID@@B@@SAJPEAV?$CTSSimpleEnumerator@PEAG@@PEAPEAV1@@Z
000E1884 ?Next@?$CTSEnumerator@PEAGUIEnumString@@$E?IID_IEnumString@@3U_GUID@@B@@UEAAJKPEAPEAGPEAK@Z
000E195C ??_E?$CTSEnumerator@U_GUID@@UIEnumGUID@@$E?IID_IEnumGUID@@3U1@B@@UEAAPEAXI@Z
000E19E4 ??_E?$CTSEnumerator@PEAGUIEnumString@@$E?IID_IEnumString@@3U_GUID@@B@@UEAAPEAXI@Z
000E1A9C ??_GCLocalDeviceInterfaces@@UEAAPEAXI@Z
000E1AF8 ?NonDelegatingQueryInterface@CDeviceCollection@@UEAAJAEBU_GUID@@PEAPEAX@Z
000E1BA0 ??_ECLocalDevice@@UEAAPEAXI@Z
000E1CCC ?Initialize@CLocalDevice@@QEAAJPEBGH@Z
000E1EA8 ?Terminate@CLocalDevice@@UEAAJXZ
000E1EF4 ?GetDeviceProperty@CLocalDevice@@QEAAJKPEAKPEAPEAE0@Z
000E2184 ?GetDeviceProperty2@CLocalDevice@@QEAAJPEBU_DEVPROPKEY@@PEAKPEAPEAE1@Z
000E2590 ?GetFileName@CLocalDevice@@UEAAJU_GUID@@PEAPEAG@Z
000E28D4 ?GetHardwareId@CLocalDevice@@UEAAJPEAPEAGPEAK@Z
000E2940 ?GetContainerId@CLocalDevice@@UEAAJPEAU_GUID@@@Z
000E2A94 ?GetDeviceCaps@CLocalDevice@@UEAAJPEAU_LOCAL_DEVICE_CAPS@@@Z
000E2B5C ?GetCompatibilityId@CLocalDevice@@UEAAJPEAPEAGPEAK@Z
000E2BC8 ?GetDeviceInstance@CLocalDevice@@UEAAJPEAPEAG@Z
000E2C70 ?GetDeviceSetupClass@CLocalDevice@@UEAAJPEAPEAG@Z
000E2CEC ?GetDeviceSetupClassGuid@CLocalDevice@@UEAAJPEAPEAG@Z
000E2D7C ?GetDeviceDescription@CLocalDevice@@UEAAJPEAPEAG@Z
000E2FDC ?GetDeviceDisplayName@CLocalDevice@@AEAAJKPEAPEAG@Z
000E3334 ?AddCustomEventCallback@CLocalDevice@@UEAAJPEAUIAsyncCustomEventCallback@@@Z
000E339C ?RemoveCustomEventCallback@CLocalDevice@@UEAAJPEAUIAsyncCustomEventCallback@@@Z
000E3430 ?IsCustomEventCallbackActive@CLocalDevice@@UEAAJPEAUIAsyncCustomEventCallback@@PEAH@Z
000E34B4 ?IsDevicePresent@CLocalDevice@@UEAAJPEAH@Z
000E3798 ?Set_DeviceText@CLocalDevice@@UEAAJPEAGK@Z
000E38DC ?Get_DeviceText@CLocalDevice@@UEAAJPEAPEAGPEAK@Z
000E399C ??_ECDeviceCollection@@UEAAPEAXI@Z
000E3A28 ?Initialize@CDeviceCollection@@UEAAJXZ
000E3AA4 ?Terminate@CDeviceCollection@@UEAAJXZ
000E3ACC ?EmptyCollection@CDeviceCollection@@UEAAJXZ
000E3B84 ?AddDisabledDeviceInstances@CDeviceCollection@@UEAAJPEAUIEnumString@@@Z
000E3BA8 ?RemoveDevice@CDeviceCollection@@UEAAJPEAG@Z
000E3C80 ?GetDeviceById@CDeviceCollection@@UEAAJKPEAPEAUILocalDevice@@@Z
000E3D68 ?GetDeviceFileNameById@CDeviceCollection@@UEAAJKPEAPEAG@Z
000E3E9C ?AddDevicesBySetupClass@CDeviceCollection@@UEAAJPEAU_GUID@@KKHPEAK1@Z
000E41A0 ?AddDevicesByDevInterface@CDeviceCollection@@UEAAJPEAU_GUID@@KKPEAK1@Z
000E4444 ?AddRedirectableDevices@CDeviceCollection@@UEAAJPEAGKKPEAK1@Z
000E4730 ?AddDeviceByInstanceId@CDeviceCollection@@UEAAJPEAGKKPEAK@Z
000E4BAC ?AddDevice@CDeviceCollection@@UEAAJPEAUILocalDevice@@@Z
000E4EE0 ?DoesExist@CDeviceCollection@@AEAA_NPEBG@Z
000E4F9C ?GetDeviceCount@CDeviceCollection@@UEAAJPEAK@Z
000E5010 ?GetDeviceByIndex@CDeviceCollection@@UEAAJKPEAPEAUILocalDevice@@@Z
000E50F0 ?GetDeviceByInstanceId@CDeviceCollection@@UEAAJPEAGPEAPEAUILocalDevice@@@Z
000E52D8 ?GetDeviceEnableCount@CDeviceCollection@@UEAAJPEAK0@Z
000E550C ?CheckDeviceReady@CDeviceCollection@@AEAAHPEAG@Z
000E56EC ?InitializeDriveLetterBitmap@CDeviceCollection@@AEAAJPEAGPEAK@Z
000E5D40 ?InitializeDriveLetter2DeviceNumberTable@CDeviceCollection@@AEAAXXZ
000E61E0 ??0CDeviceUpdates@@QEAA@XZ
000E6298 ??_ECDeviceUpdates@@UEAAPEAXI@Z
000E6358 ?Initialize@CDeviceUpdates@@UEAAJXZ
000E6388 ?StartListeningForUpdates@CDeviceUpdates@@UEAAJPEAUIDeviceUpdatesCallback@@@Z
000E6484 ?StopListeningForUpdates@CDeviceUpdates@@UEAAJXZ
000E6518 ?RefreshDeviceCollection@CDeviceUpdates@@QEAAJHHPEAK@Z
000E6A6C ?static_SearchForNewDevices@CDeviceUpdates@@SAKPEAX@Z
000E6B48 ?static_SearchForRemovedDevices@CDeviceUpdates@@SAKPEAX@Z
000E6BD4 ?DeviceUpdatesMsgWndProc@@YA_JPEAUHWND__@@I_K_J@Z
000E6D44 ?CreateMsgWindow@CDeviceUpdates@@AEAAJXZ
000E6F30 ?CreateTimer@CDeviceUpdates@@QEAAXK@Z
000E6FA8 ?DestroyTimer@CDeviceUpdates@@QEAAXXZ
000E7010 ?Initialize@CLocalDeviceInterfaces@@QEAAJPEBG@Z
000E7458 ?Terminate@CLocalDeviceInterfaces@@UEAAJXZ
000E74A8 ??_ECRegistry@@UEAAPEAXI@Z
000E74E0 ??1CRegistry@@UEAA@XZ
000E752C ?Allocate@CRegistry@@AEAAPEAXK@Z
000E7588 ?OpenKey@CRegistry@@QEAAKPEAUHKEY__@@PEBGK1@Z
000E75EC ?ReadReg@CRegistry@@AEAAKPEBGPEAPEAEPEAKK@Z
000E7730 ?ReadRegString@CRegistry@@QEAAKPEBGPEAPEAGPEAK@Z
000E7798 ?ReadRegDWord@CRegistry@@QEAAKPEBGPEAK@Z
000E77D4 ?GetNextSubKey@CRegistry@@QEAAKPEAPEAGPEAK@Z
000E786C ?Initialize@CRdrPlugin@@UEAAJPEAUIWTSVirtualChannelManager@@@Z
000E79EC ?Connected@CRdrPlugin@@UEAAJXZ
000E7A4C ?Disconnected@CRdrPlugin@@UEAAJK@Z
000E7AAC ?Terminated@CRdrPlugin@@UEAAJXZ
000E7AEC ??1CDeskBand@@QEAA@XZ
000E7B6C ?ShowDW@CDeskBand@@UEAAJH@Z
000E7B94 ?CloseDW@CDeskBand@@UEAAJK@Z
000E7BD0 ?UIActivateIO@CDeskBand@@UEAAJHPEAUtagMSG@@@Z
000E7C00 ?SetSite@CDeskBand@@UEAAJPEAUIUnknown@@@Z
000E7CD8 ?GetSite@CDeskBand@@UEAAJAEBU_GUID@@PEAPEAX@Z
000E7DF0 ?WndProc@CDeskBand@@KA_JPEAUHWND__@@I_K_J@Z
000E8018 ?OnEraseBackground@CDeskBand@@IEAA_JPEAUHDC__@@@Z
000E80D8 ?OnCopyData@CDeskBand@@IEAA_JQEAUtagCOPYDATASTRUCT@@@Z
000E8218 ?ResizeDeskband@CDeskBand@@IEAAHJJ@Z
000E8364 ?RegisterAndCreateWindow@CDeskBand@@IEAAHXZ
000E8530 ?NonDelegatingQueryInterface@CRailPlugin@@UEAAJAEBU_GUID@@PEAPEAX@Z
000E868C ?Invoke@OnInitializeAsyncTerminatingCallback@CRailPlugin@@UEAAJPEAVITSAsyncResult@@_K@Z
000E86CC ?Invoke@OnTerminateAsyncTerminatingCallback@CRailPlugin@@UEAAJPEAVITSAsyncResult@@_K@Z
000E86F8 ?Invoke@OnSendingCapsAsyncTerminatingCallback@CRailPlugin@@UEAAJPEAVITSAsyncResult@@_K@Z
000E8728 ?Invoke@OnReceivedCapsAsyncTerminatingCallback@CRailPlugin@@UEAAJPEAVITSAsyncResult@@_K@Z
000E8758 ?Invoke@OnVcOpenedAsyncTerminatingCallback@CRailPlugin@@UEAAJPEAVITSAsyncResult@@_K@Z
000E8788 ?Invoke@OnDisplayUpdateAsyncTerminatingCallback@CRailPlugin@@UEAAJPEAVITSAsyncResult@@_K@Z
000E87B8 ?Invoke@OnZOrderInformationAsyncTerminatingCallback@CRailPlugin@@UEAAJPEAVITSAsyncResult@@_K@Z
000E8810 ?Invoke@OnWindowInformationAsyncTerminatingCallback@CRailPlugin@@UEAAJPEAVITSAsyncResult@@_K@Z
000E8868 ?Invoke@OnShellNotifyInformationAsyncTerminatingCallback@CRailPlugin@@UEAAJPEAVITSAsyncResult@@_K@Z
000E88C0 ?Invoke@OnDesktopInformationAsyncTerminatingCallback@CRailPlugin@@UEAAJPEAVITSAsyncResult@@_K@Z
000E8918 ?Invoke@OnArcEndAsyncTerminatingCallback@CRailPlugin@@UEAAJPEAVITSAsyncResult@@_K@Z
000E8970 ?Invoke@OnArcDimmingStartAsyncTerminatingCallback@CRailPlugin@@UEAAJPEAVITSAsyncResult@@_K@Z
000E89C8 ?Invoke@OnArcDimmingStopAsyncTerminatingCallback@CRailPlugin@@UEAAJPEAVITSAsyncResult@@_K@Z
000E8A20 ?Invoke@OnCursorChangeAsyncTerminatingCallback@CRailPlugin@@UEAAJPEAVITSAsyncResult@@_K@Z
000E8A78 ?Invoke@OnVcPacketAsyncTerminatingCallback@CRailPlugin@@UEAAJPEAVITSAsyncResult@@_K@Z
000E8AD0 ?Invoke@OnServerStartAppAsyncTerminatingCallback@CRailPlugin@@UEAAJPEAVITSAsyncResult@@_K@Z
000E8B00 ??0CRailPlugin@@QEAA@PEAUIUnknown@@@Z
000E902C ??_GCRailPlugin@@MEAAPEAXI@Z
000E9064 ??1CRailPlugin@@MEAA@XZ
000E9254 ?Initialize@CRailPlugin@@UEAAJXZ
000E9304 ?Terminate@CRailPlugin@@UEAAJXZ
000E93C8 ?OnInitialize@CRailPlugin@@MEAAJPEAVITSAsyncResult@@_K@Z
000E9670 ?OnTerminate@CRailPlugin@@MEAAJPEAVITSAsyncResult@@_K@Z
000E9850 ?StartRail@CRailPlugin@@IEAAJXZ
000E9AB4 ?OnZOrderInformation@CRailPlugin@@MEAAJPEAVITSAsyncResult@@_K@Z
000E9B60 ?OnWindowInformation@CRailPlugin@@MEAAJPEAVITSAsyncResult@@_K@Z
000E9CE0 ?OnShellNotifyInformation@CRailPlugin@@MEAAJPEAVITSAsyncResult@@_K@Z
000E9D98 ?OnDesktopInformation@CRailPlugin@@MEAAJPEAVITSAsyncResult@@_K@Z
000E9E04 ?OnDisplayUpdate@CRailPlugin@@MEAAJPEAVITSAsyncResult@@_K@Z
000E9EEC ?OnReceivedCaps@CRailPlugin@@MEAAJPEAVITSAsyncResult@@_K@Z
000EA0E0 ?GetClientCaps@CRailPlugin@@IEAAKXZ
000EA1F0 ?OnSendingCaps@CRailPlugin@@MEAAJPEAVITSAsyncResult@@_K@Z
000EA314 ?OnVcOpened@CRailPlugin@@MEAAJPEAVITSAsyncResult@@_K@Z
000EA614 ?OnVcPacket@CRailPlugin@@MEAAJPEAVITSAsyncResult@@_K@Z
000EA774 ?ServerStartApp@CRailPlugin@@UEAAJPEBG00H0H@Z
000EAADC ?OnServerStartApp@CRailPlugin@@MEAAJPEAVITSAsyncResult@@_K@Z
000EAC28 ?GetRailMode@CRailPlugin@@IEAAHXZ
000EACD8 ?OnArcEnd@CRailPlugin@@MEAAJPEAVITSAsyncResult@@_K@Z
000EAD8C ?OnArcDimmingStart@CRailPlugin@@MEAAJPEAVITSAsyncResult@@_K@Z
000EAE34 ?OnArcDimmingStop@CRailPlugin@@MEAAJPEAVITSAsyncResult@@_K@Z
000EAED8 ?OnCursorChange@CRailPlugin@@MEAAJPEAVITSAsyncResult@@_K@Z
000EAF7C ?DisconnectSession@CRailPlugin@@QEAAJXZ
000EB0EC ?MapWindow@CRailPlugin@@UEAAJ_KPEAPEAUHWND__@@@Z
000EB21C ?NonDelegatingQueryInterface@CRailCore@@UEAAJAEBU_GUID@@PEAPEAX@Z
000EB3B4 WPP_SF_DDD
000EB408 WPP_SF_xD
000EB460 ?CreateInstance@CRailCore@@SAJPEAVCRailPlugin@@PEAVITSWin32CoreApi@@PEAPEAVITSRailCore@@@Z
000EB574 ??0CRailCore@@IEAA@PEAVCRailPlugin@@PEAVITSWin32CoreApi@@@Z
000EB6FC ??_ECRailCore@@MEAAPEAXI@Z
000EB734 ??1CRailCore@@MEAA@XZ
000EB8C0 ?Initialize@CRailCore@@UEAAJXZ
000EBF10 ?Terminate@CRailCore@@UEAAJXZ
000EC0F0 ?OnHandshake@CRailCore@@IEAAJXZ
000EC344 ?OnExecResultCB@CRailCore@@MEAAJPEAVITSAsyncResult@@_K@Z
000EC4C8 ?OnStartAppFailedCB@CRailCore@@MEAAJPEAVITSAsyncResult@@_K@Z
000EC6B0 ?Fire_ExecResult@CRailCore@@IEAAJPEBGW4tagRAIL_ORDER_EXEC_RESULT@@H@Z
000EC814 ?OnRailPdu@CRailCore@@UEAAJPEAUtagTS_RAIL_PDU@@I@Z
000ED13C ?OnRailOrderSysParam@CRailCore@@IEAAXPEAUtagTS_RAIL_PDU@@@Z
000ED380 ?OnShellNotifyInformation@CRailCore@@UEAAJIPEAVITSShellNotifyInformation@@@Z
000ED6D4 ?OnDesktopLoaded@CRailCore@@UEAAJH@Z
000ED7DC ?OnZOrderInformation@CRailCore@@UEAAJPEAVITSZOrder@@@Z
000ED848 ?OnWindowInformation@CRailCore@@UEAAJIPEAVITSWindowInformation@@@Z
000EDC7C ?OnDisplayUpdate@CRailCore@@UEAAJPEAUHRGN__@@PEAUtagRECT@@@Z
000EDCDC ?SendHandshake@CRailCore@@IEAAJXZ
000EDD7C ?ExpandAndCopyPath@CRailCore@@IEAAJPEBG_KHPEAG12@Z
000EE004 ?OnStartApp@CRailCore@@MEAAJPEAVITSAsyncResult@@_K@Z
000EE190 ?ServerStartApp@CRailCore@@QEAAJPEAVITSRailApp@@@Z
000EE5D8 ?SendRailPdu@CRailCore@@UEAAJIPEAEI@Z
000EE874 ?ScreenCoordToWorkspaceCoord@CRailCore@@UEAAJPEAH0@Z
000EE9D8 ?SetArcDim@CRailCore@@UEAAJH@Z
000EEA94 ?OnCursorChange@CRailCore@@UEAAJXZ
000EEAFC ?SendRailClientStatus@CRailCore@@IEAAJXZ
000EEBAC ?SetupScalabilityTestWindow@CRailCore@@IEAAJXZ
000EEC58 ?MapWindow@CRailCore@@UEAAJ_KPEAPEAUHWND__@@@Z
000EED4C ?HideLangBar@CRailCore@@IEAAXXZ
000EEEF4 ?NonDelegatingQueryInterface@CRailApp@@UEAAJAEBU_GUID@@PEAPEAX@Z
000EEFE0 WPP_SF_ssss
000EF1A8 ??_ECRailApp@@MEAAPEAXI@Z
000EF208 ?Initialize@CRailApp@@IEAAJPEBG00H0H@Z
000EF54C ?Validate@CRailApp@@QEAAJXZ
000EF868 ?SendRailLangbarPdu@CRailLanguagebarHandler@@QEAAJXZ
000EFA28 ?OnRailLangbarPdu@CRailLanguagebarHandler@@QEAAXPEAUtagTS_RAIL_ORDER_LANGBARINFO_BODY@@@Z
000EFAF8 ?OnWindowInformation@CRailLanguagebarHandler@@QEAAXPEAVCRailWindow@@@Z
000EFFE8 ?IsRailLanguageBar@CRailLanguagebarHandler@@IEAAHPEAUHWND__@@@Z
000F0094 ?RefreshRailDeskband@CRailLanguagebarHandler@@IEAAHPEBUtagRECT@@PEAU2@@Z
000F027C ?ShowRailDeskband@CRailLanguagebarHandler@@IEAAHXZ
000F03F8 ?HideRailDeskband@CRailLanguagebarHandler@@IEAAXXZ
000F0458 ?GetTrayWindow@CRailLanguagebarHandler@@IEAAPEAUHWND__@@XZ
000F0498 ?GetDeskbandWindow@CRailLanguagebarHandler@@IEAAPEAUHWND__@@XZ
000F05B4 ??0CRailUi@@IEAA@PEBDPEAVITSRailCore@@PEAVITSWin32CoreApi@@PEAVCRailUiManager@@PEBVCRailUiId@@@Z
000F0678 ??_GCRailUi@@MEAAPEAXI@Z
000F06B0 ??1CRailUi@@MEAA@XZ
000F0748 ?Initialize@CRailUi@@UEAAJXZ
000F08C0 ?Terminate@CRailUi@@UEAAJXZ
000F0944 ?OnWindowShown@CRailUi@@MEAAXH@Z
000F0A7C ?ForwardToIH@CRailUi@@IEAAXI_K_JHH@Z
000F0BF4 ?UpdateMousePos@CRailUi@@IEAAHH@Z
000F0CAC ??_ECRailUiVisibleUiState@@MEAAPEAXI@Z
000F0CE4 ??1CRailUiVisibleUiState@@MEAA@XZ
000F0D8C ?Initialize@CRailUiVisibleUiState@@UEAAJXZ
000F0DFC ?Terminate@CRailUiVisibleUiState@@UEAAJXZ
000F0EA0 ?ScheduleVisibleWindowCallback@CRailUiVisibleUiState@@IEAAXHH@Z
000F106C ?OnRemoteApplicationVisible@CRailUiVisibleUiState@@MEAAJPEAVITSAsyncResult@@_K@Z
000F1358 ?CreateInstance@CRailUiManager@@SAJPEAVITSRailCore@@PEAVCRailUiVisibleUiState@@PEAVITSWin32CoreApi@@PEAPEAV1@@Z
000F1484 ??0CRailUiManager@@IEAA@PEAVITSRailCore@@PEAVCRailUiVisibleUiState@@PEAVITSWin32CoreApi@@@Z
000F1580 ??_ECRailUiManager@@MEAAPEAXI@Z
000F15B8 ??1CRailUiManager@@MEAA@XZ
000F16A8 ?Initialize@CRailUiManager@@MEAAJXZ
000F190C ?Terminate@CRailUiManager@@UEAAJXZ
000F19DC ?AddRailUi@CRailUiManager@@QEAAJPEAVCRailUi@@@Z
000F1A88 ?FindRailUi@CRailUiManager@@QEAAJPEBVCRailUiId@@PEAPEAVCRailUi@@@Z
000F1B60 ?DestroyAllRailUi@CRailUiManager@@UEAAXXZ
000F1C28 ?DestroyRailUi@CRailUiManager@@UEAAJPEBVCRailUiId@@@Z
000F1D18 ?AddVisibleRailUi@CRailUiManager@@UEAAJPEAVCRailUi@@@Z
000F1D98 ?CreateRailTitleString@CRailUiManager@@QEAAPEAGPEBGPEAG_K2@Z
000F20A4 ?Remove@?$CComPtrList@VCRailUi@@V?$ComPlainSmartPtr@VCRailUi@@@@@@QEAAHPEAV?$CTFinder@VCRailUi@@@@PEAXPEAPEAVCRailUi@@@Z
000F217C ?DetachHWNDFromClassInstance@CTsWindow@@QEAAXXZ
000F2214 ?SetWindowToForeground@CWinManager@@QEAAXPEAUHWND__@@@Z
000F22FC WPP_SF_DXX
000F2360 WPP_SF_DdDXX
000F23E0 ?CreateInstance@CWinManager@@SAJPEAVITSRailCore@@PEAVITSWin32CoreApi@@PEAVCRailUiVisibleUiState@@PEAPEAV1@@Z
000F2594 ??_GCWinManager@@MEAAPEAXI@Z
000F25CC ??1CWinManager@@MEAA@XZ
000F2694 ?Initialize@CWinManager@@UEAAJXZ
000F279C ?Terminate@CWinManager@@UEAAJXZ
000F2838 ?OnCursorChange@CWinManager@@QEAAJXZ
000F28E8 ?AddVisibleRailUi@CWinManager@@UEAAJPEAVCRailUi@@@Z
000F295C ?CreateOwnedWindowsOf@CWinManager@@QEAAXPEAVCRailWindow@@@Z
000F2A8C ?DestroyAllRailUi@CWinManager@@UEAAXXZ
000F2B18 ?RedrawAll@CWinManager@@QEAAXPEAUHRGN__@@PEAUtagRECT@@@Z
000F2CA0 ?DestroyRailUi@CWinManager@@UEAAJPEBVCRailUiId@@@Z
000F2D7C ?IsRailWindow@CWinManager@@QEAAHPEAUHWND__@@PEAPEAVCRailWindow@@@Z
000F2E48 ?SetDoArcDim@CWinManager@@QEAAJH@Z
000F2F14 ?OnZOrderInformation@CWinManager@@QEAAJPEAVITSZOrder@@@Z
000F3004 ?DoZorder@CWinManager@@QEAAJXZ
000F3928 ?IsWindowInZOrder@CWinManager@@QEAAHPEAUHWND__@@@Z
000F39EC ?CreateInstance@CRailEventsWindow@@SAJPEAVITSRailCore@@PEAVITSWin32CoreApi@@PEAPEAV1@@Z
000F3B10 ??0CRailEventsWindow@@IEAA@PEAVITSRailCore@@PEAVITSWin32CoreApi@@@Z
000F3BE4 ??_GCRailEventsWindow@@MEAAPEAXI@Z
000F3C1C ??1CRailEventsWindow@@MEAA@XZ
000F3CA0 ?Initialize@CRailEventsWindow@@UEAAJXZ
000F47B8 ?Terminate@CRailEventsWindow@@UEAAJXZ
000F48C4 ?Resend@CRailAppBarMonitor@@UEAAJH@Z
000F4A2C ??_GCRailMouseHandednessMonitor@@UEAAPEAXI@Z
000F4BB4 ?GetPrimaryMonitorInfo@CRailWindow@@QEBAJPEAUtagMONITORINFOEXW@@@Z
000F4CDC ?IsMaximizeSynchronized@CRailWindow@@IEBAHXZ
000F4D88 WPP_SF_dddd
000F4DE8 WPP_SF_DX
000F4E38 WPP_SF_dD
000F4E80 WPP_SF_XX
000F4ED4 WPP_SF_DDDDDD
000F4F54 WPP_SF_ddi
000F4FB8 WPP_SF_hhhh
000F5020 WPP_SF_qdddddddd
000F50D8 WPP_SF_qllllllll
000F5190 ?CreateInstance@CRailWindow@@SAJPEAVITSRailCore@@PEAVITSWin32CoreApi@@PEAVITSWindowInformation@@PEAVCWinManager@@KPEAPEAV1@@Z
000F532C ??0CRailWindow@@IEAA@PEAVITSRailCore@@PEAVITSWin32CoreApi@@PEAVITSWindowInformation@@PEBVCRailUiId@@PEAVCWinManager@@K@Z
000F5524 ??_ECRailWindow@@MEAAPEAXI@Z
000F555C ??1CRailWindow@@MEAA@XZ
000F563C ?Initialize@CRailWindow@@UEAAJXZ
000F5AFC ?Terminate@CRailWindow@@UEAAJXZ
000F5C7C ?UpdateWindowTitle@CRailWindow@@QEAAJXZ
000F5D30 ?GetStyle@CRailWindow@@IEBAJPEAK0@Z
000F5E28 ?UpdateWindowStyle@CRailWindow@@QEAAJXZ
000F63D4 ?UpdateWindowVisibility@CRailWindow@@QEAAJXZ
000F6664 ?UpdateWindowPosition@CRailWindow@@QEAAJXZ
000F6840 ?UpdateWindowRegion@CRailWindow@@QEAAJXZ
000F6A18 ?UpdateWindowShow@CRailWindow@@QEAAJXZ
000F6DE8 ?UpdateWindowOwner@CRailWindow@@QEAAJXZ
000F6FF0 ?UpdateWindowIcon@CRailWindow@@QEAAJH@Z
000F70FC ?RedrawUpdateRegion@CRailWindow@@QEAAJPEAUHRGN__@@PEAVCTSRegion@@@Z
000F721C ?OnWmCreate@CRailWindow@@IEAA_JXZ
000F742C ?OnWmPaint@CRailWindow@@IEAA_JI_K_J@Z
000F7884 ?SetClippingRgnToMonitor@CRailWindow@@QEAAJPEAUHDC__@@HH@Z
000F7A9C ?WindowCreate@CRailWindow@@QEAAJXZ
000F7C80 ?AddIconOverlay@CRailWindow@@QEAAJPEAUHWND__@@@Z
000F7F0C ?WindowCreateHelper@CRailWindow@@IEAAJXZ
000F836C ?ForceIconicThumbnail@CRailWindow@@IEAAJXZ
000F842C ?SetAppID@CRailWindow@@QEBAJPEAG@Z
000F87E8 ?HashDataToString@CRailWindow@@IEBAJPEAEKPEAPEAG@Z
000F8984 ?HashAppID@CRailWindow@@QEBAJPEAGKPEAPEAG@Z
000F8BA8 ?AllowTaskbarButtonCreatedMessage@CRailWindow@@QEBAHXZ
000F8C58 ?OnWmActivate@CRailWindow@@IEAA_JI_K_J@Z
000F9348 ?UpdateServerWithGeometry@CRailWindow@@QEBAJXZ
000F9488 ?SendRailOrderActivate@CRailWindow@@IEBAJH@Z
000F950C ?OnWmSysCommand@CRailWindow@@IEAA_JI_K_J@Z
000F96C4 ?OnWmSize@CRailWindow@@IEAA_J_K@Z
000F9930 ?OnWmMoving@CRailWindow@@IEAA_J_K_J@Z
000F9BEC ?OnLocalShow@CRailWindow@@IEAAJI@Z
000F9C70 ?OnMinMaxInfo@CRailWindow@@IEAA_JPEAUtagMINMAXINFO@@@Z
000F9DC4 ?OnWmSetCursor@CRailWindow@@IEAA_JI_K_J@Z
000F9F30 ?WndProc@CRailWindow@@UEAA_JPEAUHWND__@@I_K_J@Z
000FA6F4 ?SetCursorShape@CRailWindow@@QEBAXXZ
000FA754 ?OnWindowShown@CRailWindow@@MEAAXH@Z
000FA7CC ?SetLastActiveRailPopupToForeground@CRailWindow@@IEAAHXZ
000FA8C8 ?OnServerMoveSizeStart@CRailWindow@@QEAAJAEBUtagTS_RAIL_ORDER_LOCALMOVESIZE_BODY@@@Z
000FAD30 ?EndLocalMoveSize@CRailWindow@@QEAAJHHJJ@Z
000FAFB8 ?InitiateSyscommandLocalMoveSize@CRailWindow@@IEAAJI@Z
000FB03C ?InitiateMouseLocalMoveSize@CRailWindow@@IEAAJXZ
000FB4F8 ?GetHittestFromMovesizeType@CRailWindow@@IEAAJIPEA_J@Z
000FB7C8 ?GetAdjustedWndRect@CRailWindow@@IEBAJPEAH000@Z
000FB88C ?GetAdjustedWndRect@CRailWindow@@IEBAJPEAUtagRECT@@@Z
000FBAB8 ?ClipRectToMonitor@CRailWindow@@KAHPEAUtagRECT@@H@Z
000FBC1C ?IsRudeWindow@CRailWindow@@IEBAHUtagRECT@@PEAU2@@Z
000FBF18 ?CheckAndInitForSpan@CRailWindow@@IEAAJXZ
000FC18C ?FixCenteredPopup@CRailWindow@@IEAAJJJ@Z
000FC55C ?IsOKToClipMaximized@CRailWindow@@IEBAHXZ
000FC618 ?IsMaximizeOffsetSynchronized@CRailWindow@@IEBAHXZ
000FC6B0 ?SetServerToMaximizePosition@CRailWindow@@IEAAJH@Z
000FC7CC ?MaximizeForSpan@CRailWindow@@IEAAJXZ
000FCC34 ?CTsWindow_STATIC_WndProc@CTsWindow@@SA_JPEAUHWND__@@I_K_J@Z
000FCD38 ?InitWindowClass@CTsWindow@@KAHPEBGPEAUHINSTANCE__@@KPEAUHICON__@@2@Z
000FCE48 ?Create@CTsWindow@@QEAAHPEAUHWND__@@PEBGKKHHHHPEAUHINSTANCE__@@PEAUHMENU__@@1KPEAUHICON__@@4@Z
000FD020 ?CreateInstance@CSessionIdleDetector@@SAJPEAPEAVCIdleDetector@@@Z
000FD180 ?Start@CSessionIdleDetector@@UEAAJXZ
000FD1E8 ?Stop@CSessionIdleDetector@@UEAAJXZ
000FD230 ?GetWasIdle@CSessionIdleDetector@@UEAAHXZ
000FD2C4 ?CreateInstance@CIHIdleDetector@@SAJPEAVITSRailCore@@PEAPEAVCIdleDetector@@@Z
000FD440 ??_ECIHIdleDetector@@MEAAPEAXI@Z
000FD478 ??1CIHIdleDetector@@MEAA@XZ
000FD4E8 ?Start@CIHIdleDetector@@UEAAJXZ
000FD540 ?Stop@CIHIdleDetector@@UEAAJXZ
000FD584 ?GetWasIdle@CIHIdleDetector@@UEAAHXZ
000FD638 ?CreateInstance@CIdleSynchronizer@@SAJPEAVITSWin32CoreApi@@PEAVITSRailCore@@PEAPEAV1@@Z
000FD76C ??0CIdleSynchronizer@@IEAA@PEAVITSWin32CoreApi@@PEAVITSRailCore@@@Z
000FD820 ??_ECIdleSynchronizer@@MEAAPEAXI@Z
000FD858 ??1CIdleSynchronizer@@MEAA@XZ
000FD908 ?Initialize@CIdleSynchronizer@@UEAAJXZ
000FDB9C ?Terminate@CIdleSynchronizer@@UEAAJXZ
000FDCC8 ?Start@CIdleSynchronizer@@QEAAJK@Z
000FDDA8 ?Stop@CIdleSynchronizer@@QEAAJXZ
000FDE20 ?WndProc@CIdleSynchronizer@@MEAA_JPEAUHWND__@@I_K_J@Z
000FDE68 ?RequestSyncThreadWorker@CIdleSynchronizer@@MEAAJPEAVITSAsyncResult@@_K@Z
000FDF30 ?OnWmTimer@CIdleSynchronizer@@IEAAXXZ
000FE0C8 ?CreateInstance@CRailNotify@@SAJPEAVITSRailCore@@PEAVITSWin32CoreApi@@PEAVITSShellNotifyInformation@@PEAVCRailUiManager@@PEAPEAV1@@Z
000FE290 ??_ECRailNotify@@MEAAPEAXI@Z
000FE2C8 ??1CRailNotify@@MEAA@XZ
000FE310 ?Initialize@CRailNotify@@UEAAJXZ
000FE3BC ?Terminate@CRailNotify@@UEAAJXZ
000FE4D4 ?SetVersion@CRailNotify@@QEAAJXZ
000FE5F0 ?FillInfoFields@CRailNotify@@IEAAJPEAU_NOTIFYICONDATAW@@@Z
000FE748 ?SetInfo@CRailNotify@@QEAAJXZ
000FE894 ?FillTipFields@CRailNotify@@IEAAJPEAU_NOTIFYICONDATAW@@@Z
000FE9D0 ?SetTip@CRailNotify@@QEAAJXZ
000FEB1C ?FillWSNStateFields@CRailNotify@@IEAAJPEAU_NOTIFYICONDATAW@@@Z
000FEBD0 ?SetWSNState@CRailNotify@@QEAAJXZ
000FED3C ?SetIcon@CRailNotify@@QEAAJXZ
000FEF78 ?CreateNotifyIcon@CRailNotify@@IEAAJXZ
000FF1EC ?WndProc@CRailNotify@@UEAA_JPEAUHWND__@@I_K_J@Z
000FF2AC ?SendNotifyEvent@CRailNotify@@IEAAJI@Z
000FF3C0 ?CreateInstance@CRailScalWindow@@SAJPEAVITSWin32CoreApi@@PEAVITSRailCore@@PEAPEAV1@@Z
000FF56C ??_ECRailScalWindow@@MEAAPEAXI@Z
000FF5A4 ??1CRailScalWindow@@MEAA@XZ
000FF624 ?Initialize@CRailScalWindow@@UEAAJXZ
000FF91C ?Terminate@CRailScalWindow@@UEAAJXZ
000FF9A8 ?WndProc@CRailScalWindow@@MEAA_JPEAUHWND__@@I_K_J@Z
000FFB38 ?CreateInstance@CBecomeForegroundAppWindow@@SAJPEAPEAV1@@Z
000FFC68 ??_ECBecomeForegroundAppWindow@@MEAAPEAXI@Z
000FFCA0 ??1CBecomeForegroundAppWindow@@MEAA@XZ
000FFDC0 ?Terminate@CBecomeForegroundAppWindow@@UEAAJXZ
000FFE00 ?BecomeForegroundWindow@CBecomeForegroundAppWindow@@QEAAHPEAVITSPlatform@@K@Z
00100084 ?WndProc@CBecomeForegroundAppWindow@@UEAA_JPEAUHWND__@@I_K_J@Z
001000D0 ?RegHotKey@CBecomeForegroundAppWindow@@AEAAHXZ
001001D0 ?SendKey@CBecomeForegroundAppWindow@@AEAAHGH@Z
001002A0 ??0CRailMonitorSystemParameter@@QEAA@PEAVITSRailVC@@@Z
00100330 ??1CRailMonitorSystemParameter@@MEAA@XZ
0010038C ?SendSystemParameter@CRailMonitorSystemParameter@@QEAAJIPEAE_K@Z
001004EC ??_ECRailSystemParametersWindow@@MEAAPEAXI@Z
00100524 ??1CRailSystemParametersWindow@@MEAA@XZ
001005B4 ?Initialize@CRailSystemParametersWindow@@UEAAJXZ
001006E8 ?Terminate@CRailSystemParametersWindow@@UEAAJXZ
0010075C ?AddMonitorW@CRailSystemParametersWindow@@QEAAJPEAVCRailMonitorSystemParameter@@@Z
001007D8 ?OnElement@CRailSystemParametersWindowIterator@@UEAAHPEAVCRailMonitorSystemParameter@@@Z
001007FC ?Resend@CRailSystemParametersWindow@@UEAAXH@Z
00100848 ?OnElement@CRailSystemParametersWindowWndProcIterator@@UEAAHPEAVCRailMonitorSystemParameter@@@Z
00100888 ?WndProc@CRailSystemParametersWindow@@UEAA_JPEAUHWND__@@I_K_J@Z
00100930 WPP_SF_dds
001009EC WPP_SF_ds
00100AB8 ?CalculateSpannedWorkArea@CRailWorkAreaMonitor@@AEAAJPEAUtagRECT@@@Z
00100BEC ?STATICRailSendWorkArea@CRailWorkAreaMonitor@@CAHPEAUHMONITOR__@@PEAUHDC__@@PEAUtagRECT@@_J@Z
00100D28 ?Resend@CRailWorkAreaMonitor@@UEAAJH@Z
00100F44 ??0CRailBoolSysparamMonitor@@QEAA@PEAVITSRailVC@@II@Z
00100FB8 ?Resend@CRailBoolSysparamMonitor@@UEAAJH@Z
00101114 ?Resend@CRailMouseHandednessMonitor@@UEAAJH@Z
00101204 ?Resend@CRailHighContrastMonitor@@UEAAJH@Z
00101400 ?NonDelegatingQueryInterface@CWndPlugin@@UEAAJAEBU_GUID@@PEAPEAX@Z
001014F8 ?Invoke@OnInitializeAsyncTerminatingCallback@CWndPlugin@@UEAAJPEAVITSAsyncResult@@_K@Z
00101548 ?Invoke@OnTerminateAsyncTerminatingCallback@CWndPlugin@@UEAAJPEAVITSAsyncResult@@_K@Z
00101574 ?Invoke@OnReceivedCapsAsyncTerminatingCallback@CWndPlugin@@UEAAJPEAVITSAsyncResult@@_K@Z
001015B8 ?Invoke@OnSendingCapsAsyncTerminatingCallback@CWndPlugin@@UEAAJPEAVITSAsyncResult@@_K@Z
001015FC ?Invoke@OnArcDimmingStartAsyncTerminatingCallback@CWndPlugin@@UEAAJPEAVITSAsyncResult@@_K@Z
00101654 ?Invoke@OnVcOpenedAsyncTerminatingCallback@CWndPlugin@@UEAAJPEAVITSAsyncResult@@_K@Z
001016AC ?Invoke@OnAltSecPDUReceivedAsyncTerminatingCallback@CWndPlugin@@UEAAJPEAVITSAsyncResult@@_K@Z
00101704 ?Invoke@OnVcPacket_WindowingInfoAsyncTerminatingCallback@CWndPlugin@@UEAAJPEAVITSAsyncResult@@_K@Z
0010175C ?Invoke@OnVcPacket_TrayInfoAsyncTerminatingCallback@CWndPlugin@@UEAAJPEAVITSAsyncResult@@_K@Z
0010178C ?DecodeLengthAndString@CWndPluginDecode@@QEAAJGPEAGPEAPEFAG@Z
0010186C ?IsMatch@CFindWindowInfo@@UEAAHPEBVCTSWindowInformation@@@Z
00101894 ?IsMatch@CFindShellNotify@@UEAAHPEBVCTSShellNotifyInformation@@@Z
001018DC ??0CWndPlugin@@QEAA@PEAUIUnknown@@@Z
00101C08 ??_GCWndPlugin@@MEAAPEAXI@Z
00101C40 ??1CWndPlugin@@MEAA@XZ
00101EEC ?Initialize@CWndPlugin@@UEAAJXZ
00102028 ?Terminate@CWndPlugin@@UEAAJXZ
001020EC ?OnInitialize@CWndPlugin@@MEAAJPEAVITSAsyncResult@@_K@Z
00102538 ?OnTerminate@CWndPlugin@@MEAAJPEAVITSAsyncResult@@_K@Z
001027F4 ?OnSendingCaps@CWndPlugin@@MEAAJPEAVITSAsyncResult@@_K@Z
00102A88 ?OnReceivedCaps@CWndPlugin@@MEAAJPEAVITSAsyncResult@@_K@Z
00102D80 ?OnAltSecPDUReceived@CWndPlugin@@MEAAJPEAVITSAsyncResult@@_K@Z
00102F48 ?OnWindowOrder@CWndPlugin@@IEAAJPEBUtagTS_WINDOW_ORDER@@IPEAI@Z
00103084 ?DecodeWindowInformation@CWndPlugin@@IEAAJIPEAVCWndPluginDecode@@@Z
00104474 ?FireWindowChangedEvent@CWndPlugin@@QEAAJPEAVCTSWindowInformation@@@Z
0010453C ?DecodeShellNotifyInformation@CWndPlugin@@IEAAJIPEAVCWndPluginDecode@@@Z
00104F68 ?FireShellNotifyChangedEvent@CWndPlugin@@QEAAJPEAVCTSShellNotifyInformation@@@Z
001050C4 ?DecodeDesktopInformation@CWndPlugin@@IEAAJIPEAVCWndPluginDecode@@@Z
001051A4 ?DecodeIconOrder@CWndPlugin@@IEAAJPEAVCWndPluginDecode@@PEAUtagWndPluginIcon@@@Z
00105600 ?CreateShellNotifyInfo@CWndPlugin@@IEAAJKKPEAPEAVCTSShellNotifyInformation@@@Z
00105814 ?CreateWindowInfo@CWndPlugin@@IEAAJKPEAPEAVCTSWindowInformation@@@Z
00105A24 ?FindShellNotifyInfo@CWndPlugin@@IEAAJKKPEAPEAVCTSShellNotifyInformation@@@Z
00105AC8 ?FindWindowInfo@CWndPlugin@@IEAAJKPEAPEAVCTSWindowInformation@@@Z
00105B68 ?DeleteWindowInfo@CWndPlugin@@IEAAJPEAVCTSWindowInformation@@@Z
00105CA8 ?SetDesktopIsHooked@CWndPlugin@@IEAAJH@Z
00105FA8 ?OnDesktopArcCompleted@CWndPlugin@@IEAAJXZ
001061A4 ?OnArcDimmingStart@CWndPlugin@@MEAAJPEAVITSAsyncResult@@_K@Z
00106234 ?FindFirstWindowIdFromTitle@CWndPlugin@@UEBAJPEAGKPEAK@Z
00106430 ?EnumWindowInformation@CWndPlugin@@UEAAJPEAPEAVITSEnumWndBase@@@Z
00106600 ?EnumShellNotifyInformation@CWndPlugin@@UEAAJPEAPEAVITSEnumWndBase@@@Z
001067D0 ?OnVcPacket_WindowingInfo@CWndPlugin@@MEAAJPEAVITSAsyncResult@@_K@Z
001068C4 ?OnVcPacket_TrayInfo@CWndPlugin@@MEAAJPEAVITSAsyncResult@@_K@Z
001069B8 ?OnVcOpened@CWndPlugin@@MEAAJPEAVITSAsyncResult@@_K@Z
00106E30 ?OnWindowRailPdu@CWndPlugin@@IEAAJPEAUtagTS_WINDOW_ORDER@@I@Z
00106EE0 ?InternalHandleStringProp@?$CWndBase@VITSShellNotifyInformation@@@@AEAAJPEFBGIPEAGI@Z
00106FD8 ?NonDelegatingQueryInterface@CTSWindowInformation@@UEAAJAEBU_GUID@@PEAPEAX@Z
001071B0 ?GetWndTitle@CTSWindowInformation@@UEBAJPEAGI@Z
00107390 ?GetWndRect@CTSWindowInformation@@UEBAJPEAUtagRECT@@PEAH@Z
001073E4 ?GetWndRgn@CTSWindowInformation@@UEBAJPEAUHRGN__@@@Z
00107498 ?GetWndVisibleRgn@CTSWindowInformation@@UEBAJPEAUHRGN__@@@Z
001075E4 ??0CTSWindowInformation@@IEAA@KPEAVITSWin32CoreApi@@PEAVCWndPlugin@@@Z
0010773C ??_GCTSWindowInformation@@MEAAPEAXI@Z
00107774 ??1CTSWindowInformation@@MEAA@XZ
00107850 ?Initialize@CTSWindowInformation@@UEAAJXZ
0010791C ?Terminate@CTSWindowInformation@@UEAAJXZ
001079AC ?GetForeground@CTSWindowInformation@@UEBAHXZ
00107A04 ?GetActive@CTSWindowInformation@@UEBAHXZ
00107A58 ?SetRects@CTSWindowInformation@@QEAAJIIPEFAUtagTS_RECTANGLE16@@PEAVCTSRegion@@@Z
00107CCC ??_E?$CWndBase@VITSWindowInformation@@@@MEAAPEAXI@Z
00107D6C WPP_SF_DID
00107DD0 WPP_SF_ID
00107E28 WPP_SF_sddDD
00107F00 WPP_SF_sdddddd
00108008 ??_ECWndIconCache@@UEAAPEAXI@Z
00108040 ??1CWndIconCache@@UEAA@XZ
001080F8 ?Initialize@CWndIconCache@@QEAAJII@Z
0010825C ?OnCacheIcon@CWndIconCache@@SAJPEAV1@IIEIIPEAXI1I1IPEAPEAUHICON__@@@Z
0010861C ?OnCachedIcon@CWndIconCache@@SAJPEAV1@IIPEAPEAUHICON__@@@Z
0010874C ?ValidateIconCacheCommand@CWndIconCache@@AEAAJEG@Z
001087F0 ?CreateWndIcon@CWndIconCache@@CAJEIIPEAXI0I0IPEAPEAUHICON__@@@Z
00108C14 ?CreateBitmapFromIconData@CWndIconCache@@CAJEIIIPEAXI0PEAPEAUHBITMAP__@@@Z
00108E14 ?AddToCache@CWndIconCache@@AEAAJPEAUHICON__@@II@Z
00108F64 ?NonDelegatingQueryInterface@CWndZOrder@@UEAAJAEBU_GUID@@PEAPEAX@Z
00109084 ?CreateInstance@CWndZOrder@@SAJPEAVITSWin32CoreApi@@PEAPEAV1@@Z
00109198 ??0CWndZOrder@@IEAA@PEAVITSWin32CoreApi@@@Z
001092B0 ??_GCWndZOrder@@MEAAPEAXI@Z
001092E8 ??1CWndZOrder@@MEAA@XZ
001093A0 ?Initialize@CWndZOrder@@UEAAJXZ
0010947C ?Terminate@CWndZOrder@@UEAAJXZ
00109540 ?DecodeZOrderInformation@CWndZOrder@@QEAAJPEAVCWndPluginDecode@@I@Z
001097C8 ?Terminate@?$CWndBase@VITSWindowInformation@@@@MEAAJXZ
00109804 ??_G?$CWndBase@VITSZOrder@@@@MEAAPEAXI@Z
001098A4 ?NonDelegatingQueryInterface@CTSShellNotifyInformation@@UEAAJAEBU_GUID@@PEAPEAX@Z
001099B4 ??_E?$CWndBase@VITSShellNotifyInformation@@@@MEAAPEAXI@Z
00109A74 ?GetTip@CTSShellNotifyInformation@@UEBAJPEAGI@Z
00109AB4 ?GetInfo@CTSShellNotifyInformation@@UEBAJPEAI0PEAGI1I@Z
00109B6C ??0CTSShellNotifyInformation@@IEAA@KIPEAVITSWin32CoreApi@@@Z
00109C98 ?Terminate@CTSShellNotifyInformation@@UEAAJXZ
00109D00 ?NonDelegatingQueryInterface@CEnumWndBase@@UEAAJAEBU_GUID@@PEAPEAX@Z
00109DD4 ?Next@CEnumWndBase@@UEAAJPEAPEAVITSWndBase@@@Z
00109EB0 ??_GCEnumWndBase@@MEAAPEAXI@Z
00109EE8 ??1CEnumWndBase@@MEAA@XZ
00109F8C ?Initialize@CEnumWndBase@@IEAAJI@Z
00109FF8 ?Terminate@CEnumWndBase@@MEAAJXZ
0010A07C ?Invoke@OnTerminateAsyncTerminatingCallback@CCompDeskPlugin@@UEAAJPEAVITSAsyncResult@@_K@Z
0010A200 ??0CCompDeskPlugin@@QEAA@PEAUIUnknown@@@Z
0010A5B4 ??_GCCompDeskPlugin@@UEAAPEAXI@Z
0010A5EC ??1CCompDeskPlugin@@UEAA@XZ
0010A7CC ?Initialize@CCompDeskPlugin@@UEAAJXZ
0010A8E0 ?Terminate@CCompDeskPlugin@@UEAAJXZ
0010A9A8 ?OnInitialize@CCompDeskPlugin@@UEAAJPEAVITSAsyncResult@@_K@Z
0010B328 ?OnTerminate@CCompDeskPlugin@@UEAAJPEAVITSAsyncResult@@_K@Z
0010B658 ?sWndProc@CCompDeskPlugin@@CA_JPEAUHWND__@@I_K_J@Z
0010B704 ?OnSendingCaps@CCompDeskPlugin@@UEAAJPEAVITSAsyncResult@@_K@Z
0010B84C ?OnReceivedCaps@CCompDeskPlugin@@UEAAJPEAVITSAsyncResult@@_K@Z
0010BA34 ?OnAltSecPDUReceived@CCompDeskPlugin@@UEAAJPEAVITSAsyncResult@@_K@Z
0010BC80 ?InitCompDesk@CCompDeskPlugin@@QEAAHXZ
0010C124 ?OnMainWindowSizeChangeImp@CCompDeskPlugin@@QEAAJKPEAVITSAsyncResult@@_K@Z
0010C37C ?OnMilHostingNotify@CCompDeskPlugin@@UEAAJPEAVITSAsyncResult@@_K@Z
0010C490 ?ProcessCompDeskToggle@CCompDeskPlugin@@AEAAJPEAUtagTS_COMPDESK_TOGGLE@@@Z
0010CB50 ?NonDelegatingQueryInterface@CCompDeskRegion_Vista@@UEAAJAEBU_GUID@@PEAPEAX@Z
0010CBF8 ?NonDelegatingQueryInterface@CCompDeskPlugin@@UEAAJAEBU_GUID@@PEAPEAX@Z
0010CE6C ?fIsVista@@YAHXZ
0010CED4 ??_GCCompDeskRegion_Vista@@UEAAPEAXI@Z
0010CF50 ?Terminate@CCompDeskRegion@@UEAAJXZ
0010CFA0 ?GetDirtyRegion@CCompDeskRegion_Vista@@QEAAJPEA_K0PEAH@Z
0010D14C ?AddRegion@CCompDeskRegion@@UEAAHPEAX@Z
0010D1D8 ?Flush@CCompDeskRegion_Vista@@UEAAXXZ
0010D28C ?SetOwningRedirSurface@CCompDeskRegion_Vista@@QEAAXPEAVCRedirectionSurface_Vista@@@Z
0010D2D0 ??_ECRedirectionSurface_Vista@@UEAAPEAXI@Z
0010D3C0 ?GetSurfaceData@CRedirectionSurface_Vista@@UEAAJPEAPEAXPEAPEAUHBITMAP__@@0PEAI2@Z
0010D530 ?GetSurfaceData@CRedirectionSurface_Vista@@UEAAJPEA_K0PEAK1@Z
0010D6A0 ?GetDirtyRegion@CRedirectionSurface_Vista@@UEAAJ_KPEA_K1PEAH@Z
0010D794 ??0CCompDeskPlugin_Vista@@QEAA@PEAUIUnknown@@@Z
0010DB68 ??_GCCompDeskPlugin_Vista@@UEAAPEAXI@Z
0010DBA0 ??1CCompDeskPlugin_Vista@@UEAA@XZ
0010DDBC ?Initialize@CCompDeskPlugin_Vista@@UEAAJXZ
0010E784 ?Terminate@CCompDeskPlugin_Vista@@UEAAJXZ
0010EACC ?sWndProc@CCompDeskPlugin_Vista@@CA_JPEAUHWND__@@I_K_J@Z
0010EB78 ?OnSendingCaps@CCompDeskPlugin_Vista@@UEAAJPEAVITSAsyncResult@@_K@Z
0010EC84 ?OnReceivedCaps@CCompDeskPlugin_Vista@@UEAAJPEAVITSAsyncResult@@_K@Z
0010EE28 ?OnAltSecPDUReceived@CCompDeskPlugin_Vista@@UEAAJPEAVITSAsyncResult@@_K@Z
0010EFC8 ?InitCompDesk@CCompDeskPlugin_Vista@@QEAAHXZ
0010F370 ?OnMainWindowSizeChangeImp@CCompDeskPlugin_Vista@@QEAAJKPEAVITSAsyncResult@@_K@Z
0010F590 ?OnMilHostingNotify@CCompDeskPlugin_Vista@@UEAAJPEAVITSAsyncResult@@_K@Z
0010F66C ?DrawCompDeskPDU@CCompDeskPlugin_Vista@@QEAAJPEAUtagTS_COMPDESK_ORDER_VISTA@@IPEAI@Z
0010F82C ?ProcessCompDeskToggle@CCompDeskPlugin_Vista@@AEAAJPEAUtagTS_COMPDESK_VISTA_TOGGLE@@@Z
0010FF38 ?RemoveDibHolder@CCompDeskPlugin_Vista@@QEAAXPEAVCRedirectionSurface_Vista@@H@Z
0011000C ?ProcessVisualCache@CCompDeskPlugin_Vista@@AEAAJPEAUtagTS_COMPDESK_VISTA_VISUAL_CACHE@@@Z
001102C4 ?ProcessSpriteCache@CCompDeskPlugin_Vista@@AEAAJPEAUtagTS_COMPDESK_VISTA_SPRITE_CACHE@@@Z
0011098C ?ProcessSwitchSprite@CCompDeskPlugin_Vista@@AEAAJPEAUtagTS_COMPDESK_VISTA_SWITCH_SPRITE@@@Z
00110BA4 ?ProcessFlushComposeOnce@CCompDeskPlugin_Vista@@AEAAJPEAUtagTS_COMPDESK_VISTA_FLUSH_COMPOSEONCE@@@Z
00110CBC ?GetRedirSurface@CCompDeskPlugin_Vista@@UEAAJ_KPEAPEAUITsMilRedirectedGDISurface@@@Z
00110E1C ?GetRedirSurfaceByHwnd@CCompDeskPlugin_Vista@@UEAAJ_KPEAPEAUICLXRedirectedGDISurface@@@Z
00110FEC ?NonDelegatingQueryInterface@CClipPlugin@@UEAAJAEBU_GUID@@PEAPEAX@Z
00111128 ?TSCCLIP_InitEventFnEx@@YAXPEAX0I0I@Z
001111A0 TSCCLIP_VirtualChannelEntryEx
00111334 ??0CClipPlugin@@QEAA@PEAUIUnknown@@@Z
0011140C ??_GCClipPlugin@@MEAAPEAXI@Z
00111444 ??1CClipPlugin@@MEAA@XZ
001114E0 ?Initialize@CClipPlugin@@UEAAJXZ
0011153C ?CreateClipClient@CClipPlugin@@UEAAJPEAXPEAUtagCHANNEL_ENTRY_POINTS_EX@@@Z
001116B0 ?ReleaseClipClient@CClipPlugin@@UEAAXXZ
001116F8 ?InitEventFnEx@CClipPlugin@@UEAAXPEAXI0I@Z
00111720 ?OpenEventFnEx@CClipPlugin@@UEAAXKIPEAXIII@Z
00111778 ?TRC_DBG_FROM_MACRO@@YAXPEBGZZ
00111870 ?Invoke@OnClipCapsAsyncCallback@CClipClient@@UEAAJPEAVITSAsyncResult@@_K@Z
00111A2C ?Invoke@OnFormatListAsyncCallback@CClipClient@@UEAAJPEAVITSAsyncResult@@_K@Z
00111B7C WPP_SF_qs
00111C24 ??0CClipClient@@IEAA@PEAVITSInstance@@PEAXPEAUtagCHANNEL_ENTRY_POINTS_EX@@PEBG@Z
00111F38 ??_ECClipClient@@MEAAPEAXI@Z
00111F70 ??1CClipBase@@UEAA@XZ
00112188 ??1CClipClient@@MEAA@XZ
00112248 ?CreateInstance@CClipClient@@SAJPEAVITSInstance@@PEAXPEAUtagCHANNEL_ENTRY_POINTS_EX@@PEBGPEAPEAV1@@Z
001123A4 ?InitEventFnEx@CClipClient@@QEAAXPEAXI0I@Z
001125AC ?Initialize@CClipClient@@MEAAJXZ
00112AC8 ?Terminate@CClipClient@@UEAAJXZ
00112C50 ?BindNotificationSinks@CClipClient@@EEAAJXZ
00112DEC ?RemoveNotificationSinks@CClipClient@@EEAAJXZ
00112F40 ?OpenEventFnEx@CClipClient@@QEAAXKIPEAXIII@Z
00113148 ?StaticOpenEventFnEx@CClipClient@@CAXPEAXKI0III@Z
001131F4 ?ClipThreadMain@CClipClient@@EEAAXXZ
00113390 ?StaticClipThreadMain@CClipClient@@CAXPEAX@Z
0011340C ?ClipThreadWndProc@CClipClient@@AEAA_JPEAUHWND__@@I_K_J@Z
001135C8 ?StaticWndProc@CClipClient@@CA_JPEAUHWND__@@I_K_J@Z
00113684 ?OnConnected@CClipClient@@EEAAJXZ
001137D8 ?OnDisconnected@CClipClient@@EEAAJXZ
001138A0 ?OnMonitorReady@CClipClient@@AEAAJPEAVITSAsyncResult@@_K@Z
00113B04 ?SendTempDirectory@CClipClient@@AEAAJXZ
00113C5C ?IsClipboardRedirectionEnabled@CClipClient@@AEAAHXZ
00113DC4 ?IsDriveRedirectionEnabled@CClipClient@@AEAAHG@Z
001140A4 ??0CClientClipRdrPduDispatcher@@IEAA@PEAVITSCoreEvents@@@Z
0011419C ??_GCClientClipRdrPduDispatcher@@MEAAPEAXI@Z
001141D4 ??1CClientClipRdrPduDispatcher@@MEAA@XZ
00114270 ?CreateInstance@CClientClipRdrPduDispatcher@@SAJPEAVITSCoreEvents@@PEAPEAVIRdrPduDispatcher@@@Z
00114378 ?Initialize@CClientClipRdrPduDispatcher@@MEAAJXZ
00114420 ?Terminate@CClientClipRdrPduDispatcher@@MEAAJXZ
001144F4 ?DispatchPdu@CClientClipRdrPduDispatcher@@UEAAJPEFAUtagTS_CLIP_PDU@@K@Z
001145EC ?QueryInterface@OnArcEndAsyncTerminatingCallback@CRailPlugin@@UEAAJAEBU_GUID@@PEAPEAX@Z
001146A0 ?Invoke@OnLockClipDataAsyncCallback@CClipBase@@UEAAJPEAVITSAsyncResult@@_K@Z
001147C0 ?Invoke@OnUnlockClipDataAsyncCallback@CClipBase@@UEAAJPEAVITSAsyncResult@@_K@Z
001148CC ?ResetFormatDataEvents@CClipBase@@QEAAJXZ
001149AC ?GetFormatDataEvents@CClipBase@@UEAAJPEAPEAPEAXPEAI@Z
00114A40 ?GetStreamDataEvents@CClipBase@@UEAAJPEAPEAPEAXPEAI@Z
00114AD4 ?SetState@CClipBase@@UEAAXEE@Z
00114B94 ?Initialize@CClipBase@@MEAAJXZ
00114D6C ?Terminate@CClipBase@@MEAAJXZ
00115028 ?BindNotificationSinks@CClipBase@@MEAAJXZ
00115310 ?RemoveNotificationSinks@CClipBase@@MEAAJXZ
001154B4 ?CreateGetDataEvents@CClipBase@@AEAAJXZ
00115590 ?ClipOwnsClipboard@CClipBase@@IEAAHXZ
001155F4 ?PutTSPrivateDataOnClipboard@CClipBase@@IEAAJXZ
001157F8 ?OnDisconnected@CClipBase@@MEAAJXZ
00115880 ?OnClipCaps@CClipBase@@MEAAJPEFAUtagTS_CLIP_PDU@@@Z
00115A80 ?OnFormatList@CClipBase@@MEAAJPEFAUtagTS_CLIP_PDU@@@Z
00116180 ?OnFormatListResponse@CClipBase@@AEAAJPEAVITSAsyncResult@@_K@Z
0011637C ?OnDrawClipboard@CClipBase@@MEAAJXZ
001165BC ?OnFormatDataRequest@CClipBase@@AEAAJPEAVITSAsyncResult@@_K@Z
00116AEC ?OnFormatDataResponse@CClipBase@@AEAAJPEAVITSAsyncResult@@_K@Z
00116D54 ?OnFileContentsRequest@CClipBase@@AEAAJPEAVITSAsyncResult@@_K@Z
00117194 ?OnFileContentsResponse@CClipBase@@AEAAJPEAVITSAsyncResult@@_K@Z
00117470 ?SendClipCaps@CClipBase@@IEAAJXZ
00117710 ?SendFormatList@CClipBase@@IEAAJXZ
00117B2C ?SendFormatDataRequest@CClipBase@@UEAAJI@Z
00117DD0 ?SendFormatDataResponse@CClipBase@@AEAAJPEAXG@Z
00117FD4 ?SendFileContentsRequest@CClipBase@@UEAAJKJJKKKK@Z
00118274 ?SendFileContentsResponse@CClipBase@@AEAAJPEFAUtagTS_CLIP_PDU@@JKG@Z
001183D8 ?LockClipData@CClipBase@@UEAAJK@Z
001184F8 ?UnlockClipData@CClipBase@@UEAAJK@Z
00118648 ?DetachFromSystemClipboard@CClipBase@@IEAAXXZ
00118728 ?AddAt@?$SmartArray@VCFileContentsReaderManager@@K@@QEAAHKPEAVCFileContentsReaderManager@@@Z
0011886C ?NonDelegatingQueryInterface@CClipUpdateHandler@@UEAAJAEBU_GUID@@PEAPEAX@Z
00118964 ??0CClipUpdateHandler@@IEAA@PEBD@Z
001189F8 ??_ECClipUpdateHandler@@MEAAPEAXI@Z
00118A58 ?FormatIdExists@CClipUpdateHandler@@UEAAHI@Z
00118ABC ??_GCLegacyClipUpdateHandler@@MEAAPEAXI@Z
00118AF4 ??1CLegacyClipUpdateHandler@@MEAA@XZ
00118BA8 ?CreateInstance@CLegacyClipUpdateHandler@@SAJPEAPEAVCClipUpdateHandler@@@Z
00118D24 ?RegisterForUpdateNotifications@CLegacyClipUpdateHandler@@UEAAJPEAUHWND__@@@Z
00118DC4 ?UnregisterFromUpdateNotifications@CLegacyClipUpdateHandler@@UEAAJPEAUHWND__@@@Z
00118E18 ?OnClipboardUpdated@CLegacyClipUpdateHandler@@UEAAJPEAH@Z
00118ED4 ?OnClipboardUpdateHandlerCompleted@CLegacyClipUpdateHandler@@UEAAJXZ
00118F68 ?OnClipboardChainUpdated@CLegacyClipUpdateHandler@@UEAAJPEAUHWND__@@0@Z
00118FD4 ?BeginFormatIdEnumeration@CLegacyClipUpdateHandler@@UEAAJXZ
0011909C ?SnapShotClipboard@CLegacyClipUpdateHandler@@MEAAJXZ
00119214 ?FillClipFormatIdBuffer@CLegacyClipUpdateHandler@@IEAAJPEAII@Z
00119364 ??_GCReliableClipUpdateHandler@@MEAAPEAXI@Z
0011939C ??1CReliableClipUpdateHandler@@MEAA@XZ
00119494 ?CreateInstance@CReliableClipUpdateHandler@@SAJPEAPEAVCClipUpdateHandler@@@Z
0011965C ?RegisterForUpdateNotifications@CReliableClipUpdateHandler@@UEAAJPEAUHWND__@@@Z
00119734 ?UnregisterFromUpdateNotifications@CReliableClipUpdateHandler@@UEAAJPEAUHWND__@@@Z
001197B4 ?OnClipboardUpdated@CReliableClipUpdateHandler@@UEAAJPEAH@Z
0011985C ?OnClipboardUpdateHandlerCompleted@CReliableClipUpdateHandler@@UEAAJXZ
001198B8 ?BeginFormatIdEnumeration@CReliableClipUpdateHandler@@UEAAJXZ
00119934 ?SnapShotClipboard@CReliableClipUpdateHandler@@MEAAJXZ
00119AFC ?ClearClipboardSnapShot@CLegacyClipUpdateHandler@@MEAAJXZ
00119B54 ??_ECClipReliableClipFunctions@@MEAAPEAXI@Z
00119C04 ?CreateInstance@CClipReliableClipFunctions@@SAJPEAPEAV1@@Z
00119D48 ?Initialize@CClipReliableClipFunctions@@MEAAJXZ
00119E38 ?Terminate@CClipReliableClipFunctions@@MEAAJXZ
00119EC8 ??_GCDxAdapter@@QEAAPEAXI@Z
00119FA8 ?OnDataReceived@CDxVirtualChannelCallback@@UEAAJKQEAE@Z
0011A030 ?OnClose@CDxVirtualChannelCallback@@UEAAJXZ
0011A080 ??_ECDxPlugin@@UEAAPEAXI@Z
0011A1A0 ?Initialize@CDxPlugin@@UEAAJPEAUIWTSVirtualChannelManager@@@Z
0011A494 ?Connected@CDxPlugin@@UEAAJXZ
0011A5C4 ?Terminated@CDxPlugin@@UEAAJXZ
0011A634 ?put_SurfaceBinding@CDxPlugin@@UEAAJPEAUIUnknown@@@Z
0011A728 ?OnNewChannelConnection@CDxPlugin@@UEAAJPEAUIWTSVirtualChannel@@PEAGPEAHPEAPEAUIWTSVirtualChannelCallback@@@Z
0011A88C ?TSDX_VirtualChannelGetInstance@@YAJAEBU_GUID@@PEAKPEAPEAX@Z
0011AA40 ?NonDelegatingQueryInterface@CDxPlugin@@UEAAJAEBU_GUID@@PEAPEAX@Z
0011AAE8 ?Release@CDxVirtualChannelCallback@@UEAAKXZ
0011AB74 ?AllocHandle@CDxAdapter@@AEAAJPEAXIW4_HMGRENTRY_TYPE@@@Z
0011ACF0 ?FreeBlitResources@CDxAdapter@@AEAAXPEAUIDXGISwapChain@@@Z
0011AD90 ?FreeHandle@CDxAdapter@@AEAAXI@Z
0011AEC4 ?SendResponse@CDxAdapter@@AEAAJW4_D3DCMD_CODE@@JPEAX_K@Z
0011AF24 ?SendErrorEvent@CDxAdapter@@AEAAJJI@Z
0011B12C ?ProcessCommands@CDxAdapter@@QEAAJPEAEI@Z
0011B324 ?ProcessQueryCapabilities@CDxAdapter@@AEAAJPEAXPEAI1PEAJ@Z
0011B4AC ?ProcessQueryInterface@CDxAdapter@@AEAAJPEAXPEAI1PEAJ@Z
0011B5A4 ?ProcessRelease@CDxAdapter@@AEAAJPEAXPEAI1PEAJ@Z
0011B648 ?ProcessCreateDevice@CDxAdapter@@AEAAJPEAXPEAI1PEAJ@Z
0011B8E4 ?ProcessSetActiveDevice@CDxAdapter@@AEAAJPEAXPEAI1PEAJ@Z
0011B974 ?ProcessCheckMultisampleQualityLevels@CDxAdapter@@AEAAJPEAXPEAI1PEAJ@Z
0011BA2C ?ProcessClearDepthStencilView@CDxAdapter@@AEAAJPEAXPEAI1PEAJ@Z
0011BAF0 ?ProcessClearRenderTargetView@CDxAdapter@@AEAAJPEAXPEAI1PEAJ@Z
0011BBA0 ?ProcessClearState@CDxAdapter@@AEAAJPEAXPEAI1PEAJ@Z
0011BC08 ?ProcessCopyResource@CDxAdapter@@AEAAJPEAXPEAI1PEAJ@Z
0011BCE8 ?ProcessCopySubresourceRegion@CDxAdapter@@AEAAJPEAXPEAI1PEAJ@Z
0011BE50 ?ProcessCreateBlendState@CDxAdapter@@AEAAJPEAXPEAI1PEAJ@Z
0011BFE0 ?ProcessCreateBuffer@CDxAdapter@@AEAAJPEAXPEAI1PEAJ@Z
0011C250 ?ProcessCreateDepthStencilState@CDxAdapter@@AEAAJPEAXPEAI1PEAJ@Z
0011C3A4 ?ProcessCreateGeometryShaderWithStreamOutput@CDxAdapter@@AEAAJPEAXPEAI1PEAJ@Z
0011C5E8 ?ProcessCreateInputLayout@CDxAdapter@@AEAAJPEAXPEAI1PEAJ@Z
0011C824 ?ProcessCreateQuery@CDxAdapter@@AEAAJPEAXPEAI1PEAJ@Z
0011C918 ?ProcessCreateRasterizerState@CDxAdapter@@AEAAJPEAXPEAI1PEAJ@Z
0011CA50 ?ProcessCreateSamplerState@CDxAdapter@@AEAAJPEAXPEAI1PEAJ@Z
0011CBA0 ?ProcessCreateShader@CDxAdapter@@AEAAJPEAXPEAI1PEAJ@Z
0011CCD8 ?ProcessCreateTexture@CDxAdapter@@AEAAJPEAXPEAI1PEAJ@Z
0011D2DC ?ProcessCreateView@CDxAdapter@@AEAAJPEAXPEAI1PEAJ@Z
0011D5BC ?ProcessDraw@CDxAdapter@@AEAAJPEAXPEAI1PEAJ@Z
0011D63C ?ProcessDrawAuto@CDxAdapter@@AEAAJPEAXPEAI1PEAJ@Z
0011D6A4 ?ProcessDrawIndexed@CDxAdapter@@AEAAJPEAXPEAI1PEAJ@Z
0011D728 ?ProcessDrawIndexedInstanced@CDxAdapter@@AEAAJPEAXPEAI1PEAJ@Z
0011D7C0 ?ProcessDrawInstanced@CDxAdapter@@AEAAJPEAXPEAI1PEAJ@Z
0011D850 ?ProcessFlush@CDxAdapter@@AEAAJPEAXPEAI1PEAJ@Z
0011D8B8 ?ProcessGenerateMips@CDxAdapter@@AEAAJPEAXPEAI1PEAJ@Z
0011D964 ?ProcessIASetIndexBuffer@CDxAdapter@@AEAAJPEAXPEAI1PEAJ@Z
0011DA18 ?ProcessIASetInputLayout@CDxAdapter@@AEAAJPEAXPEAI1PEAJ@Z
0011DAC4 ?ProcessIASetPrimitiveTopology@CDxAdapter@@AEAAJPEAXPEAI1PEAJ@Z
0011DB44 ?ProcessIASetVertexBuffers@CDxAdapter@@AEAAJPEAXPEAI1PEAJ@Z
0011DCA8 ?ProcessOMSetBlendState@CDxAdapter@@AEAAJPEAXPEAI1PEAJ@Z
0011DD98 ?ProcessOMSetDepthStencilState@CDxAdapter@@AEAAJPEAXPEAI1PEAJ@Z
0011DE48 ?ProcessOMSetRenderTargets@CDxAdapter@@AEAAJPEAXPEAI1PEAJ@Z
0011DFB8 ?ProcessResolveSubresource@CDxAdapter@@AEAAJPEAXPEAI1PEAJ@Z
0011E0B0 ?ProcessRSSetScissorRects@CDxAdapter@@AEAAJPEAXPEAI1PEAJ@Z
0011E150 ?ProcessRSSetState@CDxAdapter@@AEAAJPEAXPEAI1PEAJ@Z
0011E1FC ?ProcessRSSetViewports@CDxAdapter@@AEAAJPEAXPEAI1PEAJ@Z
0011E2A4 ?ProcessSetPredication@CDxAdapter@@AEAAJPEAXPEAI1PEAJ@Z
0011E358 ?ProcessSetShader@CDxAdapter@@AEAAJPEAXPEAI1PEAJ@Z
0011E498 ?ProcessSetSlots@CDxAdapter@@AEAAJPEAXPEAI1PEAJ@Z
0011E774 ?ProcessSetTextFilterSize@CDxAdapter@@AEAAJPEAXPEAI1PEAJ@Z
0011E7F8 ?ProcessSOSetTargets@CDxAdapter@@AEAAJPEAXPEAI1PEAJ@Z
0011E940 ?ProcessUpdateSubresource@CDxAdapter@@AEAAJPEAXPEAI1PEAJ@Z
0011ECD4 ?ProcessAsyncOrder@CDxAdapter@@AEAAJPEAXPEAI1PEAJ@Z
0011ED74 ?ProcessAsyncGetData@CDxAdapter@@AEAAJPEAXPEAI1PEAJ@Z
0011EF00 ?ProcessMap@CDxAdapter@@AEAAJPEAXPEAI1PEAJ@Z
0011F798 ?ProcessSetEvictionPriority@CDxAdapter@@AEAAJPEAXPEAI1PEAJ@Z
0011F828 ?ProcessCreateFactory@CDxAdapter@@AEAAJPEAXPEAI1PEAJ@Z
0011F9C8 ?ProcessCreateSwapChain@CDxAdapter@@AEAAJPEAXPEAI1PEAJ@Z
0011FC54 ?ProcessEnumObjects@CDxAdapter@@AEAAJPEAXPEAI1PEAJ@Z
0011FF70 ?ProcessGetAdapter@CDxAdapter@@AEAAJPEAXPEAI1PEAJ@Z
00120044 ?ProcessSetGPUThreadPriority@CDxAdapter@@AEAAJPEAXPEAI1PEAJ@Z
001200D0 ?ProcessSwapChainGetBuffer@CDxAdapter@@AEAAJPEAXPEAI1PEAJ@Z
001201B0 ?ProcessSwapChainPresent@CDxAdapter@@AEAAJPEAXPEAI1PEAJ@Z
001204A0 ?ProcessSwapChainResizeBuffers@CDxAdapter@@AEAAJPEAXPEAI1PEAJ@Z
00120548 ?ReadTexture@CDxAdapter@@AEAAJPEAUID3D10Device1@@PEAUID3D10Texture2D@@@Z
0012062C ?PresentToSharedSurface@CDxAdapter@@AEAAJPEAUIDXGISwapChain@@_KUtagRECT@@@Z
00121438 ?CreateBlitResources@CDxAdapter@@AEAAJPEAUIDXGISwapChain@@M@Z
00121B4C ?ExpandTable@CHandleTable@@AEAAEXZ
00121C14 ?GetBoxInfo@@YAXW4DXGI_FORMAT@@PEAUD3D10_BOX@@PEAI2222@Z
00121CE8 ?GetResourceInfo@@YAXPEAUID3D10Resource@@IW4D3D10_RESOURCE_DIMENSION@@PEAW4DXGI_FORMAT@@PEAUD3D10_BOX@@@Z
00121E50 ??_GCRedirectionSurface@@UEAAPEAXI@Z
00121F4C ??_ECLogicalSurface@@UEAAPEAXI@Z
0012200C ?NonDelegatingQueryInterface@CSFMPlugin@@UEAAJAEBU_GUID@@PEAPEAX@Z
00122194 ?Invoke@OnCreateProxyWindowAsyncTerminatingCallback@CSFMPlugin@@UEAAJPEAVITSAsyncResult@@_K@Z
001221C0 ?Invoke@OnWindowInformationAsyncTerminatingCallback@CSFMPlugin@@UEAAJPEAVITSAsyncResult@@_K@Z
00122204 ?Invoke@OnRailWindowInformationAsyncTerminatingCallback@CSFMPlugin@@UEAAJPEAVITSAsyncResult@@_K@Z
00122234 ?Invoke@OnAltSecPDUReceivedAsyncTerminatingCallback@CSFMPlugin@@UEAAJPEAVITSAsyncResult@@_K@Z
00122264 WPP_SF_LLL
001222C4 WPP_SF_qdddd
0012233C WPP_SF_xdd
001223A0 ??_GCCompDeskRegion@@UEAAPEAXI@Z
0012241C ?Initialize@CCompDeskRegion@@QEAAJPEAVCRedirectionSurface@@@Z
00122530 ?GetDirtyRegion@CCompDeskRegion@@QEAAJHPEA_K0@Z
001226D4 ?Flush@CCompDeskRegion@@UEAAXXZ
0012272C ?GetSurfaceData@CRedirectionSurface@@QEAAJPEAPEAXPEAPEAUHBITMAP__@@0PEAI2@Z
001228AC ?GetSurfaceData@CRedirectionSurface@@QEAAJPEA_K0PEAK1PEAI@Z
00122AFC ?GetDirtyRegion@CRedirectionSurface@@QEAAJH_KPEA_K1@Z
00122BDC ?InitializeDXSharedSurface@CLogicalSurface@@QEAAJXZ
00122DB8 ?GetSurfaceData@CLogicalSurface@@UEAAJPEA_K0PEAK1PEAIPEAU_TsCommonLUID@@PEAPEAX@Z
00122FC0 ?AssociateSharedSurface@CLogicalSurface@@UEAAJPEAXIII@Z
00123040 ?GetDirtyRegion@CLogicalSurface@@UEAAJ_KPEA_K1PEAH@Z
00123200 ?RegisterForSignaling@CLogicalSurface@@UEAAJH@Z
0012326C ?OpenCompositorReference@CLogicalSurface@@UEAAJXZ
0012335C ?GetSurfaceData@CLogicalSurface@@UEAAJPEAPEAXPEAPEAUHBITMAP__@@0PEAI2@Z
001234D0 ??0CSFMPlugin@@QEAA@PEAUIUnknown@@@Z
00123764 ??_ECSFMPlugin@@EEAAPEAXI@Z
0012379C ??1CSFMPlugin@@EEAA@XZ
00123A4C ?GetDxDevice@CSFMPlugin@@UEAAJU_LUID@@PEAPEAUID3D10Device1@@@Z
00123FE4 ?Initialize@CSFMPlugin@@UEAAJXZ
001246EC ?Terminate@CSFMPlugin@@UEAAJXZ
001248E0 ?sRTWndProc@CSFMPlugin@@SA_JPEAUHWND__@@I_K_J@Z
00124978 ?ClearRedirSurfaceLists@CSFMPlugin@@AEAAXXZ
00124B04 ?ResetRenderTargetWindows@CSFMPlugin@@AEAAXXZ
00124BAC ?GetRailMode@CSFMPlugin@@AEAAHXZ
00124C5C ?IsMilCoreUpdated@CDynVCPlugin@@AEAAHXZ
00124D80 ?GetSpriteFlags@CSFMPlugin@@AEAAHPEAVCRedirectionSurface@@PEAK@Z
00124E18 ?RegisterRenderPlugin@CSFMPlugin@@UEAAJPEAUIWTSRenderPlugin@@@Z
00124E98 ?CreateRenderTargetWindow@CSFMPlugin@@UEAAJ_KPEAPEAUHWND__@@@Z
0012504C ?DetachFromRenderTargetWindow@CSFMPlugin@@UEAAJPEAUHWND__@@@Z
00125194 ?EnsureRenderTargetWindow@CSFMPlugin@@UEAAJPEAUHWND__@@@Z
00125314 ?FindRTWindow@CSFMPlugin@@AEAAJ_KPEAPEAUHWND__@@PEAPEAVCRenderTargetWindow@@@Z
001255C0 ?CreateProxyWindow@CSFMPlugin@@AEAAJ_K@Z
001257B8 ?NotifyRenderPlugin@CSFMPlugin@@AEAAJH@Z
00125810 ?DxGetSharedSurface@CSFMPlugin@@UEAAJ_KU_LUID@@PEAPEAXPEAI3PEAW4DXGI_FORMAT@@@Z
00125A08 ?FindSharedSurface@CSFMPlugin@@AEAAJ_KU_LUID@@PEAPEAXPEAI3PEAW4DXGI_FORMAT@@@Z
00125C40 ?DxUpdateSharedSurface@CSFMPlugin@@UEAAJ_KPEAXIPEAUtagRECT@@@Z
00125FF0 ?GetRenderTargetWindow@CSFMPlugin@@UEAAJ_KPEAPEAUHWND__@@@Z
00126104 ?IsTopParentRAILWindow@CSFMPlugin@@AEAAHPEAVITSWindowInformation@@PEAPEAV2@@Z
001262C8 ?OnWindowInformation@CSFMPlugin@@UEAAJPEAVITSAsyncResult@@_K@Z
001264F8 ?OnRailWindowInformation@CSFMPlugin@@UEAAJPEAVITSAsyncResult@@_K@Z
00126848 ?ProcessRenderTargetWindowInfo@CSFMPlugin@@AEAAJPEAVITSWindowInformation@@PEAUHWND__@@0H@Z
001276A4 ?CompDeskInit@CSFMPlugin@@UEAAJXZ
001276F8 ?CompDeskShutdown@CSFMPlugin@@UEAAJXZ
00127738 ?CompDeskToggle@CSFMPlugin@@UEAAJEW4_DRAWING_STATE@@W4_DESKTOP_STATE@@@Z
00127A44 ?OnAltSecPDUReceived@CSFMPlugin@@UEAAJPEAVITSAsyncResult@@_K@Z
00127BE8 ?ProcessCompDeskPDU@CSFMPlugin@@AEAAJPEAUtagTS_COMPDESK_ORDER@@IPEAI@Z
00127DA0 ?ProcessLSurface@CSFMPlugin@@AEAAJPEAUtagTS_COMPDESK_LSURFACE@@@Z
001281CC ?ProcessSurfObj@CSFMPlugin@@AEAAJPEAUtagTS_COMPDESK_SURFOBJ@@@Z
001288CC ?ProcessRedirSurfAssocLSurf@CSFMPlugin@@AEAAJPEAUtagTS_COMPDESK_REDIRSURF_ASSOC_LSURFACE@@@Z
00128CDC ?ProcessSwitchSurfObj@CSFMPlugin@@AEAAJPEAUtagTS_COMPDESK_SWITCH_SURFOBJ@@@Z
00128F4C ?ProcessFlushComposeOnce@CSFMPlugin@@AEAAJPEAUtagTS_COMPDESK_FLUSH_COMPOSEONCE@@@Z
001290A4 ?RemoveLSurface@CSFMPlugin@@QEAAXPEAVCLogicalSurface@@H@Z
0012918C ?RemoveRedirSurface@CSFMPlugin@@QEAAXPEAVCRedirectionSurface@@H@Z
00129274 ?ProcessCompositorRef@CSFMPlugin@@AEAAJPEAUtagTS_COMPDESK_LSURFACE_COMPREF_PENDING@@@Z
00129420 ?SetDirtyNotifyEvent@CSFMPlugin@@UEAAJPEAX@Z
00129514 ?GetPresentHistory@CSFMPlugin@@UEAAJIPEAEPEAI@Z
001297C4 ?RegisterSurfaceForSignalingWorker@CSFMPlugin@@QEAAJPEAVCLogicalSurface@@H@Z
00129894 ?GetRedirSurface@CSFMPlugin@@UEAAJ_KPEAPEAUITsDwmRedirectedGDISurface@@@Z
00129A60 ?GetRedirSurfaceByHwnd@CSFMPlugin@@UEAAJ_KPEAPEAUICLXRedirectedGDISurface@@@Z
00129C38 ?AppendGDIDirtyToken@CSFMPlugin@@QEAAJPEAVCRedirectionSurface@@@Z
00129FD8 ?AddCodec@CodecCapsManager@@QEAA_NAEBU_GUID@@EPEBXG@Z
0012A118 ?GetCodecPropertyFromCap@@YAPEFBUtagTS_BITMAP_CODEC_PROPERTY@@PEBUtagTS_BITMAP_CODEC_CAPABILITYSET@@AEBU_GUID@@@Z
0012A23C ?Invoke@DisconnectSessionAsyncTerminatingCallback@CCaGfxPlugin@@UEAAJPEAVITSAsyncResult@@_K@Z
0012A27C ?StaticRenderThreadMain@CCaGfxPlugin@@SAXPEAX@Z
0012A44C ?Invoke@OnBufferAvailableAsyncCallback@CCaGfxPlugin@@UEAAJPEAVITSAsyncResult@@_K@Z
0012A4CC ??0CCaGfxPlugin@@QEAA@PEAUIUnknown@@@Z
0012A674 ??_GCCaGfxPlugin@@EEAAPEAXI@Z
0012A6AC ??1CCaGfxPlugin@@EEAA@XZ
0012A85C ?Initialize@CCaGfxPlugin@@UEAAJXZ
0012AC68 ?Terminate@CCaGfxPlugin@@UEAAJXZ
0012AE1C ?GetWinSATAssessmentScore@CCaGfxPlugin@@AEAAJW4__MIDL___MIDL_itf_winsatcominterfacei_0000_0000_0003@@PEAM@Z
0012B09C ?SelectCacDecoderVariant@CCaGfxPlugin@@AEAAJPEAW4DecoderType@Cac@@@Z
0012B45C ?CreateHelpers@CCaGfxPlugin@@AEAAJPEAUtagTS_GFX_SIZE@@@Z
0012B6A0 ?DestroyHelpers@CCaGfxPlugin@@AEAAJXZ
0012B72C ?SendFrameAcknowledgePDU@CCaGfxPlugin@@QEAAJI@Z
0012B8D0 ?AsyncSendFrameAcknowledgePDU@CCaGfxPlugin@@UEAAJPEAVITSAsyncResult@@_K@Z
0012BB5C ?DisconnectSession@CCaGfxPlugin@@UEAAJPEAVITSAsyncResult@@_K@Z
0012BC68 ?OnSetSurfaceBits@CCaGfxPlugin@@AEAAJPEAUtagTS_SET_SURFACE_BITS_CMD@@@Z
0012C07C ?OnFrameMarker@CCaGfxPlugin@@AEAAJPEAUtagTS_FRAMEMARKER_CMD@@@Z
0012C2E8 ?OnSurfaceCommandsUpdate@CCaGfxPlugin@@AEAAJPEAEI@Z
0012C52C ?OnFastPathUpdate@CCaGfxPlugin@@QEAAJPEAVITSAsyncResult@@_K@Z
0012C820 ?OnReceivedCaps@CCaGfxPlugin@@QEAAJPEAVITSAsyncResult@@_K@Z
0012D2A8 ?Invoke@TestDeviceAsyncTerminatingCallback@CCaGfxProviderDx9@@UEAAJPEAVITSAsyncResult@@_K@Z
0012D2D4 ?Invoke@OnRepaintRegionAsyncTerminatingCallback@CCaGfxProviderDx9@@UEAAJPEAVITSAsyncResult@@_K@Z
0012D300 ?CreateInstance@CCaGfxProviderDx9@@SAJPEAVCCaGfxPlugin@@PEAUtagTS_GFX_SIZE@@PEAPEAVITscCaGfxContentProvider@@@Z
0012D4CC ??0CCaGfxProviderDx9@@IEAA@PEAVCCaGfxPlugin@@@Z
0012D6C4 ??_GCCaGfxProviderDx9@@MEAAPEAXI@Z
0012D6FC ??1CCaGfxProviderDx9@@MEAA@XZ
0012D8B4 ?Initialize@CCaGfxProviderDx9@@MEAAJPEAUtagTS_GFX_SIZE@@@Z
0012DE28 ?Terminate@CCaGfxProviderDx9@@UEAAJXZ
0012E128 ?GetShadowSurface@CCaGfxProviderDx9@@UEAAJPEAPEAXPEAH@Z
0012E22C ?GetScratchSurfaceBits@CCaGfxProviderDx9@@UEAAJPEAUtagTS_GFX_SIZE@@PEAPEAXPEAH@Z
0012E504 ?ReleaseScratchSurfaceBits@CCaGfxProviderDx9@@UEAAJXZ
0012E5A4 ?CopyFromScratchToShadow@CCaGfxProviderDx9@@UEAAJQEAUtagTS_GFX_RECT@@@Z
0012E720 ?ResetDirtyRegion@CCaGfxProviderDx9@@MEAAJXZ
0012E7A4 ?AddDirtyRegion@CCaGfxProviderDx9@@UEAAJPEAUtagTS_GFX_RECT@@@Z
0012E910 ?Present@CCaGfxProviderDx9@@UEAAJXZ
0012ED04 ?GetDevice@CCaGfxProviderDx9@@UEAAJPEAVITscCaGfxDeviceUser@@PEAPEAX@Z
0012EDE8 ?OnDeviceLost@CCaGfxProviderDx9@@MEAAJXZ
0012EF54 ?TestDevice@CCaGfxProviderDx9@@MEAAJPEAVITSAsyncResult@@_K@Z
0012F318 ?OnRepaintRegion@CCaGfxProviderDx9@@MEAAJPEAVITSAsyncResult@@_K@Z
0012F55C ?RepaintRegion@CCaGfxProviderDx9@@UEAAXPEBUtagRECT@@@Z
0012F5F0 ?Invoke@OnRepaintRegionAsyncTerminatingCallback@CCaGfxProviderGdi@@UEAAJPEAVITSAsyncResult@@_K@Z
0012F61C ?CreateInstance@CCaGfxProviderGdi@@SAJPEAVCCaGfxPlugin@@PEAUtagTS_GFX_SIZE@@PEAPEAVITscCaGfxContentProvider@@@Z
0012F7E8 ??0CCaGfxProviderGdi@@IEAA@PEAVCCaGfxPlugin@@@Z
0012F94C ??_GCCaGfxProviderGdi@@MEAAPEAXI@Z
0012F984 ??1CCaGfxProviderGdi@@MEAA@XZ
0012FA58 ?Initialize@CCaGfxProviderGdi@@MEAAJPEAUtagTS_GFX_SIZE@@@Z
0012FF10 ?Terminate@CCaGfxProviderGdi@@UEAAJXZ
001300CC ?GetShadowSurface@CCaGfxProviderGdi@@UEAAJPEAPEAXPEAH@Z
00130154 ?GetScratchSurfaceBits@CCaGfxProviderGdi@@UEAAJPEAUtagTS_GFX_SIZE@@PEAPEAXPEAH@Z
001303C0 ?CopyFromScratchToShadow@CCaGfxProviderGdi@@UEAAJQEAUtagTS_GFX_RECT@@@Z
0013046C ?ResetDirtyRegion@CCaGfxProviderGdi@@MEAAJXZ
001304F0 ?AddDirtyRegion@CCaGfxProviderGdi@@UEAAJPEAUtagTS_GFX_RECT@@@Z
0013065C ?Present@CCaGfxProviderGdi@@UEAAJXZ
00130804 ?OnRepaintRegion@CCaGfxProviderGdi@@MEAAJPEAVITSAsyncResult@@_K@Z
001309E0 ?RepaintRegion@CCaGfxProviderGdi@@UEAAXPEBUtagRECT@@@Z
00130A74 ?CreateInstance@CCaGfxDecoderDummy@@SAJPEAVITSWin32CoreApi@@PEAVITscCaGfxContentProvider@@PEAPEAVITscCaGfxDecoder@@@Z
00130C0C ??0CCaGfxDecoderDummy@@IEAA@PEAVITSWin32CoreApi@@PEAVITscCaGfxContentProvider@@@Z
00130CD4 ??_GCCaGfxDecoderDummy@@MEAAPEAXI@Z
00130D70 ?Initialize@CCaGfxDecoderDummy@@UEAAJXZ
00130DBC ?Terminate@CCaGfxDecoderDummy@@UEAAJXZ
00130E38 ?Decode@CCaGfxDecoderDummy@@UEAAJIIIPEAEI@Z
00131070 ?Paint@CCaGfxDecoderDummy@@UEAAJPEAUtagTS_GFX_RECT@@@Z
00131134 ?Attach@PixelMap@@QEAA_NPEAEHHHHHHHH@Z
001311D0 ?CreateInstance@CCaGfxDecoderNS@@SAJPEAVITSWin32CoreApi@@PEAVITscCaGfxContentProvider@@PEAPEAVITscCaGfxDecoder@@@Z
00131368 ??0CCaGfxDecoderNS@@IEAA@PEAVITSWin32CoreApi@@PEAVITscCaGfxContentProvider@@@Z
0013143C ??_GCCaGfxDecoderNS@@MEAAPEAXI@Z
001314E0 ?Initialize@CCaGfxDecoderNS@@UEAAJXZ
0013152C ?Terminate@CCaGfxDecoderNS@@UEAAJXZ
001315A8 ?Decode@CCaGfxDecoderNS@@UEAAJIIIPEAEI@Z
0013185C ?Paint@CCaGfxDecoderNS@@UEAAJPEAUtagTS_GFX_RECT@@@Z
00131920 ?CreateInstance@CCaGfxDecoderCA@@SAJW4DecoderType@Cac@@PEAVITSWin32CoreApi@@PEAVITscCaGfxContentProvider@@PEAPEAVITscCaGfxDecoder@@@Z
00131A70 ??0CCaGfxDecoderCA@@IEAA@W4DecoderType@Cac@@PEAVITSWin32CoreApi@@PEAVITscCaGfxContentProvider@@@Z
00131BBC ??_ECCaGfxDecoderCA@@MEAAPEAXI@Z
00131BF4 ??1CCaGfxDecoderCA@@MEAA@XZ
00131CD0 ?Initialize@CCaGfxDecoderCA@@MEAAJPEAEIPEAI@Z
001320D8 ?Terminate@CCaGfxDecoderCA@@MEAAJXZ
00132250 ?Decode@CCaGfxDecoderCA@@UEAAJIIIPEAEI@Z
001326B0 ?Paint@CCaGfxDecoderCA@@UEAAJPEAUtagTS_GFX_RECT@@@Z
00132ECC ?OnDeviceLost@CCaGfxDecoderCA@@UEAAJXZ
00132FB0 ?OnDeviceReset@CCaGfxDecoderCA@@UEAAJXZ
00133100 ?CreateDecoder@CacCodec@Cac@@SAJAEAVDecoderProps@2@AEAVDecoderArgs@2@PEAPEAUIDecoder@2@@Z
00133570 ?RecreateDecoder@CacCodec@Cac@@SAJPEAUIDecoder@2@AEAVDecoderArgs@2@PEAPEAU32@@Z
00133940 ?DbgGetDecCpuXformImpl@Cac@@YAJAEAW4CpuXformImplType@CacCommon@@@Z
00133A10 ?DbgGetDecSupport128@Cac@@YAJAEA_N@Z
00133AD0 ?IsDecHwPresent@Cac@@YA_NXZ
00133B10 ?getRectsDisplayString@Cac@@YAPEADHPEAVRect@1@@Z
00133C80 ??_EICodecDecStreamProcessor@CacCommon@@UEAAPEAXI@Z
00133CB0 WPP_SF_dSS
00133DD0 ??0DecoderHw@Cac@@QEAA@XZ
00133EB0 ??_EDecoderHw@Cac@@UEAAPEAXI@Z
00133EF0 ??1DecoderHw@Cac@@UEAA@XZ
00133FD0 ?QueryInterface@DecoderHw@Cac@@UEAAJAEBU_GUID@@PEAPEAX@Z
001340B0 ?Release@DecoderHw@Cac@@UEAAKXZ
001340E0 ?HandleChannels@DecoderHw@Cac@@UEAAJPEAUWfChannels@2@@Z
00134170 ?HandleFrameBegin@DecoderHw@Cac@@UEAAJPEAUWfFrameBegin@2@@Z
001341C0 ?HandleRegionLegacy@DecoderHw@Cac@@UEAAJPEAUWfRegion@2@PEAUClwRegionLegacy@2@HHAEAV?$DynamicArray@H@CacCommon@@AEAV?$DynamicArray@PEAE@6@@Z
001343D0 ?HandleRegion@DecoderHw@Cac@@UEAAJPEAUWfRegion@2@PEAUClwRegion@2@@Z
001344C0 ?HandleTileSet@DecoderHw@Cac@@UEAAJPEAUClwTileSet@2@AEAV?$DynamicArray@H@CacCommon@@AEAV?$DynamicArray@PEAE@5@@Z
00134C90 ?HwTileSize@DecoderHw@Cac@@SAHXZ
00134D90 ?Init@DecoderHw@Cac@@QEAAJAEAVDecoderDesc@2@@Z
00135080 ?Decode@DecoderHw@Cac@@UEAAJAEAVBuffer1D@2@HPEAVRect@2@AEAH2222PEAV32@@Z
00135300 ?Create@DriverHDC@DecoderHw@Cac@@SAPEAV123@XZ
00135470 ?CopyToOutputBmp@DecoderHw@Cac@@UEAAJPEAUHDC__@@HPEAVRect@2@HH@Z
00135690 ?buildRectList@DecoderHw@Cac@@AEAAJHPEAUct_rect@@AEBV?$Rect@H@CacCommon@@PEBUWfRect@2@HPEAVRect@2@AEAH@Z
00135C00 ?push_back@?$DynamicArray@H@CacCommon@@QEAAJH@Z
00135C90 ?push_back@?$DynamicArray@PEAE@CacCommon@@QEAAJPEAE@Z
00135D00 ?reserve@?$DynamicArray@Uct_rect@@@CacCommon@@QEAAJH@Z
00135E00 ?push_back@?$DynamicArray@UWfRect@Cac@@@CacCommon@@QEAAJUWfRect@Cac@@@Z
00135E80 ?reserve@?$DynamicArray@H@CacCommon@@QEAAJH@Z
00135F70 ?clear@?$DynamicArray@PEAE@CacCommon@@QEAAXXZ
00135FE0 ?reserve@?$DynamicArray@UWfRect@Cac@@@CacCommon@@QEAAJH@Z
001360D0 ?reserve@?$DynamicArray@UClwTileSimple@Cac@@@CacCommon@@QEAAJH@Z
00136210 ??1DecoderCpu@Cac@@QEAA@XZ
001362A0 ?QueryInterface@DecoderCpu@Cac@@UEAAJAEBU_GUID@@PEAPEAX@Z
00136370 ?Release@DecoderCpu@Cac@@UEAAKXZ
001363A0 ?Init@DecoderCpu@Cac@@QEAAJAEAVDecoderDesc@2@@Z
00136680 ?Decode@DecoderCpu@Cac@@UEAAJAEAVBuffer1D@2@HPEAVRect@2@AEAH2222PEAV32@@Z
001368D0 ?ReleaseResources@DecoderCpu@Cac@@UEAAJXZ
00136950 ?SetStreamState@DecoderCpu@Cac@@QEAAXPEAVDecoderState@2@@Z
001369B0 ?reserve@?$FixedArray@V?$Rect@H@CacCommon@@@CacCommon@@QEAAHH@Z
00136A60 ??1DecoderX9@Cac@@QEAA@XZ
00136AF0 ?QueryInterface@DecoderX9@Cac@@UEAAJAEBU_GUID@@PEAPEAX@Z
00136C80 ?Release@DecoderX9@Cac@@UEAAKXZ
00136CB0 ?Init@DecoderX9@Cac@@QEAAJAEAVDecoderDesc@2@@Z
00136E50 ?Decode@DecoderX9@Cac@@UEAAJAEAVBuffer1D@2@HPEAVRect@2@AEAH2222PEAV32@@Z
00136FE0 ?decodeSysmem@DecoderX9@Cac@@AEAAJAEAVBuffer1D@2@HPEAVRect@2@AEAH22220@Z
001372D0 ?decodeVidmem@DecoderX9@Cac@@AEAAJAEAVBuffer1D@2@HPEAVRect@2@AEAH2222@Z
00137480 ?CopyToOutputSurf@DecoderX9@Cac@@UEAAJAEAUIDirect3DSurface9@@HPEAVRect@2@HH@Z
00137620 ?CopyToOutputSurf@DecoderX9@Cac@@UEAAJAEAUIDirect3DSurface9@@HPEAVRect@2@1@Z
001377C0 ?ReleaseResources@DecoderX9@Cac@@UEAAJXZ
001378B0 ?SetStreamState@DecoderX9@Cac@@QEAAXPEAVDecoderState@2@@Z
00137910 ?copyOneTile@DecoderX9@Cac@@AEAAJPEAUIDirect3DSurface9@@AEAVRect@2@HHIIAEAU3@@Z
00137A60 ?InitDecoderProps@CacCommon@@YAJUCaImplType@1@_NIPEAEAEAHAEAVDecoderProps@Cac@@@Z
00137CB0 ?GetDecCapsData@CacCommon@@YAJUCaImplType@1@W4CodecBehaviour@Cac@@_NHPEAEPEAH@Z
00137E90 ?reserve@?$DynamicArray@E@CacCommon@@QEAAJH@Z
00137F70 ?BeginEvent@Utils@CacCommon@@SAXPEBG@Z
0013805C ?addInterval@CDisjointIntervals@CaRdpCommon@@QEAAJJJ@Z
00138168 ?getRectsSmall@disjointRectGrid@CaRdpCommon@@QEBAJAEAV?$ABTable@UtagRECT@@@@JJJ@Z
001382F8 ?addRect@disjointRectGrid@CaRdpCommon@@QEAAJAEAUtagRECT@@@Z
00138674 ?maskIntersect@disjointRectGrid@CaRdpCommon@@QEAAJAEBVCTileMask@2@@Z
00138920 ??0CTileMask@CaRdpCommon@@QEAA@HHHH@Z
001389F4 ?Insert@?$ABClassTable@VCDisjointIntervals@CaRdpCommon@@@@QEAAJHAEBVCDisjointIntervals@CaRdpCommon@@@Z
00138AF8 ?InsertLast@?$ABTable@UtagRECT@@@@QEAAJAEBUtagRECT@@@Z
00138BB0 ?Insert@?$ABTable@Uinterval@CaRdpCommon@@@@QEAAJHAEBUinterval@CaRdpCommon@@@Z
00138C5C ?CopyFrom@?$ABTable@Uinterval@CaRdpCommon@@@@QEAAJAEBV1@@Z
00138CCC ?EnlargeSpace@?$ABTable@Uinterval@CaRdpCommon@@@@IEAAJH@Z
00138DD8 ?EnlargeSpace@?$ABTable@VCDisjointIntervals@CaRdpCommon@@@@IEAAJH@Z
00138EE4 ?EnlargeSpace@?$ABTable@UtagRECT@@@@IEAAJH@Z
00138FF0 ??0DecoderState@Cac@@QEAA@XZ
00139090 ??_EDecoderState@Cac@@UEAAPEAXI@Z
00139100 ?NewChannel@DecoderState@Cac@@QEAAPEAVChannel@12@E@Z
001391C0 ?clear@?$DynamicArray@PEAVContext@DecoderState@Cac@@@CacCommon@@QEAAXXZ
00139270 ?reserve@?$DynamicArray@VChannel@DecoderState@Cac@@@CacCommon@@QEAAJH@Z
00139360 ??0DecStreamProcessor@CacCommon@@QEAA@XZ
001393F0 ?AddCodec@DecStreamProcessor@CacCommon@@QEAAJPEAVICodecDecStreamProcessor@2@@Z
00139490 ?InitProps@DecStreamProcessor@CacCommon@@QEAAJIPEAEAEAHAEAVDecoderProps@Cac@@@Z
001398A0 ?Process@DecStreamProcessor@CacCommon@@QEAAJAEAUBuffer1D@2@AEAH@Z
00139B10 ?dispatchCodecVersions@DecStreamProcessor@CacCommon@@AEAAJPEAUWfBlock@Cac@@@Z
00139BB0 ?dispatchChannels@DecStreamProcessor@CacCommon@@AEAAJPEAUWfBlock@Cac@@@Z
00139C50 ?dispatchContext@DecStreamProcessor@CacCommon@@AEAAJPEAUWfBlock@Cac@@@Z
00139CE0 ?dispatchFrameBegin@DecStreamProcessor@CacCommon@@AEAAJPEAUWfBlock@Cac@@@Z
00139D70 ?dispatchFrameEnd@DecStreamProcessor@CacCommon@@AEAAJPEAUWfBlock@Cac@@@Z
00139E00 ?dispatchRegion@DecStreamProcessor@CacCommon@@AEAAJPEAUWfBlock@Cac@@@Z
00139EB0 ?dispatchExtension@DecStreamProcessor@CacCommon@@AEAAJPEAUWfBlock@Cac@@@Z
00139F60 ?push_back@?$DynamicArray@PEAVICodecDecCapsProcessor@CacCommon@@@CacCommon@@QEAAJPEAVICodecDecCapsProcessor@2@@Z
00139FD0 ?reserve@?$DynamicArray@PEAVICodecDecCapsProcessor@CacCommon@@@CacCommon@@QEAAJH@Z
0013A0F0 ?clear@?$DynamicArray@PEAVICodecDecStreamProcessor@CacCommon@@@CacCommon@@QEAAXXZ
0013A160 ?reserve@?$DynamicArray@PEAUWfBlock@Cac@@@CacCommon@@QEAAJH@Z
0013A280 ??0CalDecStreamProcessor@CacCommon@@QEAA@XZ
0013A320 ??_ECalDecStreamProcessor@CacCommon@@UEAAPEAXI@Z
0013A360 ??1CalDecStreamProcessor@CacCommon@@UEAA@XZ
0013A3D0 ?ProcessCodecVersions@CalDecStreamProcessor@CacCommon@@UEAAJPEAUWfBlock@Cac@@@Z
0013A450 ?ProcessChannels@CalDecStreamProcessor@CacCommon@@UEAAJPEAUWfBlock@Cac@@@Z
0013A580 ?ProcessRegion@CalDecStreamProcessor@CacCommon@@UEAAJPEAUWfBlock@Cac@@@Z
0013A660 ?processTileSet@CalDecStreamProcessor@CacCommon@@AEAAJPEAUWfExtension@Cac@@@Z
0013A8A0 ?processRegionLegacy@CalDecStreamProcessor@CacCommon@@AEAAJPEAUWfRegion@Cac@@PEAUClwRegionBase@4@@Z
0013AA50 ??0DecoderImpl@Cac@@QEAA@XZ
0013AB10 ??_GDecoderImpl@Cac@@UEAAPEAXI@Z
0013AB50 ??1DecoderImpl@Cac@@UEAA@XZ
0013AC60 ?Init@DecoderImpl@Cac@@QEAAJAEAVDecoderDesc@2@@Z
0013AF10 ?ReleaseResources@DecoderImpl@Cac@@QEAAJXZ
0013AF80 ?Decode@DecoderImpl@Cac@@QEAAJAEAVITileFeeder@2@AEAVBuffer1D@2@AEAH22HPEAVRect@2@2AEAV?$FixedArray@V?$Rect@H@CacCommon@@@CacCommon@@2@Z
0013B1F0 ?HandleChannels@DecoderImpl@Cac@@UEAAJPEAUWfChannels@2@@Z
0013B280 ?HandleFrameBegin@DecoderImpl@Cac@@UEAAJPEAUWfFrameBegin@2@@Z
0013B2D0 ?HandleRegionLegacy@DecoderImpl@Cac@@UEAAJPEAUWfRegion@2@PEAUClwRegionLegacy@2@HHAEAV?$DynamicArray@H@CacCommon@@AEAV?$DynamicArray@PEAE@6@@Z
0013B430 ?HandleRegion@DecoderImpl@Cac@@UEAAJPEAUWfRegion@2@PEAUClwRegion@2@@Z
0013B4E0 ?HandleTileSet@DecoderImpl@Cac@@UEAAJPEAUClwTileSet@2@AEAV?$DynamicArray@H@CacCommon@@AEAV?$DynamicArray@PEAE@5@@Z
0013B870 ?buildRectList@DecoderImpl@Cac@@CAJHPEAV?$Rect@H@CacCommon@@AEBV34@PEBUWfRect@2@HPEAVRect@2@AEAH@Z
0013BF20 ??4?$Own@VDecoding@CacDecoding@@@CacCommon@@QEAAAEAV01@PEAVDecoding@CacDecoding@@@Z
0013BF80 ??0DriverX9@CacInvXform@@QEAA@XZ
0013C010 ??1DriverX9@CacInvXform@@QEAA@XZ
0013C0B0 ??_GDxHlslPrograms@CacInvXform@@QEAAPEAXI@Z
0013C110 ?Init@DriverX9@CacInvXform@@QEAAJAEAVDriverX9Desc@2@@Z
0013C260 ?Begin@DriverX9@CacInvXform@@QEAAJW4ClwXformType@Cac@@@Z
0013C2F0 ?Decode@DriverX9@CacInvXform@@QEAAJW4ClwXformType@Cac@@AEAV?$FixedArray@V?$Rect@H@CacCommon@@@CacCommon@@@Z
0013C340 ?CopyToOutputSurface@DriverX9@CacInvXform@@QEAAJAEAUIDirect3DSurface9@@HPEBVRect@Cac@@1HH@Z
0013C7B0 ?GetOutputImage@DriverX9@CacInvXform@@QEAAJAEAV?$FixedArray@V?$Rect@H@CacCommon@@@CacCommon@@AEAUBuffer2D@4@@Z
0013CC10 ?SetInternalFormat@DriverX9@CacInvXform@@QEAAJW4_D3DFORMAT@@@Z
0013CD70 ?createDevice@DriverX9@CacInvXform@@AEAAJXZ
0013CF10 ?GetCaps@DecCapsProcessor@CacCommon@@QEAAJAEAV?$DynamicArray@E@2@@Z
0013D0D0 ?push_back@?$DynamicArray@E@CacCommon@@QEAAJHPEAE@Z
0013D1A0 ??_EICodecDecCapsProcessor@CacCommon@@UEAAPEAXI@Z
0013D1D0 ?Release@CalDecStreamProcessor@CacCommon@@UEAAKXZ
0013D210 ?GetCapset@CalDecCapsProcessor@CacCommon@@UEAAJAEAV?$DynamicArray@E@2@@Z
0013D380 ?InitFromStream@CalDecCapsProcessor@CacCommon@@UEAAJAEAV?$DynamicArray@PEAUWfBlock@Cac@@@2@AEAVDecoderProps@Cac@@@Z
0013D560 ??0TileS@CacDecoding@@QEAA@HH@Z
0013D610 ??0Decoding@CacDecoding@@QEAA@HH@Z
0013D740 ??1Decoding@CacDecoding@@QEAA@XZ
0013D7F0 ?UnRlgr2LnTiles3@Decoding@CacDecoding@@QEAAJHHPEAHPEAPEAEHHAEAVITileFeeder@Cac@@AEAV?$FixedArray@V?$Rect@H@CacCommon@@@CacCommon@@@Z
0013DA70 ?UnRlgr2LnTiles3V10@Decoding@CacDecoding@@QEAAJHAEAVQuantTable@CacCommon@@HPEAHPEAPEAEHHAEAVITileFeeder@Cac@@AEAV?$FixedArray@V?$Rect@H@CacCommon@@@4@@Z
0013DDE0 ??_GITileFeeder@Cac@@UEAAPEAXI@Z
0013DE10 ??0IDwtCpu@CacInvXform@@QEAA@XZ
0013E080 ??_GIDwtCpu@CacInvXform@@UEAAPEAXI@Z
0013E0E0 ?Init@IDwtCpu@CacInvXform@@QEAAJHHHHW4CpuXformImplType@CacCommon@@@Z
0013E260 ?CopyTile@IDwtCpu@CacInvXform@@UEAAXHHHPEAPEAEAEAVFullTileBandsS@CacDecoding@@@Z
0013E290 ?CopyTile@IDwtCpu@CacInvXform@@UEAAXHHHPEAPEAEAEAVFullTileBandsSlicedS@CacDecoding@@@Z
0013E2C0 ?idwtTile2@IDwtCpu@CacInvXform@@AEAAXW4ClwXformType@Cac@@HHPEAUYUVBFR@2@AEAUBuffer2D@CacCommon@@@Z
0013E430 ?idwtX@IDwtCpu@CacInvXform@@AEAAXW4ClwXformType@Cac@@PEAF1H@Z
0013E5F0 ?idwtXSimd1@IDwtCpu@CacInvXform@@AEAAXHPEAF00@Z
0013E770 ?idwtY@IDwtCpu@CacInvXform@@AEAAXW4ClwXformType@Cac@@PEAF1H@Z
0013E960 ?idwtYSimd@IDwtCpu@CacInvXform@@AEAAXW4ClwXformType@Cac@@PEAF1H@Z
0013EAD0 ?yuv2RgbTile@IDwtCpu@CacInvXform@@AEAAXHHPEAUYUVBFR@2@PEAFAEAUBuffer2D@CacCommon@@@Z
0013F0C0 ?yuv2RgbTileSimd@IDwtCpu@CacInvXform@@AEAAXHHPEAUYUVBFR@2@PEAFAEAUBuffer2D@CacCommon@@@Z
0013F490 ?copyTile@IDwtCpu@CacInvXform@@AEAAXHHPEAPEAEAEAVFullTileBandsS@CacDecoding@@@Z
0013F8B0 ?copyTile@IDwtCpu@CacInvXform@@AEAAXHHPEAPEAEAEAVFullTileBandsSlicedS@CacDecoding@@@Z
0013FD90 ?writeRectBand@IDwtCpu@CacInvXform@@AEAAXPEAF00HHH_NAEAV?$Rect@H@CacCommon@@0000@Z
001400A0 ?Init@StateX9@CacInvXform@@QEAAXPEAUIDirect3DDevice9@@@Z
00140130 ?Save@StateX9@CacInvXform@@QEAAXXZ
00140270 ?Restore@StateX9@CacInvXform@@QEAAXXZ
001403A0 ??_EDxIDwt@CacInvXform@@UEAAPEAXI@Z
001403D0 ??1DxIDwtFS@CacInvXform@@QEAA@XZ
001404A0 ?InitPasses@DxIDwtVS@CacInvXform@@QEAAXXZ
00140530 ??0DxIDwtC3@CacInvXform@@QEAA@XZ
00140600 ??_EDxIDwtC3@CacInvXform@@UEAAPEAXI@Z
00140640 ??1DxIDwtC3@CacInvXform@@UEAA@XZ
001406B0 ?Init@DxIDwtC3@CacInvXform@@UEAAJPEAUIDirect3DDevice9@@PEAVDxHlslPrograms@2@HHHHW4_D3DFORMAT@@@Z
00140750 ?ReleaseRes@DxIDwtC3@CacInvXform@@UEAAJXZ
00140940 ??_GDxIDwtVertexDecl@CacInvXform@@QEAAPEAXI@Z
001409B0 ??_GSmallTexture@DxIDwtC3@CacInvXform@@QEAAPEAXI@Z
00140A30 ?ReInit@DxIDwtC3@CacInvXform@@UEAAJXZ
00140A70 ?createOutputGeometry@DxIDwtC3@CacInvXform@@AEAAJXZ
00140E70 ?initSmallTextures@DxIDwtC3@CacInvXform@@AEAAJXZ
001411A0 ?prepareSmallTexForNewTile@DxIDwtC3@CacInvXform@@AEAAXHHAEAH0@Z
001412C0 ?postProcessSmallTexForNewTile@DxIDwtC3@CacInvXform@@AEAAXXZ
00141360 ?processCurrentSmallTexture@DxIDwtC3@CacInvXform@@AEAAXXZ
00141400 ?xferSmallTexOut@DxIDwtC3@CacInvXform@@AEAAXXZ
00141580 ?init@DxIDwtC3@CacInvXform@@AEAAJXZ
00141960 ?NextInputRelease@DxIDwtC3@CacInvXform@@UEAAXXZ
00141A20 ?CopyTile@DxIDwtC3@CacInvXform@@UEAAXHHHPEAPEAEAEAVFullTileBandsS@CacDecoding@@@Z
00141A50 ?CopyTile@DxIDwtC3@CacInvXform@@UEAAXHHHPEAPEAEAEAVFullTileBandsSlicedS@CacDecoding@@@Z
00141A90 ?GetTile@DxIDwtC3@CacInvXform@@UEAAXHAEAPEAUIDirect3DSurface9@@AEAVRect@Cac@@1@Z
00141B10 ?GetTile@DxIDwtC3@CacInvXform@@UEAAJHAEAPEBEAEAHAEAVRect@Cac@@@Z
00141D30 ?IDwt@DxIDwtC3@CacInvXform@@UEAAXW4ClwXformType@Cac@@AEAV?$FixedArray@V?$Rect@H@CacCommon@@@CacCommon@@@Z
00141D70 ?coreIdwt@DxIDwtC3@CacInvXform@@AEAAXXZ
001421E0 ?coreIdwt_N@DxIDwtC3@CacInvXform@@AEAAXXZ
00142650 ?setActiveTiles@DxIDwtC3@CacInvXform@@AEAAXAEAV?$FixedArray@V?$Rect@H@CacCommon@@@CacCommon@@@Z
00142730 ?xferOutput@DxIDwtC3@CacInvXform@@AEAAXPEAUIDirect3DSurface9@@IIH@Z
00142870 ?copyTile@DxIDwtC3@CacInvXform@@AEAAXHHPEAPEAEAEAVFullTileBandsS@CacDecoding@@@Z
00142B40 ?copyTile@DxIDwtC3@CacInvXform@@AEAAXHHPEAPEAEAEAVFullTileBandsSlicedS@CacDecoding@@@Z
00142E70 ?writeRectBand@DxIDwtC3@CacInvXform@@AEAAXPEAF00HHH_NAEAV?$Rect@H@CacCommon@@0@Z
001432D0 ?reserve@?$FixedArray@H@CacCommon@@QEAAHH@Z
00143360 ??0DxIDwtC2@CacInvXform@@QEAA@XZ
00143420 ??_EDxIDwtC2@CacInvXform@@UEAAPEAXI@Z
001434A0 ?Init@DxIDwtC2@CacInvXform@@UEAAJPEAUIDirect3DDevice9@@PEAVDxHlslPrograms@2@HHHHW4_D3DFORMAT@@@Z
00143740 ?ReleaseRes@DxIDwtC2@CacInvXform@@UEAAJXZ
00143880 ?ReInit@DxIDwtC2@CacInvXform@@UEAAJXZ
001438D0 ?createInputGeometry@DxIDwtC2@CacInvXform@@AEAAJHHHH@Z
00143D70 ?createOutputGeometry@DxIDwtC2@CacInvXform@@AEAAJXZ
001441D0 ?init@DxIDwtC2@CacInvXform@@AEAAJW4_D3DFORMAT@@@Z
001445E0 ?NextInputGet@DxIDwtC2@CacInvXform@@UEAAJXZ
00144730 ?NextInputRelease@DxIDwtC2@CacInvXform@@UEAAXXZ
00144790 ?NextInputPut@DxIDwtC2@CacInvXform@@UEAAXAEAV?$FixedArray@V?$Rect@H@CacCommon@@@CacCommon@@@Z
00144A10 ?GetOutputSurf@DxIDwtC2@CacInvXform@@UEAAJW4SurfType@2@PEAPEAUIDirect3DSurface9@@@Z
00144B00 ?CopyTile@DxIDwtC2@CacInvXform@@UEAAXHHHPEAPEAEAEAVFullTileBandsS@CacDecoding@@@Z
00144B30 ?CopyTile@DxIDwtC2@CacInvXform@@UEAAXHHHPEAPEAEAEAVFullTileBandsSlicedS@CacDecoding@@@Z
00144B60 ?idwt1@DxIDwtC2@CacInvXform@@AEAAXAEAV?$FixedArray@V?$Rect@H@CacCommon@@@CacCommon@@W4ClwXformType@Cac@@@Z
00144CA0 ?setActiveTiles@DxIDwtC2@CacInvXform@@AEAAXAEAV?$FixedArray@V?$Rect@H@CacCommon@@@CacCommon@@@Z
00144D80 ?xferInput@DxIDwtC2@CacInvXform@@AEAAXH@Z
00144E70 ?IDwt@DxIDwtC2@CacInvXform@@UEAAXW4ClwXformType@Cac@@AEAV?$FixedArray@V?$Rect@H@CacCommon@@@CacCommon@@@Z
00144EA0 ?idwt@DxIDwtC2@CacInvXform@@AEAAXHHW4ClwXformType@Cac@@@Z
001450F0 ?setOutputActiveTiles@DxIDwtC2@CacInvXform@@AEAAXAEAI0@Z
00145260 ?xferOutput@DxIDwtC2@CacInvXform@@AEAAXII@Z
001453D0 ?copyTile@DxIDwtC2@CacInvXform@@AEAAXHHPEAPEAEAEAVFullTileBandsS@CacDecoding@@@Z
00145630 ?copyTile@DxIDwtC2@CacInvXform@@AEAAXHHPEAPEAEAEAVFullTileBandsSlicedS@CacDecoding@@@Z
00145910 ?writeRectBand@DxIDwtC2@CacInvXform@@AEAAXPEAF00HHH_NAEAV?$Rect@H@CacCommon@@0@Z
00145C50 ?Init@DxHlslPrograms@CacInvXform@@QEAAJPEAUIDirect3DDevice9@@AEAW4_D3DFORMAT@@@Z
00146020 ?DeInit@DxHlslPrograms@CacInvXform@@QEAAXXZ
001460C0 ?UnRlgr2Bands@TileUnRlgr2V10Ln@CacDecoding@@QEAAJHHPEAEAEAVTileBandsS@2@11@Z
001461D0 ?UnRlgr2BandsSliced@TileUnRlgr2V10Ln@CacDecoding@@QEAAJHHPEAEAEAVTileBandsSlicedS@2@11@Z
001462F0 ?unRlgr2CompBands@TileUnRlgr2V10Ln@CacDecoding@@AEAAJHGPEAPEAEAEAVTileBandsS@2@@Z
001463E0 ?unRlgr2CompBandsSliced@TileUnRlgr2V10Ln@CacDecoding@@AEAAJHPEAGPEAPEAEAEAVTileBandsSlicedS@2@@Z
00146530 ?doRlgr2Decode@TileUnRlgr2V10Ln@CacDecoding@@AEAAJPEAFHPEAPEAEG@Z
001465E0 ?UnRlgr2Bands@TileUnRlgr2Ln@CacDecoding@@QEAAJHHPEAEAEAVTileBandsS@2@11@Z
00146700 ?UnRlgr2BandsSliced@TileUnRlgr2Ln@CacDecoding@@QEAAJHHPEAEAEAVTileBandsSlicedS@2@11@Z
00146800 ?unRlgr2CompBands@TileUnRlgr2Ln@CacDecoding@@AEAAJHPEAUCAL_SOT3@CacCommon@@HPEAPEAEAEAVTileBandsS@2@@Z
00146900 ?unRlgr2CompBandsSliced@TileUnRlgr2Ln@CacDecoding@@AEAAJHPEAUCAL_SOT3@CacCommon@@HPEAPEAEAEAVTileBandsSlicedS@2@@Z
00146AA0 ?doRlgr2Decode@TileUnRlgr2Ln@CacDecoding@@AEAAJHPEAFHPEAPEAEH@Z
00146B20 ??0DxIDwtVertexDecl@CacInvXform@@QEAA@PEAUIDirect3DDevice9@@@Z
00146BB0 ??1DxIDwtVS@CacInvXform@@QEAA@XZ
00146C80 ?CreateIDwtGeometry@DxIDwtVS@CacInvXform@@QEAAJHHHHHW4_D3DFORMAT@@@Z
00146DD0 ?initIDwtGeometry@DxIDwtVS@CacInvXform@@AEAAJXZ
00147280 ?initIDwtVerts@DxIDwtVS@CacInvXform@@AEAAXHPEAUDxIDwtVertex@2@@Z
00147730 ?initIDwtVerts2@DxIDwtVS@CacInvXform@@AEAAXHPEAUDxIDwtVertex@2@@Z
00147C10 ?initIDwtVertsL0_X@DxIDwtVS@CacInvXform@@AEAAXPEAUDxIDwtVertex@2@@Z
00148140 ?initIDwtVertsL0_Y@DxIDwtVS@CacInvXform@@AEAAXPEAUDxIDwtVertex@2@@Z
00148670 ?SetActiveTiles@DxIDwtVS@CacInvXform@@QEAAXAEAV?$FixedArray@H@CacCommon@@@Z
001487F0 ?decrlgr2@CacDecoding@@YAHPEAURLGRstate@1@PEAEHPEAFHHH@Z
00148F40 ?decrlgr3@CacDecoding@@YAHPEAURLGRstate@1@PEAEHPEAFHHH@Z
00149734 ?InSecurePromptMode@@YAHXZ
001497D8 ?CredSspIsPresent@@YAHXZ
0014981C ?CreateSPN@@YAJPEBG0PEAPEAG@Z
001499EC ?GetSavedCreds@@YAJPEBG0KPEAGK1KPEAH@Z
00149CDC ?DeleteSavedCreds@@YAJPEBG0K@Z
00149E64 ?SaveCreds@@YAJPEBG00PEAEKKK@Z
00149FE8 ?GetDefaultUserName@@YAXPEAGK@Z
0014A134 ?IsJoinedToHomeGroup@@YAHXZ
0014A200 ?IsHomeGroupCredential@@YAHPEBG@Z
0014A3B0 ?SavedCredsExist@@YAHPEBG0PEAKPEAGKPEAH@Z
0014A798 ?AreFreshCredsAllowed@@YAHPEBG0@Z
0014A82C ?GetEffectiveCredsAction@@YAKPEBG0HHHHHHPEAGK@Z
0014AA78 ?NonDelegatingQueryInterface@CTSWin32CoreApi@@UEAAJAEBU_GUID@@PEAPEAX@Z
0014ABC8 ?Invoke@InitializeSNDObjectsWorkerAsyncCallback@CTSWin32CoreApi@@UEAAJPEAVITSAsyncResult@@_K@Z
0014AC2C ?Invoke@InitializeRCVObjectsWorkerAsyncCallback@CTSWin32CoreApi@@UEAAJPEAVITSAsyncResult@@_K@Z
0014ACC4 ?Invoke@TerminateSNDObjectsWorkerAsyncCallback@CTSWin32CoreApi@@UEAAJPEAVITSAsyncResult@@_K@Z
0014AD28 ?Invoke@TerminateRCVObjectsWorkerAsyncCallback@CTSWin32CoreApi@@UEAAJPEAVITSAsyncResult@@_K@Z
0014AE18 WPP_SF_SS
0014AEB8 WPP_SF_SSS
0014AFB8 WPP_SF_dqq
0014B01C ?RunStateFSM@CTSWin32CoreApi@@AEAAJK@Z
0014B124 ?CreateInstance@CTSWin32CoreApi@@SAJPEAPEAV1@P6AJU_GUID@@PEAUIUnknown@@PEAPEAU3@@ZPEBU2@PEAUHINSTANCE__@@6@Z
0014B388 ??_ECTSWin32CoreApi@@UEAAPEAXI@Z
0014B3C0 ??1CTSWin32CoreApi@@UEAA@XZ
0014B4F8 ?Initialize@CTSWin32CoreApi@@UEAAJXZ
0014BAB4 ?Terminate@CTSWin32CoreApi@@UEAAJXZ
0014BD88 ?DestroyWin32Core@CTSWin32CoreApi@@UEAAJXZ
0014BFA4 ?InitializeCoreObjectsPhase1@CTSWin32CoreApi@@AEAAJPEAVITSInstance@@@Z
0014C144 ?TerminateCoreObjectsPhase1@CTSWin32CoreApi@@AEAAJPEAVITSInstance@@@Z
0014C2F4 ?InitializeCoreObjectsPhase2@CTSWin32CoreApi@@AEAAJXZ
0014C894 ?InitializeCoreAPIWorker@CTSWin32CoreApi@@AEAAJPEAVITSAsyncResult@@_K@Z
0014CC80 ?InitializeThreadObjectsWorker@CTSWin32CoreApi@@AEAAJW4TSCoreObjectThreadAffinity@@@Z
0014CE08 ?TerminateCoreObjectsPhase2@CTSWin32CoreApi@@AEAAJXZ
0014D1D8 ?TerminateThreadObjectsWorker@CTSWin32CoreApi@@AEAAJW4TSCoreObjectThreadAffinity@@@Z
0014D43C ?SetWin32CoreApiParentNotifySink@CTSWin32CoreApi@@UEAAJPEAVITSWin32CoreApiNotifySink@@@Z
0014D464 ?GetWin32CoreApiParentNotifySink@CTSWin32CoreApi@@UEAAJPEAPEAVITSWin32CoreApiNotifySink@@@Z
0014D494 ?SetCoreApiParentNotifySink@CTSWin32CoreApi@@UEAAJPEAVITSCoreApiNotifySink@@@Z
0014D574 ?GetCoreApiParentNotifySink@CTSWin32CoreApi@@UEAAJPEAPEAVITSCoreApiNotifySink@@@Z
0014D5A4 ?GetCoreAPI@CTSWin32CoreApi@@UEAAJPEAPEAVITSCoreApi@@@Z
0014D5EC ?OnNotifyDisconnectComplete@CTSWin32CoreApi@@UEAAJXZ
0014D69C ?RailBeginConnect@CTSWin32CoreApi@@IEAAJXZ
0014DA74 ?AsyncConnect@CTSWin32CoreApi@@UEAAJXZ
0014DDC4 ?AsyncConnectRCVThreadWorker@CTSWin32CoreApi@@UEAAJPEAVITSAsyncResult@@_K@Z
0014DE44 ?AsyncDisconnect@CTSWin32CoreApi@@UEAAJXZ
0014DF60 ?AsyncForceShutdown@CTSWin32CoreApi@@UEAAJXZ
0014E078 ?AsyncForceShutdownRCVThreadWorker@CTSWin32CoreApi@@UEAAJPEAVITSAsyncResult@@_K@Z
0014E0BC ?SyncForceShutdownOnRCV@CTSWin32CoreApi@@UEAAJXZ
0014E28C ?AsyncTryShutdown@CTSWin32CoreApi@@UEAAJXZ
0014E3A8 ?InitializePlugins@CTSWin32CoreApi@@IEAAJXZ
0014E7AC ?TerminatePlugins@CTSWin32CoreApi@@IEAAJXZ
0014E900 ?OnNotifyDeviceChange@CTSWin32CoreApi@@UEAAJ_K_J@Z
0014EA10 ?OnParentSizeChange@CTSWin32CoreApi@@UEAAJJJ@Z
0014EAA8 ?OnParentPaletteChanged@CTSWin32CoreApi@@UEAAJ_K_J@Z
0014EB10 ?OnQueryNewPalette@CTSWin32CoreApi@@UEAAK_K_J@Z
0014EB78 ?OnSysColorChange@CTSWin32CoreApi@@UEAAK_K_J@Z
0014EBE0 ?OnGotFocus@CTSWin32CoreApi@@UEAAKXZ
0014EC38 ?GetRunningPluginInstance@CTSWin32CoreApi@@UEAAJU_GUID@@PEAPEAVITSClientPlugin@@@Z
0014EF58 ?GetVirtualChannel@CTSWin32CoreApi@@UEAAJPEBDPEAPEAVITSVirtualChannel@@@Z
0014F0A8 ?SetVirtualChannelPluginList@CTSWin32CoreApi@@UEAAJPEBG@Z
0014F270 ?SetHostingControl@CTSWin32CoreApi@@UEAAJPEAUIUnknown@@@Z
0014F2D4 ?GetMainHwnd@CTSWin32CoreApi@@UEAAPEAUHWND__@@XZ
0014F330 ?GetContainerHwnd@CTSWin32CoreApi@@UEAAPEAUHWND__@@XZ
0014F38C ?GetInputHwnd@CTSWin32CoreApi@@UEAAPEAUHWND__@@XZ
0014F4E8 ?GetOutputWindowHwnd@CTSWin32CoreApi@@UEAAPEAUHWND__@@E@Z
0014F690 ?ResetToDefaults@CTSWin32CoreApi@@UEAAJXZ
0014F844 ?RequestClose@CTSWin32CoreApi@@UEAAJXZ
0014F9F8 ?RequestMinimize@CTSWin32CoreApi@@UEAAJXZ
0014FA2C ?SetHostWindowParameters@CTSWin32CoreApi@@UEAAJPEAUHWND__@@PEAUtagTSSIZE@@@Z
0014FB3C ?ShowRedirectionWarning@CTSWin32CoreApi@@UEAAHXZ
0014FCBC ?CheckSmartCardInsertionStatus@CTSWin32CoreApi@@UEAAHHPEAIPEAG_K@Z
0014FCF8 ?PutFullScreen@CTSWin32CoreApi@@UEAAJHH@Z
0014FEC8 ?SetConnectionBarText@CTSWin32CoreApi@@UEAAJPEBG@Z
0014FF74 ?GetConnectionBarText@CTSWin32CoreApi@@UEAAJPEAPEBG@Z
0014FFE4 ?GetFullScreen@CTSWin32CoreApi@@UEAAJPEAH@Z
0015001C ?SetSmartSizing@CTSWin32CoreApi@@UEAAJH@Z
0015012C ?ResetIdleTimeout@CTSWin32CoreApi@@UEAAJK@Z
001502D8 ?GetGraphicsPresenter@CTSWin32CoreApi@@UEAAJPEAPEAVITscGraphicsPresenter@@@Z
00150444 ?BlackOutOutputWindows@CTSWin32CoreApi@@UEAAJH@Z
00150574 ?ShowUIWindows@CTSWin32CoreApi@@MEAAXH@Z
00150610 ?ChangeVolumeControlTitle@CTSWin32CoreApi@@IEAAXXZ
0015090C ?GetStatusText@CTSWin32CoreApi@@UEAAJIPEAPEAG@Z
00150A6C ?GetPrimarySurface@CTSWin32CoreApi@@AEAAJPEAPEAVITSGraphicsSurfaceEx@@@Z
00150BE8 ?GetPrimaryDrawingBitmap@CTSWin32CoreApi@@AEAAJPEAPEAVITSGraphicsBitmap@@@Z
00150D98 ?get_Width@CTSWin32CoreApi@@UEAAJPEAJ@Z
00150E68 ?get_Height@CTSWin32CoreApi@@UEAAJPEAJ@Z
00150F38 ?get_Bpp@CTSWin32CoreApi@@UEAAJPEAJ@Z
00150FD0 ?GetFrameBufferBits@CTSWin32CoreApi@@UEAAJJJJJJPEAEJ@Z
00151474 ?StaticRCVMain@CRCV@@SAXPEAX@Z
0015160C ?SND_StaticMain@CSND@@SAXPEAX@Z
0015179C InitMultipleMonitorStubs
00151968 xGetSystemMetrics
001519C8 xMonitorFromPoint
00151A04 xMonitorFromRect
00151A54 xMonitorFromWindow
00151AE8 xGetMonitorInfo
00151BD4 WPP_SF_PD
00151C2C ?UIContainerWndProc@CUI@@QEAA_JPEAUHWND__@@I_K_J@Z
00151E54 ?UIGetMaximizedWindowSize@CUI@@AEAA?AUtagTSSIZE@@XZ
00151FD4 ?UIMainWndProc@CUI@@QEAA_JPEAUHWND__@@I_K_J@Z
00152F00 ?UIRecalcMaxMainWindowSize@CUI@@AEAAXXZ
00153080 ?UICalculateVisibleScrollBars@CUI@@AEAAIII@Z
00153300 ?UIRecalculateScrollbars@CUI@@AEAAXXZ
00153774 ?UIMoveContainerWindow@CUI@@AEAAXXZ
00153844 ?UIUpdateScreenMode@CUI@@AEAAXH@Z
00153A84 ?UISetMinMaxPlacement@CUI@@AEAAXXZ
00153AF0 ?UIFilterAuthenticationDisconnect@CUI@@AEAAHPEAK@Z
00153CF0 ?UIGetAuthInfo@CUI@@AEAAJPEAUtagTS_SSL_CERT_ERROR@@PEAPEBU_CERT_CONTEXT@@@Z
00153E18 ?UIOnSslError@CUI@@AEAAHPEAKPEBGK@Z
001547EC ?UIOnAuthNegotiationError@CUI@@AEAAHPEAKPEBGK@Z
00154B40 ?UIProxyDisconnect@CUI@@AEAAJPEAKPEAH@Z
00154C4C ?UIOnProxyCredentialsError@CUI@@AEAAJPEAKPEAHH@Z
00154EB4 ?UIStartAutoReconnectDlg@CUI@@AEAAHXZ
0015500C ?UIStopAutoReconnectDlg@CUI@@AEAAHXZ
001550A0 ?UIActivateSuperPan@CUI@@QEAAJH@Z
001551BC ?UISuperPan@CUI@@QEAAXPEAUHRAWINPUT__@@@Z
00155438 ?UISetBBarUnhideTimer@CUI@@AEAAXJJ@Z
00155564 ?UIRecomputeBBarHotzone@CUI@@AEAAXXZ
001557C4 ?UISuppressScreenUpdate@CUI@@AEAAJH@Z
001558A0 ?UISuppressScreenUpdateThreadWorker@CUI@@EEAAJPEAVITSAsyncResult@@_K@Z
001558E8 ?ResetForceRedirectionProperties@CUI@@QEAAXXZ
00155AE0 ?UIFwdSSLErrorToCredUI@CUI@@AEAAXPEAKPEAH@Z
00155C40 ?UIPrepareToReconnectUsingSSL@CUI@@AEAAXPEAH@Z
00155E3C ?UIDisplayRedirectionWarning@CUI@@AEAAXPEBGPEAH@Z
00156040 ?UIOnHybridRequiredError@CUI@@AEAAHPEAKPEBGK@Z
0015618C ?OnCmdClose@CUI@@UEAAXXZ
00156258 ?OnCmdLock@CUI@@UEAAXPEAUHWND__@@@Z
0015640C ?CanHideBBar@CUI@@UEAAHPEAUtagPOINT@@@Z
00156448 ?MACROGENERATED_Static_DimWindow@COP@@SAXPEAX_K@Z
00156548 ?MACROGENERATED_Static_NotifyInputEvent@CUI@@SAXPEAX_K@Z
0015656C ?MACROGENERATED_Static_NotifyInputSetVisiblePos@CUI@@SAXPEAX0I@Z
00156590 ?WinSqmSetDWORD@@YAXPEAU_GUID@@KK@Z
00156734 ??0CUI@@QEAA@PEAVITSInstance@@@Z
00156AB4 ??_GCUI@@MEAAPEAXI@Z
00156AEC ??1CUI@@MEAA@XZ
00156EC8 ?Initialize@CUI@@UEAAJXZ
0015748C ?Terminate@CUI@@UEAAJXZ
00157890 ?CoreObjectPhase2Initialize@CUI@@UEAAJXZ
00158BBC ?CoreObjectPhase2Terminate@CUI@@UEAAJXZ
00158E94 ?UI_ResetState@CUI@@QEAAXXZ
0015903C ?UI_OnDesktopSizeChange@CUI@@QEAAXUtagTS_GFX_SIZE@@@Z
00159104 ?UIStaticMainWndProc@CUI@@SA_JPEAUHWND__@@I_K_J@Z
0015919C ?UIStaticContainerWndProc@CUI@@SA_JPEAUHWND__@@I_K_J@Z
00159234 ?UI_GoFullScreen@CUI@@QEAAXXZ
001594C8 ?UI_LeaveFullScreen@CUI@@QEAAXXZ
00159640 ?UI_OnFullScreenToggleEvent@CUI@@MEAAJPEAVITSAsyncResult@@_K@Z
00159690 ?UI_OnInputIdleTimerEvent@CUI@@MEAAJPEAVITSAsyncResult@@_K@Z
001596B4 ?UI_OnIdleTimeoutWarningEvent@CUI@@MEAAJPEAVITSAsyncResult@@_K@Z
00159880 ?UI_ToggleFullScreenMode@CUI@@QEAAXXZ
0015995C ?UI_IsFullScreen@CUI@@QEAAHXZ
001599AC ?UI_OnAuthWarningDismissed@CUI@@QEAAJXZ
001599D8 ?UI_RequestMinimize@CUI@@QEAAHXZ
00159A64 ?UI_UserRequestedClose@CUI@@QEAAHXZ
00159AD4 ?UI_DisplayServerCertificate@CUI@@QEAAHPEAUHWND__@@@Z
00159C14 ?UI_DisplayGatewayServerInfo@CUI@@QEAAHPEAUHWND__@@@Z
00159EC8 ?UI_CheckSmartCardInsertionStatus@CUI@@QEAAHPEAVITSCoreApi@@PEAVITSWin32CoreApi@@HPEAIPEAG_K@Z
0015A09C ?UI_OnAxToContainer@CUI@@MEAAJPEAVITSAsyncResult@@_K@Z
0015A18C ?ValidateConnectionSettings@CUI@@UEAAJXZ
0015A41C ?SetConnectionSequenceAsyncCallback@CUI@@UEAAXPEAVITSConnectionSequenceAsyncCallback@@@Z
0015A4A0 ?OnNotifyConnect@CUI@@UEAAXXZ
0015A56C ?GetServerDisplayName@CUI@@QEAAJPEAPEBG@Z
0015A6E8 ?LoadBBar@CUI@@QEAAJXZ
0015A910 ?OnNotifyConnectUiThreadWorker@CUI@@UEAAJPEAVITSAsyncResult@@_K@Z
0015AAF0 ?OnNotifyConnectContinued@CUI@@UEAAJXZ
0015AC30 ?OnNotifyConnectComplete@CUI@@UEAAXXZ
0015AD20 ?OnNotifyConnectCompleteUiThreadWorker@CUI@@UEAAJPEAVITSAsyncResult@@_K@Z
0015AF94 ?AsyncOnNotifyDisconnect@CUI@@UEAAXI@Z
0015B0C4 ?AsyncOnNotifyDisconnectUiThreadWorker@CUI@@UEAAJPEAVITSAsyncResult@@_K@Z
0015B388 ?HandleDisconnectResult@CUI@@UEAAXIH@Z
0015B498 ?HandleDisconnectResultRcvThreadWorker@CUI@@UEAAJPEAVITSAsyncResult@@_K@Z
0015B538 ?OnNotifyDisconnectComplete@CUI@@UEAAXXZ
0015B758 ?OnNotifyDisconnectCompleteUiThreadWorker@CUI@@UEAAJPEAVITSAsyncResult@@_K@Z
0015BB04 ?OnNotifyShutdownDenied@CUI@@UEAAXXZ
0015BBDC ?OnNotifyShutdownDeniedUiThreadWorker@CUI@@UEAAJPEAVITSAsyncResult@@_K@Z
0015BCF4 ?OnNotifyShutdownComplete@CUI@@UEAAXXZ
0015BDCC ?OnNotifyShutdownCompleteUiThreadWorker@CUI@@UEAAJPEAVITSAsyncResult@@_K@Z
0015BE2C ?OnNotifyLoginComplete@CUI@@UEAAXXZ
0015C078 ?OnNotifyAutoReconnecting@CUI@@UEAAXIIIHPEAH@Z
0015C1F8 ?OnNotifyAutoReconnectingUiThreadWorker@CUI@@UEAAJPEAVITSAsyncResult@@_K@Z
0015C2A8 ?OnNotifyAutoReconnectComplete@CUI@@UEAAXXZ
0015C398 ?OnNotifyAutoReconnectCompleteUiThreadWorker@CUI@@UEAAJPEAVITSAsyncResult@@_K@Z
0015C3D4 ?OnNotifyAutoReconnectStopped@CUI@@UEAAXXZ
0015C4A0 ?OnNotifyAutoReconnectStoppedUiThreadWorker@CUI@@UEAAJPEAVITSAsyncResult@@_K@Z
0015C50C ?OnNotifyBufferAvailable@CUI@@UEAAXXZ
0015C5E8 ?OnDestroyingCore@CUI@@UEAAJXZ
0015C7BC ?SignalShutdownEvent@CUI@@UEAAXXZ
0015C7E8 ?OnSecurityLayerNegotiationComplete@CUI@@QEAAJPEAVITSAsyncResult@@_K@Z
0015C9F8 ?OnGatewayMessageReceivedEvent@CUI@@QEAAJPEAVITSAsyncResult@@_K@Z
0015CE10 ?SyncBBarState@CUI@@QEAAXXZ
0015D058 ?CollectSQMDisplayStreamData@CUI@@QEAAXXZ
0015D3AC ?CollectSQMErrorsStreamData@CUI@@QEAAXI@Z
0015D73C ?Invoke@OnGatewayMessageReceivedEventRCVThreadWorkerAsyncCallback@CUI@@UEAAJPEAVITSAsyncResult@@_K@Z
0015D860 ?Invoke@OnSecurityLayerNegotiationCompleteRCVThreadWorkerAsyncCallback@CUI@@UEAAJPEAVITSAsyncResult@@_K@Z
0015DC40 IsolationAwareUnregisterClassW
0015DD08 ?MACROGENERATED_Static_SND_BufferAvailable@CSND@@SAXPEAX_K@Z
0015DD50 ?NonDelegatingQueryInterface@CSecLayerNegCompleteEvent@@UEAAJAEBU_GUID@@PEAPEAX@Z
0015DE88 ??_GCSecLayerNegCompleteEvent@@UEAAPEAXI@Z
0015DF40 IsolationAwareRegisterClassW
0015E018 ??_ECOP@@MEAAPEAXI@Z
0015E050 ??1COP@@MEAA@XZ
0015E314 ?Initialize@COP@@UEAAJXZ
0015E784 ?Terminate@COP@@UEAAJXZ
0015E910 ?CoreObjectPhase2Initialize@COP@@UEAAJXZ
0015F07C ?CoreObjectPhase2Terminate@COP@@UEAAJXZ
0015F218 ?OnPaletteChanged@COP@@QEAAXPEAUHWND__@@0@Z
0015F2E4 ?Enable@COP@@QEAAXXZ
0015F598 ?EnableMil@COP@@QEAAXXZ
0015F6AC ?DisableMil@COP@@QEAAXXZ
0015F7C8 ?OnClientDisplayUpdateEvent@COP@@EEAAHW4OPWindowType@@PEAUtagRECT@@@Z
0015F8C4 ?OnMilHostNotifyEvent@COP@@EEAAXXZ
0015F934 ?OnDisplayUpdateEvent@COP@@EEAAXPEAUHRGN__@@@Z
0015F9B8 ?OnDisplayUpdateEvent@COP@@EEAAXPEAUtagRECT@@@Z
0015FA3C ?OnVisibleWindowChanged@COP@@AEAAXPEAUHWND__@@@Z
0015FAA0 ?StaticWndProc@COP@@CA_JPEAUHWND__@@I_K_J@Z
0015FB90 ?CreateCoreChildWindow@COP@@QEAAJPEAUHINSTANCE__@@@Z
0015FC98 ?CreateMilChildWindow@COP@@QEAAJPEAUHINSTANCE__@@@Z
0015FDA0 ?UpdateClxShadowBitmap@COP@@QEAAXPEAUHDC__@@PEAUHRGN__@@@Z
0015FED0 ?PresentContent@COP@@UEAAJPEAUHDC__@@IIQEAUHRGN__@@PEAVITscContentProvider@@@Z
00160094 ?PresentContent@COP@@UEAAJPEAUIDirect3DSurface9@@PEBU_RGNDATA@@PEAVITscContentProvider@@@Z
00160718 ?UnregisterContentProvider@COP@@UEAAJPEAVITscContentProvider@@@Z
001608CC ?Reset@COP@@UEAAJXZ
00160944 ?CreateClxSurface@COP@@QEAAJIII@Z
00160D7C ?DeleteClxSurface@COP@@QEAAJXZ
00160EC8 ?Invoke@OnMainWindowSizeChangeAsyncCallback@COP@@UEAAJPEAVITSAsyncResult@@_K@Z
00160F28 ?NonDelegatingQueryInterface@COP@@UEAAJAEBU_GUID@@PEAPEAX@Z
00161024 ??_ECUpdateDisplayResult@@UEAAPEAXI@Z
0016107C ??_ECCLX@@MEAAPEAXI@Z
00161108 ?CoreObjectPhase2Initialize@CCLX@@UEAAJXZ
001616D4 ?CoreObjectPhase2Terminate@CCLX@@UEAAJXZ
00161788 ?CLX_Free@CCLX@@QEAAXPEAX@Z
001617C4 ?CLX_LoadProcs@CCLX@@QEAAHXZ
00162EC8 ?CLX_OnConnected@CCLX@@UEAAXXZ
00162EF8 ?CLX_OnDisconnected@CCLX@@UEAAXI@Z
00162F78 ?CLX_OnDisconnectReason@CCLX@@UEAAXKK@Z
00162FA8 ?CLX_ClxDispDataReceived@CCLX@@UEAAXII@Z
00162FD8 ?CLX_ServerRedirectionInfo@CCLX@@UEAAXIPEBGPEAEIH@Z
0016301C ?CLX_ClxEncryptionLevel@CCLX@@UEAAXI@Z
0016304C ?CLX_ClxEncryptionMethod@CCLX@@UEAAXI@Z
0016307C ?CLX_ClxCredUiDisplayed@CCLX@@UEAAXPEAUHINSTANCE__@@PEAUHWND__@@PEBG22K@Z
001630D0 ?CLX_ClxCredentialType@CCLX@@UEAAXIPEAGI@Z
00163100 ?CLX_ClxPacketDecrypted@CCLX@@UEAAXPEAEI@Z
00163130 ?CLX_ClxPacketSent@CCLX@@UEAAXPEAEI@Z
00163160 ?CLX_OnLicensingError@CCLX@@UEAAXIK@Z
00163190 ?CLX_ClxPacketReceived@CCLX@@UEAAXPEAEI@Z
001631C0 ?CLX_ClxPktDrawn@CCLX@@UEAAXXZ
001631F0 ?CLX_ClxAuthProtocol@CCLX@@UEAAXI@Z
0016321C ?CLX_ClxUserAuthProtocol@CCLX@@UEAAXI@Z
00163248 ?CLX_ClxVCDataReceived@CCLX@@UEAAXIPEADQEAEII@Z
0016328C ?CLX_ConnectEx@CCLX@@UEAAXPEBGHHPEAEI@Z
00163314 ?CLX_PersistentBitmapCacheCreated@CCLX@@UEAAXPEBG@Z
00163344 ?CLX_ClxDialogDisplayed@CCLX@@UEAAXPEAUHINSTANCE__@@PEAUHWND__@@1I@Z
00163384 ?CLX_AutoReconnectStatus@CCLX@@UEAAXK@Z
001633B4 ?CLX_ClxSspiSettings@CCLX@@UEAAXIKIK@Z
001633EC ?CLX_ClxNegotiatedSecurityPackage@CCLX@@UEAAXPEBG@Z
00163418 ?CLX_ClxCertCheckResult@CCLX@@UEAAXUtagTS_SSL_CERT_ERROR@@@Z
00163448 ?CLX_OnLogonError@CCLX@@UEAAXKK@Z
00163478 ?CLX_OnStatusMessageReceived@CCLX@@UEAAXK@Z
001634A8 ?CLX_ClxGlyphOut@CCLX@@UEAAXIIPEAX@Z
001634D8 ?CLX_ClxTextOut@CCLX@@UEAAXPEAXH0JJJJ@Z
00163548 ?CLX_ShadowBitmapUpdated@CCLX@@UEAAX_KI@Z
0016359C ?CLX_CheckSendLargePtrCaps@CCLX@@UEAAHXZ
001635D0 ?CLX_CheckSendSurfCmdsCaps@CCLX@@UEAAHXZ
00163604 ?CLX_CheckSendMfuCaps@CCLX@@UEAAHXZ
00163638 ?CLX_GetMfuBufferSize@CCLX@@UEAAHPEAI@Z
0016366C ?CLX_GetMfuBufferCount@CCLX@@UEAAHPEAI@Z
001636A0 ?CLX_ShadowBitmapCreated@CCLX@@UEAAX_KI@Z
00163704 ?CLX_ShadowBitmapDCCreated@CCLX@@UEAAX_KI@Z
00163768 ?CLX_DelayFrameAck@CCLX@@UEAAXXZ
00163798 ?CLX_GetCustomCADecoderCaps@CCLX@@UEAAHPEAEIPEAI@Z
001637CC ?CLX_OnCaGfxUpdate@CCLX@@UEAAXIPEAEIPEAJ@Z
0016380C ?CLX_OnCacDecode@CCLX@@UEAAXIIIIPEAX@Z
00163854 ?CLX_ClxConnectionProperties@CCLX@@UEAAHXZ
00164360 ?CLX_ClxAudioCaptureOnVersionReceived@CCLX@@UEAAXXZ
00164390 ?CLX_ClxAudioCaptureOnFormatsReceived@CCLX@@UEAAXPEAEPEAK@Z
001643C0 ?CLX_ClxAudioCaptureOnCaptureStarted@CCLX@@UEAAXXZ
001643F0 ?CLX_ClxAudioCaptureOnFormatChange@CCLX@@UEAAXPEAEK@Z
00164420 ?CLX_ClxAudioCaptureOnCaptureStop@CCLX@@UEAAXXZ
00164450 ?CLX_ClxAudioPlaybackOnFormatsReceived@CCLX@@UEAAXPEAE@Z
0016447C ?CLX_ClxAudioPlaybackOnFormatChange@CCLX@@UEAAXPEAEK@Z
001644FC ?NonDelegatingQueryInterface@CCLX@@UEAAJAEBU_GUID@@PEAPEAX@Z
001645A4 ?CLX_ClxAudioDeviceChanged@CCLX@@UEAAXKPEBG@Z
001645D4 ?CLX_ClxActiveXTerminated@CCLX@@UEAAXPEAUIUnknown@@@Z
00164604 ?CLX_ClxActiveXInitialized@CCLX@@UEAAXPEAUIUnknown@@@Z
00164634 ?CLX_ClxMMPlayerStateChange@CCLX@@UEAAXU_GUID@@KK@Z
00164690 ?CLX_ClxMMRemovePlayerInfo@CCLX@@UEAAXU_GUID@@@Z
001646EC ?CLX_ClxMMSetPlayerInfo@CCLX@@UEAAXKPEAXU_GUID@@@Z
00164748 ?CLX_ClxMMOnVideoWindowCreated@CCLX@@UEAAX_KU_GUID@@@Z
001647A4 ?CLX_ClxOnFrameMarker@CCLX@@UEAAXH@Z
001647CC ?CLX_ClxOnImageData@CCLX@@UEAAXHHHHHHJ@Z
00164850 ?CLX_ClxCodecSettings@CCLX@@UEAAXHHEE@Z
0016488C ?CLX_ClxCompressionLevel@CCLX@@UEAAXK@Z
001648BC ?CreateInstance@CTSCoreFactory@@SAJPEAPEAV1@@Z
00164A2C ??_ECTSCoreFactory@@MEAAPEAXI@Z
00164A80 ?CreateCoreObjects@CTSCoreFactory@@QEAAJP6AJU_GUID@@PEAUIUnknown@@PEAPEAU3@@ZPEAUHINSTANCE__@@PEAVITSWin32CoreApi@@PEAPEAVITSInstance@@@Z
00165F64 ??_ECClientUtils@@MEAAPEAXI@Z
00165FEC ?SetWin32CoreApiParentNotifySink@CTSWin32CoreApiNotifySink@@UEAAJPEAVITSWin32CoreApiNotifySink@@@Z
00166040 ?SetCoreApiParentNotifySink@CTSWin32CoreApiNotifySink@@UEAAJPEAVITSCoreApiNotifySink@@@Z
00166288 ??_GCTSWin32CoreApiNotifySink@@MEAAPEAXI@Z
001662C0 ??1CTSWin32CoreApiNotifySink@@MEAA@XZ
00166378 ?Initialize@CTSWin32CoreApiNotifySink@@UEAAJPEAVITSInstance@@@Z
00166408 ?Terminate@CTSWin32CoreApiNotifySink@@UEAAJXZ
00166488 ?OnCoreApiConnecting@CTSWin32CoreApiNotifySink@@UEAAJXZ
00166534 ?OnCoreApiConnectingUiThreadWorker@CTSWin32CoreApiNotifySink@@UEAAJPEAVITSAsyncResult@@_K@Z
0016655C ?OnCoreApiConnected@CTSWin32CoreApiNotifySink@@UEAAJXZ
00166608 ?OnCoreApiConnectedUiThreadWorker@CTSWin32CoreApiNotifySink@@UEAAJPEAVITSAsyncResult@@_K@Z
00166630 ?OnCoreApiLoginComplete@CTSWin32CoreApiNotifySink@@UEAAJXZ
001666DC ?OnCoreApiLoginCompleteUiThreadWorker@CTSWin32CoreApiNotifySink@@UEAAJPEAVITSAsyncResult@@_K@Z
00166704 ?OnCoreApiDisconnected@CTSWin32CoreApiNotifySink@@UEAAJK@Z
001667BC ?OnCoreApiDisconnectedUiThreadWorker@CTSWin32CoreApiNotifySink@@UEAAJPEAVITSAsyncResult@@_K@Z
001667E8 ?OnCoreApiFatalError@CTSWin32CoreApiNotifySink@@UEAAJK@Z
001668A0 ?OnCoreApiFatalErrorUiThreadWorker@CTSWin32CoreApiNotifySink@@UEAAJPEAVITSAsyncResult@@_K@Z
001668CC ?OnCoreApiMouseInputModeChanged@CTSWin32CoreApiNotifySink@@UEAAJH@Z
00166988 ?OnCoreApiMouseInputModeChangedUiThreadWorker@CTSWin32CoreApiNotifySink@@UEAAJPEAVITSAsyncResult@@_K@Z
001669B4 ?OnCoreApiReceivedPublicKey@CTSWin32CoreApiNotifySink@@UEAAJPEBDKPEAH@Z
00166A90 ?OnCoreApiReceivedPublicKeyUiThreadWorker@CTSWin32CoreApiNotifySink@@UEAAJPEAVITSAsyncResult@@_K@Z
00166AC4 ?OnCoreApiAutoReconnecting@CTSWin32CoreApiNotifySink@@UEAAJJJPEAW4ARCContinueState@@@Z
00166BA0 ?OnCoreApiAutoReconnectingUiThreadWorker@CTSWin32CoreApiNotifySink@@UEAAJPEAVITSAsyncResult@@_K@Z
00166BD4 ?OnCoreApiStatusInfoReceived@CTSWin32CoreApiNotifySink@@UEAAJK@Z
00166C8C ?OnCoreApiStatusInfoReceivedUiThreadWorker@CTSWin32CoreApiNotifySink@@UEAAJPEAVITSAsyncResult@@_K@Z
00166CB8 ?OnCoreApiGoneFullScreen@CTSWin32CoreApiNotifySink@@UEAAJXZ
00166CDC ?OnCoreApiLeftFullScreen@CTSWin32CoreApiNotifySink@@UEAAJXZ
00166D00 ?OnCoreApiRequestFullScreen@CTSWin32CoreApiNotifySink@@UEAAJH@Z
00166D24 ?OnCoreApiDesktopSizeChange@CTSWin32CoreApiNotifySink@@UEAAJKK@Z
00166D48 ?OnCoreApiWarning@CTSWin32CoreApiNotifySink@@UEAAJK@Z
00166D70 ?OnCoreApiIdleTimeout@CTSWin32CoreApiNotifySink@@UEAAJXZ
00166D94 ?OnCoreApiRequestMinimize@CTSWin32CoreApiNotifySink@@UEAAJXZ
00166DB8 ?OnCoreApiAskConfirmClose@CTSWin32CoreApiNotifySink@@UEAAJPEAH@Z
00166DDC ?OnCoreApiServiceMessageReceived@CTSWin32CoreApiNotifySink@@UEAAJPEAG@Z
00166E00 ?OnCoreApiRemoteApplicationResult@CTSWin32CoreApiNotifySink@@UEAAJPEBGJH@Z
00166E24 ?OnCoreApiRemoteApplicationDisplayed@CTSWin32CoreApiNotifySink@@UEAAJHK@Z
00166E48 ?OnCoreApiLogonError@CTSWin32CoreApiNotifySink@@UEAAJJ@Z
00166F04 ?OnCoreApiLogonErrorUiThreadWorker@CTSWin32CoreApiNotifySink@@UEAAJPEAVITSAsyncResult@@_K@Z
00166F34 ?OnCoreApiAxToContainer@CTSWin32CoreApiNotifySink@@UEAAJH@Z
00166F58 ?OnCoreApiInternalDialogDisplayed@CTSWin32CoreApiNotifySink@@UEAAJXZ
00166F7C ?OnCoreApiInternalDialogDismissed@CTSWin32CoreApiNotifySink@@UEAAJXZ
00166FA4 ?OnUserNameAcquired@CTSWin32CoreApiNotifySink@@UEAAJPEBG@Z
00166FDC ??_ECSND@@MEAAPEAXI@Z
00167014 ??1CSND@@MEAA@XZ
00167064 ?CoreObjectPhase2Initialize@CSND@@UEAAJXZ
001671B4 ?CoreObjectPhase2Terminate@CSND@@UEAAJXZ
001672F4 ??_ECRCV@@MEAAPEAXI@Z
0016732C ??1CRCV@@MEAA@XZ
0016737C ?CoreObjectPhase2Initialize@CRCV@@UEAAJXZ
00167484 ?CoreObjectPhase2Terminate@CRCV@@UEAAJXZ
001674F8 ?GetErrorDescription@CTSWin32CoreApi@@UEAAJIIPEAPEAG@Z
00167D88 ?GetDisconnectStringIdFromExtendedCode@CTSWin32CoreApi@@IEAAII@Z
00167FE8 ?GetCoreClassErrorDescriptionId@CTSWin32CoreApi@@IEAAIIPEAHPEAPEAG@Z
00168B64 ?GetProxyClassErrorDescriptionId@CTSWin32CoreApi@@IEAAIIPEAHPEAPEAG@Z
001699EC ??_ECCD@@MEAAPEAXI@Z
00169A24 ??1CCD@@MEAA@XZ
00169A78 ?Initialize@CCD@@UEAAJXZ
00169B10 ?Terminate@CCD@@UEAAJXZ
00169B5C ?CD_RegisterComponent@CCD@@QEAAJI@Z
00169C38 ?internalDecoupleBufferNotification@CCD@@AEAAJHKPEAXP6AX00I@Z0K@Z
00169E78 ?internalDecoupleParamNotification@CCD@@AEAAJHKPEAXP6AX0_K@Z1@Z
0016A0E8 ?Invoke@OnCDDemuxBufferCallAsyncCallback@CCD@@UEAAJPEAVITSAsyncResult@@_K@Z
0016A184 ?Invoke@OnCDDemuxParamCallAsyncCallback@CCD@@UEAAJPEAVITSAsyncResult@@_K@Z
0016A204 ??_G?$CTSObjectPool@VCTSBufferResult@@@@MEAAPEAXI@Z
0016A298 ?Initialize@?$CTSObjectPool@VCTSBufferResult@@@@UEAAJXZ
0016A4C8 ?CreateInstancePool@CTSBufferResult@@SAJIPEAPEAV?$CTSObjectPool@VCTSBufferResult@@@@@Z
0016A678 ??0CTsAuthUi@@QEAA@PEAVITSWin32CoreApi@@@Z
0016A720 ??_ECTsAuthUi@@MEAAPEAXI@Z
0016A7EC ?Initialize@CTsAuthUi@@UEAAJXZ
0016A9A8 ?Terminate@CTsAuthUi@@UEAAJXZ
0016AA10 ?DisplayNonContinuableErrorDialog@CTsAuthUi@@QEAAJPEAUHWND__@@PEBGKK@Z
0016AC9C ?DisplayAuthNotEnabledAtServerDialog@CTsAuthUi@@QEAAJPEAUHWND__@@PEBGHPEAH@Z
0016AF0C ?DisplayAuthErrorDialog@CTsAuthUi@@QEAAJPEAUHWND__@@PEBGKK@Z
0016B58C ?DisplayAuthDialog@CTsAuthUi@@QEAAJPEAUHWND__@@IIPEAIZZ
0016B928 ?DisplayCertAuthErrorDialog@CTsAuthUi@@QEAAJPEAUHWND__@@PEBGHUtagTS_SSL_CERT_ERROR@@PEBU_CERT_CONTEXT@@PEAHPEAVITSPropertySet@@@Z
0016BC4C ?DisplayCertInfoDialog@CTsAuthUi@@QEAAHPEBU_CERT_CONTEXT@@PEAUHWND__@@@Z
0016BCE8 ?DisplayRedirectionWarning@CTsAuthUi@@QEAAJPEAUHWND__@@PEBG1PEAH@Z
0016C094 ??0CTscServerAuthErrorDialog@@QEAA@PEAUHWND__@@PEAUHINSTANCE__@@HPEBGPEAVITSPropertySet@@H@Z
0016C12C ??_ECTscServerAuthErrorDialog@@UEAAPEAXI@Z
0016C164 ??1CTscServerAuthErrorDialog@@UEAA@XZ
0016C1B0 ?Initialize@CTscServerAuthErrorDialog@@QEAAJHPEAIGPEAEG@Z
0016C390 ?MustDisplayDialog@CTscServerAuthErrorDialog@@SAHPEBGHPEAEKPEAVITSPropertySet@@@Z
0016C4C8 ?DialogBoxProc@CTscServerAuthErrorDialog@@UEAA_JPEAUHWND__@@I_K_J@Z
0016C5F0 ?OnInitDialog@CTscServerAuthErrorDialog@@MEAAHXZ
0016C790 ?OnWmPaint@CTscServerAuthErrorDialog@@MEAAHXZ
0016C874 ?EnableUiWindow@CTscServerAuthErrorDialog@@IEAAXPEAUHWND__@@H@Z
0016C8E8 ?EnableUiItem@CTscServerAuthErrorDialog@@IEAAXIH@Z
0016C968 ?DisplayDontWarnAgainCheckbox@CTscServerAuthErrorDialog@@IEAAXXZ
0016CA6C ??_GCTscCertErrorDialog@@UEAAPEAXI@Z
0016CACC ?Initialize@CTscCertErrorDialog@@QEAAJXZ
0016CC2C ?EnableCertErrorBullet@CTscCertErrorDialog@@AEAAHIIH@Z
0016CDD4 ?DisplayCertErrorBullets@CTscCertErrorDialog@@AEAAXXZ
0016D144 ?DisplayCertSubjectName@CTscCertErrorDialog@@AEAAJXZ
0016D2F0 ?OnInitDialog@CTscCertErrorDialog@@EEAAHXZ
0016D644 ?InitializeSubjectNameDisplayArea@CTscCertErrorDialog@@AEAAHXZ
0016D794 ?DialogBoxProc@CTscCertErrorDialog@@UEAA_JPEAUHWND__@@I_K_J@Z
0016D860 ??_ECTscServerNotAuthenticatedDialog@@UEAAPEAXI@Z
0016D8B8 ?OnInitDialog@CTscServerNotAuthenticatedDialog@@EEAAHXZ
0016D994 ?DisplayErrorDescription@CTscServerNotAuthenticatedDialog@@AEAAJK@Z
0016DBC0 ?CalcTextRect@CTscServerNotAuthenticatedDialog@@AEAAJPEBGPEAUHWND__@@PEAUtagRECT@@@Z
0016DE1C ??_ECTsServerAuthInfoDlg@@UEAAPEAXI@Z
0016DE54 ??1CTsServerAuthInfoDlg@@UEAA@XZ
0016DEA8 ?DialogBoxProc@CTsServerAuthInfoDlg@@UEAA_JPEAUHWND__@@I_K_J@Z
0016DF64 ?OnInitDialog@CTsServerAuthInfoDlg@@IEAAHXZ
0016E0A8 IsolationAwareLoadLibraryA
0016E170 ??_GCTsProxyProfileManager@@UEAAPEAXI@Z
0016E234 ?Initialize@CTsProxyProfileManager@@QEAAJPEAUHINSTANCE__@@PEAVCUI@@PEAVITSCoreApi@@PEAVITSWin32CoreApi@@@Z
0016E394 ?Terminate@CTsProxyProfileManager@@UEAAJXZ
0016E424 ?LoadProxyStrings@CTsProxyProfileManager@@QEAAJXZ
0016E760 ?GatherCreds@CTsProxyProfileManager@@QEAAJHPEAII0PEAH1PEAPEAG2PEAPEAUIUnknown@@1@Z
0016F6F4 ?ClearCreds@CTsProxyProfileManager@@QEAAJXZ
0016F810 ?GetProxyUsageMethod@CTsProxyProfileManager@@QEAAJPEAK@Z
0016F87C ?GetProxyProfileUsageMethod@CTsProxyProfileManager@@QEAAJPEAK@Z
0016F8E8 ?GetProxyHostname@CTsProxyProfileManager@@QEAAJPEAG_K@Z
0016F9A8 ?CheckSmartCardInsertion@CTsProxyProfileManager@@QEAAJPEAHPEAI@Z
0016FB18 ?GetEffectiveCredsSource@CTsProxyProfileManager@@QEAAJPEAK@Z
0016FDAC ??0CTscCredsAssistant@@IEAA@PEAUHINSTANCE__@@PEAVCUI@@PEAVCCLX@@PEAVITSPropertySet@@3PEAVITSWin32CoreApi@@PEAVITSCoreApi@@@Z
0016FF64 ??_GCTscCredsAssistant@@MEAAPEAXI@Z
0016FF9C ??1CTscCredsAssistant@@MEAA@XZ
00170154 ?CreateInstance@CTscCredsAssistant@@SAJPEAUHINSTANCE__@@PEAVCUI@@PEAVCCLX@@PEAVITSPropertySet@@3PEAVITSWin32CoreApi@@PEAVITSCoreApi@@PEAPEAV1@@Z
001702D0 ?Initialize@CTscCredsAssistant@@MEAAJXZ
00170334 ?AcquireSharedCreds@CTscCredsAssistant@@QEAAJPEAG0PEAUIUnknown@@HHH@Z
00170668 ?AcquireTsCredentials@CTscCredsAssistant@@QEAAJPEAHHI@Z
001715E8 ?PersistCredentialForServer@CTscCredsAssistant@@AEAAJPEBG@Z
00171B30 ?PersistTsCredentials@CTscCredsAssistant@@AEAAJXZ
00171D80 ?GetUserNameHint@CTscCredsAssistant@@AEAAXPEBGPEAGK@Z
00171FC0 ?PersistUserNameHint@CTscCredsAssistant@@AEAAXPEBG@Z
001722C0 ?GetPromptTextId@CTscCredsAssistant@@AEAAJPEAUtagTSC_CREDENTIALS_UI_INFO@@IPEBGHK@Z
00172790 ?PromptForTsCredentials@CTscCredsAssistant@@AEAAJPEBGHHIKPEAH@Z
00173040 ?UserNameExists@CTscCredsAssistant@@AEAAHXZ
001730C0 ?PasswordExists@CTscCredsAssistant@@AEAAHXZ
0017313C ?OnSecurityLayerNegotiationComplete@CTscCredsAssistant@@QEAAJI@Z
001736D4 ?ClearCredentials@CTscCredsAssistant@@AEAAJXZ
0017384C ?SaveCredsFlag@CTscCredsAssistant@@AEAAJPEBG@Z
00173B10 ?DisplayNoSmartCardCredDialog@CTscCredsAssistant@@AEAAJXZ
00173E10 ?IsSmartCardCertificateExist@CTscCredsAssistant@@AEAAJPEBGPEAH@Z
00173FD0 WPP_SF_Ds
00174078 ?FormatMessageVArgs@@YAPEAGPEBGZZ
001740D8 ?InHighContrastMode@@YAHXZ
00174124 ??_GCAutoReconnectUI@@UEAAPEAXI@Z
0017415C ??1CAutoReconnectUI@@UEAA@XZ
001741F8 ?PaintBitmap@CAutoReconnectUI@@IEAAXPEAUHDC__@@PEBUtagRECT@@PEAUHBITMAP__@@1@Z
001743F8 ?CenterWindow@CAutoReconnectUI@@IEAAXPEAUHWND__@@HH@Z
001745CC ??0CAutoReconnectDlg@@QEAA@PEAUHWND__@@PEAUHINSTANCE__@@PEAVCUI@@PEAVITSCoreApi@@PEAVITSWin32CoreApi@@@Z
00174AB4 ??_GCAutoReconnectDlg@@UEAAPEAXI@Z
00174AEC ??1CAutoReconnectDlg@@UEAA@XZ
00174BC8 ?StartModeless@CAutoReconnectDlg@@UEAAPEAUHWND__@@XZ
00174E6C ?ShowTopMost@CAutoReconnectDlg@@UEAAHXZ
00174ED0 ?OnParentSizePosChange@CAutoReconnectDlg@@UEAAXXZ
00174F00 ?OnEraseBkgnd@CAutoReconnectDlg@@AEAAXPEAUHWND__@@PEAUHDC__@@@Z
00174FB8 ?xDrawTransparentBitmap@@YAXPEAUHDC__@@PEAUHBITMAP__@@FFK@Z
001755F8 ?OnDrawItem@CAutoReconnectDlg@@AEAAXPEAUHWND__@@PEBUtagDRAWITEMSTRUCT@@@Z
001757C8 ?StaticDialogBoxProc@CAutoReconnectDlg@@SA_JPEAUHWND__@@I_K_J@Z
001758B4 ?DialogBoxProc@CAutoReconnectDlg@@UEAA_JPEAUHWND__@@I_K_J@Z
00175DD4 ?UpdateConnectionAttempts@CAutoReconnectDlg@@AEAAXKKH@Z
00175F60 ?OnNotifyAutoReconnecting@CAutoReconnectDlg@@UEAAXIKKHPEAH@Z
00175FD4 ?Destroy@CAutoReconnectDlg@@UEAAHXZ
00176070 ?CancelBtnSubclassProc@CAutoReconnectDlg@@SA_JPEAUHWND__@@I_K_J11@Z
001761AC IsolationAwareDefSubclassProc
001762C4 IsolationAwareRemoveWindowSubclass
001763D8 CommctrlIsolationAwarePrivatetRgCebPnQQeRff_pbZPgYQP_QYY
0017648C IsolationAwareSetWindowSubclass
001765A0 ??0CTSCoreObject@@QEAA@PEBDPEAVITSInstance@@W4TSCoreObjectThreadAffinity@@@Z
00176674 ??_GCTSCoreObject@@MEAAPEAXI@Z
001766AC ??1CTSCoreObject@@MEAA@XZ
00176710 ?Initialize@CTSCoreObject@@UEAAJXZ
00176760 ?CoreObjectPhase2Initialize@CTSCoreObject@@UEAAJXZ
001767B0 ?CoreObjectPhase2Terminate@CTSCoreObject@@UEAAJXZ
00176800 ?Terminate@CTSCoreObject@@UEAAJXZ
00176834 ?GetTSInstance@CTSCoreObject@@IEAAJPEAPEAVITSInstance@@@Z
00176880 ?DialogBoxProc@CAdminConsentMsgClientDialogue@@UEAA_JPEAUHWND__@@I_K_J@Z
00176A4C ?OnInitDialog@CAdminConsentMsgClientDialogue@@QEAAHXZ
00176AFC ?CompareAgainstSavedMessagePreference@CAdminConsentMsgClientDialogue@@SAHPEBG00@Z
00176D60 ?SaveAdminMessageDisplayPreference@CAdminConsentMsgClientDialogue@@QEAAJPEBG0@Z
00176FCC ?OnCompleted@CSecLayerNegCompleteEvent@@UEAAJXZ
00177014 ?Terminate@CSecLayerNegCompleteEvent@@UEAAJXZ
00177080 ?FireEvent@CSecLayerNegCompleteEvent@@UEAAJIPEAVISecLayerNegCompleteCallback@@@Z
0017711C ??_ECAAMessageReceivedEvent@@UEAAPEAXI@Z
001771E4 ?FireEvent@CAAMessageReceivedEvent@@UEAAJPEAXK0KPEBG1PEAVIAAMsgOpCompleteCallback@@@Z
001772F0 ?GetMessageW@CAAMessageReceivedEvent@@UEAAXPEAPEAXPEAK01PEAPEAG2@Z
0017739C ?OnCompleted@CAAMessageReceivedEvent@@UEAAJXZ
001773D8 ?NonDelegatingQueryInterface@CAAMessageReceivedEvent@@UEAAJAEBU_GUID@@PEAPEAX@Z
00177510 ??_ECTsGatewayServerInfoDlg@@UEAAPEAXI@Z
00177548 ??1CTsGatewayServerInfoDlg@@UEAA@XZ
0017759C ?DialogBoxProc@CTsGatewayServerInfoDlg@@UEAA_JPEAUHWND__@@I_K_J@Z
00177610 ?OnInitDialog@CTsGatewayServerInfoDlg@@IEAAHXZ
00177794 ??0CRedirectPromptDlg@@QEAA@PEAUHWND__@@PEAUHINSTANCE__@@KPEBG22HW4__MIDL_IMsRdpClientNonScriptable4_0001@@PEAVITSPropertySet@@4HPEAVCCLX@@HH@Z
00177D04 ??_GCRedirectPromptDlg@@UEAAPEAXI@Z
00177D3C ??1CRedirectPromptDlg@@UEAA@XZ
00177E04 ?DialogBoxProc@CRedirectPromptDlg@@UEAA_JPEAUHWND__@@I_K_J@Z
00177FEC ?OnInitDialog@CRedirectPromptDlg@@IEAAHXZ
0017860C ?IsDeviceRedirectionEnabled@CRedirectPromptDlg@@CAJPEAUIUnknown@@HPEAH1@Z
00178748 ?DisableDeviceRedirectionInCollection@CRedirectPromptDlg@@CAJPEAUIUnknown@@HH@Z
001789B8 ?IsDriveRedirectionEnabled@CRedirectPromptDlg@@CAJPEAUIUnknown@@HPEAH@Z
00178AB8 ?DisableDriveRedirectionInCollection@CRedirectPromptDlg@@CAJPEAUIUnknown@@@Z
00178C74 ?AllowConnection@CRedirectPromptDlg@@SAHPEAVITSWin32CoreApi@@PEAUHINSTANCE__@@PEAVITSPropertySet@@22PEAVITSWin32CoreApiNotifySink@@PEAVCCLX@@H@Z
00179538 ?LoadSelectedOptions@CRedirectPromptDlg@@CAJPEAVITSPropertySet@@0PEBGHKPEAGPEAK@Z
001799E8 ?LoadSecurityFilter@CRedirectPromptDlg@@SAJPEAVITSPropertySet@@0PEBG1HHKPEAGPEAH3PEAK@Z
00179BB4 ?GetPublisherThumbprint@CRedirectPromptDlg@@CAJPEAVITSPropertySet@@KPEAG@Z
00179D9C ?ApplyNewSettings@CRedirectPromptDlg@@CAJPEAVITSPropertySet@@0AEAV1@PEAGKKH@Z
0017A45C ?OnWmPaint@CRedirectPromptDlg@@MEAAHXZ
0017A7A8 ?GetShowUsbInfo@CRedirectPromptDlg@@QEAAHI@Z
0017A824 ?SetWarningText@CRedirectPromptDlg@@AEAAJXZ
0017A8F4 ?SetLinkControlText@CRedirectPromptDlg@@AEAAJHPEBGI0I@Z
0017ACB4 ?UpdatePublisherControl@CRedirectPromptDlg@@AEAAJXZ
0017B014 ?UpdateRedirectedDevicesControls@CRedirectPromptDlg@@AEAAJXZ
0017B354 ?UpdateCredentialsControl@CRedirectPromptDlg@@AEAAJXZ
0017B4F0 ?OnAnimationDone@CRedirectPromptDlg@@AEAAXXZ
0017B544 ?ToggleDetailsVisibility@CRedirectPromptDlg@@AEAAXXZ
0017B694 ?GetDialogResizeAmount@CRedirectPromptDlg@@AEAAHXZ
0017B734 ?RearrangeControls@CRedirectPromptDlg@@AEAAXHHH@Z
0017BAF8 ?DisplayCertificate@CRedirectPromptDlg@@AEAAHXZ
0017BD48 ?CheckSendingCredentials@CRedirectPromptDlg@@CAJPEAVITSPropertySet@@0PEBGHPEAHPEAGK@Z
0017C154 ?CreateToolTip@CRedirectPromptDlg@@AEAAHIPEAG@Z
0017C308 ?GetExpandoBitmapDetails@CRedirectPromptDlg@@AEAAXIPEAI00@Z
0017C398 ?CreateExpandoButton@CRedirectPromptDlg@@AEAAHXZ
0017C6C4 ?SetExpandoButtonBitmap@CRedirectPromptDlg@@AEAAXXZ
0017C738 ?PositionExpandoButton@CRedirectPromptDlg@@AEAAXXZ
0017C858 IsolationAwareImageList_LoadImageW
0017C980 ??_GCSmartCardInsertionDlg@@UEAAPEAXI@Z
0017C9B8 ??1CSmartCardInsertionDlg@@UEAA@XZ
0017CA20 ?DialogBoxProc@CSmartCardInsertionDlg@@UEAA_JPEAUHWND__@@I_K_J@Z
0017CB2C ?OnInitDialog@CSmartCardInsertionDlg@@IEAAHXZ
0017CC84 ?CheckSmartCardInsertionStatus@CSmartCardInsertionDlg@@SAHPEAUHWND__@@PEAUHINSTANCE__@@PEAVITSPropertySet@@2HPEAIPEAG_KPEAVCCLX@@@Z
0017D0C4 ?ConnectionCanProceed@CTsPreConnectChecks@@SAHPEAVITSCoreApi@@PEAVITSWin32CoreApi@@@Z
0017D27C WPP_SF_dddddddd
0017D320 ??0CBBar@@IEAA@PEAUHINSTANCE__@@PEAUHWND__@@PEAUBBAR_BUTTON_VISIBILITY@@HPEAGHHHPEAVIBBarCallbacks@@@Z
0017D508 ??_GCBBar@@MEAAPEAXI@Z
0017D5A0 ?Initialize@CBBar@@MEAAJXZ
0017D848 ?Terminate@CBBar@@UEAAJXZ
0017D8C8 ?CreateInstance@CBBar@@SAJPEAPEAVIBBar@@PEAUHINSTANCE__@@PEAUHWND__@@PEAUBBAR_BUTTON_VISIBILITY@@HPEAGHHHPEAVIBBarCallbacks@@@Z
0017DA08 ?WndProc@CBBar@@MEAA_JPEAUHWND__@@I_K_J@Z
0017E018 ?SubclassProc@CBBar@@KA_JPEAUHWND__@@I_K_J11@Z
0017E170 ?GetBBarDimensions@CBBar@@AEAAXPEAUtagRECT@@PEAH1PEAI2@Z
0017E374 ?RegionizeBBar@CBBar@@AEAAXXZ
0017E490 ?CreateMappedImageList@CBBar@@AEAAPEAU_IMAGELIST@@IIPEAUtagSIZE@@PEAU_COLORMAP@@I@Z
0017E560 ?GetToolBarIcons@CBBar@@AEAAXIIPEAUtagSIZE@@PEAPEAU_IMAGELIST@@1@Z
0017E744 ?CreateToolBar@CBBar@@AEAAPEAUHWND__@@PEBUBBAR_TOOLBAR_DEF@@PEAPEAU_IMAGELIST@@1PEAUtagSIZE@@@Z
0017EA20 ?CreateToolBars@CBBar@@AEAAXXZ
0017ED64 ?PositionWinCtrlsToolBar@CBBar@@AEAAXXZ
0017EE10 ?PositionTsCtrlsToolBar@CBBar@@AEAAXXZ
0017EED0 ?DestroyToolBar@CBBar@@AEAAXPEAPEAUHWND__@@PEAPEAU_IMAGELIST@@1@Z
0017EF68 ?DestroyToolBars@CBBar@@AEAAXXZ
0017EFB4 ?GetLeftToolBarOffset@CBBar@@AEAAIXZ
0017F020 ?GetRightToolBarOffset@CBBar@@AEAAII@Z
0017F09C ?LoadToolTip@CBBar@@AEAAXIIPEAGI@Z
0017F120 ?SetBBarTransparency@CBBar@@AEAAXI@Z
0017F1C8 ?AnimateBBar@CBBar@@AEAAXHEK@Z
0017F2AC ?OnPaint@CBBar@@AEAAXPEAUHDC__@@PEAUtagPAINTSTRUCT@@@Z
0017F540 ?OnEraseBackground@CBBar@@AEAAXPEAUHDC__@@@Z
0017F8B8 ?OnAutoHideTimer@CBBar@@AEAAXXZ
0017F9C8 ?SyncWithSystemMetrics@CBBar@@AEAAXXZ
0017FAE8 ?GetMonitorRect@CBBar@@AEAAHUtagPOINT@@PEAUtagRECT@@@Z
0017FB90 ?LockBBar@CBBar@@UEAAXPEAUtagPOINT@@@Z
0017FBE4 ?ShowBBar@CBBar@@AEAAXPEAUtagPOINT@@HH@Z
0017FF34 ?HideBBar@CBBar@@AEAAXHH@Z
00180000 ?SetPinned@CBBar@@UEAAXH@Z
00180050 ?ShowMinimizeButton@CBBar@@QEAAXHH@Z
001800E0 ?ShowRestoreButton@CBBar@@QEAAXHH@Z
00180174 ?ShowCloseButton@CBBar@@QEAAXHH@Z
00180208 ?ShowPinButton@CBBar@@QEAAXHH@Z
0018029C ?ShowPropsButton@CBBar@@QEAAXHH@Z
00180330 ?ShowLockButton@CBBar@@QEAAXHH@Z
001803C4 ?GetClientRect@CBBar@@AEAAXKPEAUtagRECT@@@Z
0018041C ?GetWindowRect@CBBar@@AEAAXPEAUtagRECT@@@Z
0018046C ?RefreshBBarLayout@CBBar@@AEAAXH@Z
00180564 ?ShowDropShadow@CBBar@@UEAAXH@Z
00180654 IsolationAwareInitCommonControlsEx
00180744 IsolationAwareCreateToolbarEx
001808A0 IsolationAwareImageList_Destroy
00180990 IsolationAwareImageList_Add
00180A8C IsolationAwareImageList_Create
00180BA0 IsolationAwareCreateMappedBitmap
00180CB4 ?CreateInstance@CDesktopToWndTransform@@SAJAEAV?$ComPlainSmartPtr@VCDesktopToWndTransform@@@@II@Z
00180E3C ?Initialize@CDesktopToWndTransform@@EEAAJXZ
00180E6C ?Terminate@CDesktopToWndTransform@@EEAAJXZ
00180EC4 ?ForwardTransform@CDesktopToWndTransform@@UEBA?AUtagTS_GFX_POINT@@AEBU2@@Z
00180F58 ?ReverseTransform@CDesktopToWndTransform@@UEBA?AUtagTS_GFX_POINT@@AEBU2@@Z
00181084 ?DesktopToWndX@CDesktopToWndTransform@@QEBAMM@Z
0018115C ?DesktopToWndY@CDesktopToWndTransform@@QEBAMM@Z
00181234 ?SetSourceViewport@CDesktopToWndTransform@@QEAAHJJJJ@Z
001812DC ?SetTargetRect@CDesktopToWndTransform@@QEAAXII@Z
00181344 ?GetTargetRect@CDesktopToWndTransform@@QEBA?BUtagTS_GFX_RECT@@XZ
0018139C ?IsIdentity@CDesktopToWndTransform@@QEBAHII@Z
00181428 ??_GCDesktopToWndTransform@@EEAAPEAXI@Z
001814C0 ??0COPWnd@@IEAA@PEAVITSInstance@@PEAUHINSTANCE__@@PEAUHWND__@@PEAVIOPWndCallbacks@@PEAVCDesktopToWndTransform@@IIIW4OPWindowType@@@Z
00181638 ??_ECOPWnd@@MEAAPEAXI@Z
00181778 ?Initialize@COPWnd@@MEAAJXZ
00181B54 ?Terminate@COPWnd@@UEAAJXZ
00181C1C ?CreateInstance@COPWnd@@SAJPEAPEAV1@PEAVITSInstance@@PEAUHINSTANCE__@@PEAUHWND__@@PEAVIOPWndCallbacks@@PEAVCDesktopToWndTransform@@IIIIIW4OPWindowType@@@Z
00181E04 ?WndProc@COPWnd@@MEAA_JPEAUHWND__@@I_K_J@Z
00182154 ?ScaleRect@COPWnd@@IEAAJPEAJ000@Z
00182280 ?GetCurrentPalette@COPWnd@@QEAAPEAUHPALETTE__@@XZ
00182498 ?GetShadowBitmapDC@COPWnd@@QEAAPEAUHDC__@@XZ
001825CC ?UpdateSourceViewport@COPWnd@@IEAAHPEAUHDC__@@@Z
0018277C ?CopyShadowToDC@COPWnd@@QEAAHPEAUHDC__@@PEAUHRGN__@@@Z
00182CD4 ?GrillWindow@COPWnd@@IEAAXPEAUHDC__@@PEAUtagTSSIZE@@@Z
00182E18 ?GreyScaleWindow@COPWnd@@IEAAXPEAUHDC__@@@Z
00182F74 ?GreyScaleBits32@COPWnd@@IEAAXPEAEHH@Z
00183080 ?GreyScaleBits24@COPWnd@@IEAAXPEAEHH@Z
00183188 ?GreyScaleBits16@COPWnd@@IEAAXPEAEHH@Z
001832B4 ?GreyScaleBits15@COPWnd@@IEAAXPEAEHH@Z
001833E0 ?CreateDisconnectedBitmap@COPWnd@@IEAAJXZ
001836E4 ?GetDisconnectedBitmapDC@COPWnd@@QEAAPEAUHDC__@@XZ
001837C8 ?BlackOut@COPWnd@@QEAAXH@Z
001838D0 ?ResetDisconnectedBitmap@COPWnd@@IEAAJXZ
00183AE4 ?StartDimmingWindow@COPWnd@@IEAAXXZ
00183C9C ?RealizePalette@COPWnd@@IEAAIH@Z
00183DC0 ?OnPaletteChanged@COPWnd@@QEAAXPEAUHWND__@@0@Z
00183EB0 ?UpdateWindowState@COPWnd@@QEAAHPEAUHWND__@@IIH@Z
00183F00 ?GetVirtualDesktopOrigin@COPWnd@@IEAAJPEAH0@Z
00183F88 ?NonDelegatingQueryInterface@CTSInstance@@UEAAJAEBU_GUID@@PEAPEAX@Z
00184074 ?SetPlatform@CTSInstance@@UEAAXPEAVITSPlatform@@@Z
001840BC ?SetBaseServices@CTSInstance@@UEAAXPEAVITSBaseServices@@@Z
00184104 ?SetCoreEvents@CTSInstance@@UEAAXPEAVITSCoreEvents@@@Z
0018414C ?SetSNDThread@CTSInstance@@UEAAXPEAVITSThread@@@Z
00184194 ?SetRCVThread@CTSInstance@@UEAAXPEAVITSThread@@@Z
001841DC ?SetUIThread@CTSInstance@@UEAAXPEAVITSThread@@@Z
00184224 ?SetCoreAPI@CTSInstance@@UEAAXPEAVITSCoreApi@@@Z
0018426C ?GetCoreAPI@CTSInstance@@UEAAJPEAPEAVITSCoreApi@@@Z
001842E0 ?SetWin32CoreAPI@CTSInstance@@UEAAXPEAVITSWin32CoreApi@@@Z
00184328 ?GetWin32CoreAPI@CTSInstance@@UEAAJPEAPEAVITSWin32CoreApi@@@Z
0018439C ?SetUI@CTSInstance@@UEAAXPEAVCUI@@@Z
001843E4 ?GetUI@CTSInstance@@UEAAJPEAPEAVCUI@@@Z
0018441C ?SetCD@CTSInstance@@UEAAXPEAVCCD@@@Z
00184464 ?GetCD@CTSInstance@@UEAAJPEAPEAVCCD@@@Z
0018449C ?SetSND@CTSInstance@@UEAAXPEAVCSND@@@Z
001844E4 ?GetSND@CTSInstance@@UEAAJPEAPEAVCSND@@@Z
0018451C ?SetRCV@CTSInstance@@UEAAXPEAVCRCV@@@Z
00184564 ?GetRCV@CTSInstance@@UEAAJPEAPEAVCRCV@@@Z
0018459C ?SetUH@CTSInstance@@UEAAXPEAVCUH@@@Z
001845E4 ?GetUH@CTSInstance@@UEAAJPEAPEAVCUH@@@Z
0018461C ?SetOD@CTSInstance@@UEAAXPEAVCOD@@@Z
00184664 ?GetOD@CTSInstance@@UEAAJPEAPEAVCOD@@@Z
0018469C ?SetOP@CTSInstance@@UEAAXPEAVCOP@@@Z
001846E4 ?GetOP@CTSInstance@@UEAAJPEAPEAVCOP@@@Z
0018471C ?SetCLX@CTSInstance@@UEAAXPEAVCCLX@@@Z
00184774 ?GetCLX@CTSInstance@@UEAAJPEAPEAVCCLX@@@Z
001847BC ?SetGraphics@CTSInstance@@UEAAXPEAVITSGraphics@@@Z
00184868 ?GetGraphics@CTSInstance@@UEAAJPEAPEAVITSGraphics@@@Z
00184984 ?SetInput@CTSInstance@@UEAAXPEAVITSInput@@@Z
00184A30 ?GetInput@CTSInstance@@UEAAJPEAPEAVITSInput@@@Z
00184B4C ?SetVirtualChannelPluginLoader@CTSInstance@@UEAAXPEAVITSVirtualChannelPluginLoader@@@Z
00184BF8 ?GetVirtualChannelPluginLoader@CTSInstance@@UEAAJPEAPEAVITSVirtualChannelPluginLoader@@@Z
00184D14 ?SetTransportStack@CTSInstance@@UEAAXPEAVITSTransportStack@@@Z
00184DC0 ?GetTransportStack@CTSInstance@@UEAAJPEAPEAVITSTransportStack@@@Z
00184EDC ?SetUT@CTSInstance@@UEAAXPEAVCClientUtils@@@Z
00184F2C ?GetUT@CTSInstance@@UEAAJPEAPEAVCClientUtils@@@Z
00184F70 ?TSCreateInstance@@YAJPEAPEAVITSInstance@@@Z
00185150 ??_ECTSInstance@@UEAAPEAXI@Z
00185188 ??1CTSInstance@@UEAA@XZ
001852E4 ?Terminate@CTSInstance@@UEAAJXZ
001853DC ?GetCoreObject@CTSInstance@@UEAAJKPEAPEAVITSCoreObject@@@Z
00185484 ?SetCoreObject@CTSInstance@@UEAAJKPEAVITSCoreObject@@@Z
00185530 ??0COD@@QEAA@PEAVITSInstance@@@Z
001861A0 ??_ECOD@@MEAAPEAXI@Z
001861D8 ??1COD@@MEAA@XZ
0018627C ?CoreObjectPhase2Initialize@COD@@UEAAJXZ
00186578 ?CoreObjectPhase2Terminate@COD@@UEAAJXZ
0018664C ?OD_Enable@COD@@QEAAXXZ
00186974 ?OD_DecodeOrder@COD@@QEAAJPEAPEAXI@Z
00187314 ?HasContent@@YA_NPEAUHDC__@@UtagTS_GFX_RECT@@@Z
001875EC WPP_SF_DDDDDDDDDDDL
001876C8 WPP_SF_DDDDDDDDDDdddd
001877CC WPP_SF_DDDDDDllllllll
001878CC WPP_SF_DDDDddddL
0018797C WPP_SF_Ldd
001879DC WPP_SF_ddDDDDDd
00187A80 WPP_SF_ddDdDDDd
00187B24 WPP_SF_ddDdd
00187BA0 WPP_SF_ddddD
00187C1C WPP_SF_ddddDd
00187CA4 WPP_SF_ddddDdDDD
00187D58 WPP_SF_ddddL
00187DD0 WPP_SF_ddddLd
00187E58 WPP_SF_ddddddL
00187EF0 WPP_SF_ddddddLd
00187F94 ?ODDecodeOpaqueRect@COD@@AEAAJEPEAPEAEII@Z
001883A8 ?ODDecodeMemBlt@COD@@AEAAJEPEAPEAEII@Z
0018881C ?ODDecodeLineTo@COD@@AEAAJEPEAPEAEII@Z
00188EC8 ?ODDecodePatBlt@COD@@AEAAJEPEAPEAEII@Z
00189640 ?ODHandleMultiPatBlt@COD@@AEAAJPEAUtagUH_ORDER@@GH@Z
00189A84 ?ODHandleDstBlts@COD@@AEAAJPEAUtagUH_ORDER@@GH@Z
00189E04 ?ODHandleScrBlts@COD@@AEAAJPEAUtagUH_ORDER@@GH@Z
0018A3A8 ?ODHandleMultiOpaqueRect@COD@@AEAAJPEAUtagUH_ORDER@@GH@Z
0018A5DC ?ODHandleDrawNineGrid@COD@@AEAAJPEAUtagUH_ORDER@@GH@Z
0018A7B0 ?ODHandleMultiDrawNineGrid@COD@@AEAAJPEAUtagUH_ORDER@@GH@Z
0018AA78 ?ODHandleMem3Blt@COD@@AEAAJPEAUtagUH_ORDER@@GH@Z
0018AD40 ?ODHandleSaveBitmap@COD@@AEAAJPEAUtagUH_ORDER@@GH@Z
0018B174 ?ODHandlePolyLine@COD@@AEAAJPEAUtagUH_ORDER@@GH@Z
0018B4E4 ?ODHandlePolygonSC@COD@@AEAAJPEAUtagUH_ORDER@@GH@Z
0018B898 ?ODHandlePolygonCB@COD@@AEAAJPEAUtagUH_ORDER@@GH@Z
0018BDE4 ?ODHandleEllipseSC@COD@@AEAAJPEAUtagUH_ORDER@@GH@Z
0018C1D8 ?ODHandleEllipseCB@COD@@AEAAJPEAUtagUH_ORDER@@GH@Z
0018C7A0 ?ODDecodeFastIndex@COD@@AEAAJEPEAPEAEII@Z
0018D2B0 ?ODHandleFastGlyph@COD@@AEAAJPEAUtagUH_ORDER@@GH@Z
0018D618 ?ODHandleGlyphIndex@COD@@AEAAJPEAUtagUH_ORDER@@GH@Z
0018D950 ?ODDecodeMultipleRects@COD@@AEAAJPEAUtagTS_GFX_RECT@@IPEAU_CLIP_RECT_VARIABLE_CODEDDELTALIST@@G@Z
0018E044 ?ODDecodePathPoints@COD@@AEAAJPEAUtagTS_GFX_POINT@@PEAUtagTS_GFX_RECT@@PEAEIIIIGH@Z
0018E260 ?UH_UseTsGfxTextColor@CUH@@QEAAJUtagTSCOLOR@@I@Z
0018E2E8 ?UHConvertToWindowsROP@CUH@@QEAAJIPEAI@Z
0018E390 ?UH_UseTsGfxBkColor@CUH@@QEAAJUtagTSCOLOR@@I@Z
0018E418 ?UH_GetTsGfxColor@CUH@@QEAAIUtagTSCOLOR@@I@Z
0018E640 ?UH_ResetClipRegion@CUH@@QEAAXXZ
0018E6AC ??0CChan@@QEAA@PEAVITSCoreApiInternal@@@Z
0018E850 ??_GCChan@@MEAAPEAXI@Z
0018E888 ??1CChan@@MEAA@XZ
0018E988 ?Initialize@CChan@@UEAAJXZ
0018EA34 ?HeavyInitialize@CChan@@MEAAJXZ
0018EBD0 ?Terminate@CChan@@UEAAJXZ
0018ED70 ?InitializeVirtualChannel@CChan@@UEAAJPEAUtagTS_VIRTUALCHANNEL_ENTRYPOINT@@@Z
0018EDC4 ?QueryVirtualChannelInformation@CChan@@UEAAJPEADW4TS_VIRTUALCHANNEL_INFORMATION_CLASS@@PEAKPEAX@Z
0018EF14 ?SetCapabilities@CChan@@QEAAXPEAUtagTS_VIRTUALCHANNEL_CAPABILITYSET@@K@Z
0018EFB4 ?VirtualChannelInitEx@@YAIPEAX0PEFAUtagCHANNEL_DEF@@HKP6AX00I0I@Z@Z
0018F398 ?VirtualChannelInit@@YAIPEAPEAXPEFAUtagCHANNEL_DEF@@HKP6AXPEAXI2I@Z@Z
0018F3E4 ?IntVirtualChannelInit@CChan@@QEAAIPEAXPEAPEAXPEFAUtagCHANNEL_DEF@@HKP6AX0I0I@ZP6AX00I0I@Z@Z
0018F7EC ?VirtualChannelOpen@@YAIPEAXPEAKPEADP6AXKI0III@Z@Z
0018F82C ?VirtualChannelOpenEx@@YAIPEAXPEAKPEADP6AX0KI0III@Z@Z
0018F86C ?IntVirtualChannelOpen@CChan@@QEAAIPEAXPEAKPEADP6AXKI0III@ZP6AX0KI0III@Z@Z
0018F9A8 ?VirtualChannelClose@@YAIK@Z
0018F9D0 ?VirtualChannelCloseEx@@YAIPEAXK@Z
0018FA68 ?VirtualChannelWrite@@YAIKPEAXK0@Z
0018FA9C ?VirtualChannelWriteEx@@YAIPEAXK0K0@Z
0018FAD4 ?IntVirtualChannelWrite@CChan@@QEAAIKPEAXK0@Z
0018FC64 ?ChannelOnConnected@CChan@@QEAAXIIPEAXIPEAVCTSRdpConnectionStack@@@Z
0018FDB8 ?ChannelOnPacketReceived@CChan@@QEAAXPEAEIIII@Z
001901CC ?IntChannelCallCallbacks@CChan@@AEAAXIPEAXI@Z
00190264 ?IntChannelSend@CChan@@AEAAX_K@Z
001902B8 ?IntChannelSendWorker@CChan@@AEAAJ_K@Z
001906A0 ?StaticIntChannelWriteCallback@CChan@@CAXPEAX0@Z
001906F4 ?IntChannelInitAddin@CChan@@AEAAHP6AHPEAUtagCHANNEL_ENTRY_POINTS@@@ZP6AHPEAUtagCHANNEL_ENTRY_POINTS_EX@@PEAX@Z3@Z
0019095C ?IntChannelCancelSendWorker@CChan@@AEAAJ_K@Z
00190AA8 ?NonDelegatingQueryInterface@CChan@@UEAAJAEBU_GUID@@PEAPEAX@Z
00190B50 ??0CoreFSM@@QEAA@PEAVITSCoreApiInternal@@@Z
00190C88 ??_GCoreFSM@@MEAAPEAXI@Z
00190CC0 ??1CoreFSM@@MEAA@XZ
00190ED0 ?Initialize@CoreFSM@@UEAAJXZ
001915E4 ?Terminate@CoreFSM@@UEAAJXZ
00191964 ?InitRDPConnectionStack@CoreFSM@@AEAAJXZ
00191DA8 ?TerminateRDPConnectionStack@CoreFSM@@AEAAJXZ
00191EAC ?CC_Event@CoreFSM@@QEAAX_K@Z
00191F38 ?StartConnect@CoreFSM@@QEAAJPEAUtagCONNECTSTRUCT@@@Z
00191FD4 ?CC_OnDisconnected@CoreFSM@@QEAAX_K@Z
00192028 ?GetRDPStack@CoreFSM@@QEAAJPEAPEAVCTSRdpConnectionStack@@@Z
001920E8 ??_GCTSRdpConnectionStack@@MEAAPEAXI@Z
00192120 ??1CTSRdpConnectionStack@@MEAA@XZ
001921D8 ?Initialize@CTSRdpConnectionStack@@QEAAJPEAVCTSRdpStackTransferBuffer@@@Z
0019295C ?Terminate@CTSRdpConnectionStack@@UEAAJXZ
00192A28 ?SetAutoReconnectCookie@CTSRdpConnectionStack@@QEAAJPEAEK@Z
00192B00 ?GetTopProtocolHandler@CTSRdpConnectionStack@@QEAAJPEAPEAVITSProtocolHandler@@@Z
00192B74 ?GetBuffer@CTSRdpConnectionStack@@QEAAJKHPEAPEAVITSNetBuffer@@@Z
00192C28 ?SendBuffer@CTSRdpConnectionStack@@QEAAJPEAVITSNetBuffer@@KKKKK@Z
00192D00 ?SendBuffer@CTSRdpConnectionStack@@QEAAJPEAVITSNetBuffer@@KK@Z
00192DD8 ?DropLinkImmediate@CTSRdpConnectionStack@@QEAAJK@Z
00192E34 ?SetRDPEncryptionSafeChecksumCS@CTSRdpConnectionStack@@QEAAJH@Z
00192EE8 ?GetAuthInfoInterface@CTSRdpConnectionStack@@QEAAJPEAPEAVITscAuthInfo@@@Z
00192FA0 ?SkipNextServerCertValidation@CTSRdpConnectionStack@@QEAAJXZ
00193068 ?GetDecompressionContext@CTSRdpConnectionStack@@QEAAJKPEAPEAXPEAK@Z
0019316C ?SetRDPEncryptionSafeChecksumSC@CTSRdpConnectionStack@@QEAAJH@Z
00193220 ?GetHandlerByName@CTSRdpConnectionStack@@QEAAJPEAGPEAPEAVITSProtocolHandler@@@Z
00193300 ?GetCoreHandler@CTSRdpConnectionStack@@QEAAJAEAV?$ComPlainSmartPtr@VCCO@@@@@Z
001933E4 ?CreateInstance@CTSFilterTransport@@SAJPEAVITSCoreApiInternal@@PEAPEAV1@@Z
001934DC ??_ECTSFilterTransport@@MEAAPEAXI@Z
00193514 ??1CTSFilterTransport@@MEAA@XZ
001935B8 ?Initialize@CTSFilterTransport@@UEAAJXZ
0019363C ?Terminate@CTSFilterTransport@@UEAAJXZ
001936EC ?OnTransportConnected@CTSFilterTransport@@UEAAJXZ
00193718 ?OnConnected@CTSFilterTransport@@UEAAJXZ
00193760 ?OnDisconnected@CTSFilterTransport@@UEAAJK@Z
001937A0 ?OnDataAvailable@CTSFilterTransport@@UEAAJPEAEI@Z
00193828 ?OnBufferAvailable@CTSFilterTransport@@UEAAJXZ
00193854 ?Connect@CTSFilterTransport@@UEAAJPEBGPEAEK@Z
00193918 ?SynchronizeTransportProps@CTSFilterTransport@@IEAAJPEAVITSPropertySet@@@Z
00193C3C ?DropLinkImmediate@CTSFilterTransport@@UEAAJK@Z
00193C68 ?GetBuffer@CTSFilterTransport@@UEAAJKHPEAPEAVITSNetBuffer@@@Z
00193CF4 ?SendBuffer@CTSFilterTransport@@UEAAJPEAVITSNetBuffer@@KKKKK@Z
00193D6C ?FreeBuffer@CTSFilterTransport@@UEAAJPEAVITSNetBuffer@@@Z
00193DAC ?ReadData@CTSFilterTransport@@UEAAKPEAEK@Z
00193DD0 ?DirectReceive@CTSFilterTransport@@UEAAJPEAPEAEK@Z
00193DF8 ?IsDataAvailable@CTSFilterTransport@@UEAAHXZ
00193EC0 ?NonDelegatingQueryInterface@CTSProtocolHandlerBase@@UEAAJAEBU_GUID@@PEAPEAX@Z
00193F7C ??_G?$CTSObjectPool@VCTSNetBuffer@@@@MEAAPEAXI@Z
00194010 ?Initialize@?$CTSObjectPool@VCTSNetBuffer@@@@UEAAJXZ
0019412C ?CreateInstancePool@CTSNetBuffer@@SAJIPEAPEAV?$CTSObjectPool@VCTSNetBuffer@@@@@Z
00194248 ?NonDelegatingQueryInterface@CTSCoreApi@@UEAAJAEBU_GUID@@PEAPEAX@Z
0019435C ?SetCoreApiParentNotifySink@CTSCoreApi@@UEAAJPEAVITSCoreApiNotifySink@@@Z
001943A8 ?GetCoreApiParentNotifySink@CTSCoreApi@@UEAAJPEAPEAVITSCoreApiNotifySink@@@Z
001943E4 ?TSCreateCoreAPI@@YAJPEAVITSCoreEvents@@PEAPEAVITSCoreApi@@@Z
00194564 ??_ECTSCoreApi@@UEAAPEAXI@Z
0019459C ??1CTSCoreApi@@UEAA@XZ
00194728 ?Initialize@CTSCoreApi@@UEAAJPEAVITSGraphics@@PEAVITSVirtualChannelPluginLoader@@PEAVITSTransportStack@@PEAVITSConnectionSequenceNotifySink@@PEAVITSInput@@PEAVITSCoreGraphicsStack@@PEAVITSCLX@@PEAVITSCoreEvents@@@Z
001949DC ?Terminate@CTSCoreApi@@UEAAJXZ
00194BFC ?OnNotifyConnect@CTSCoreApi@@UEAAJXZ
00194C68 ?OnNotifyConnected@CTSCoreApi@@UEAAJXZ
00194CD4 ?OnNotifyDisconnect@CTSCoreApi@@UEAAJK@Z
00194D40 ?OnNotifyFinalDisconnect@CTSCoreApi@@UEAAJXZ
00194DD8 ?GetVirtualChannelPluginLoader@CTSCoreApi@@UEAAJPEAPEAVITSVirtualChannelPluginLoader@@@Z
00194E0C ?GetGraphics@CTSCoreApi@@UEAAJPEAPEAVITSGraphics@@@Z
00194E40 ?GetInput@CTSCoreApi@@UEAAJPEAPEAVITSInput@@@Z
00194E78 ?GetTransportStack@CTSCoreApi@@UEAAJPEAPEAVITSTransportStack@@@Z
00194EAC ?GetConnectionSequenceNotifySink@CTSCoreApi@@UEAAJPEAPEAVITSConnectionSequenceNotifySink@@@Z
00194EE0 ?GetCoreGraphicsStack@CTSCoreApi@@UEAAJPEAPEAVITSCoreGraphicsStack@@@Z
00194F18 ?GetCapsMgr@CTSCoreApi@@UEAAJPEAPEAVITSCapabilities@@@Z
00194FCC ?GetCoreFSM@CTSCoreApi@@UEAAJPEAPEAVCoreFSM@@@Z
00195008 ?GetChan@CTSCoreApi@@UEAAJPEAPEAVCChan@@@Z
00195084 ?GetCoreVirtualChannel@CTSCoreApi@@UEAAJPEAPEAVITSCoreVirtualChannel@@@Z
00195118 ?GetIH@CTSCoreApi@@UEAAJPEAPEAVCIH@@@Z
00195198 ?GetCM@CTSCoreApi@@UEAAJPEAPEAVCCM@@@Z
00195218 ?GetConnectionHandler@CTSCoreApi@@UEAAJPEAPEAVCTSConnectionHandler@@@Z
00195250 ?GetCLX@CTSCoreApi@@UEAAJPEAPEAVITSCLX@@@Z
00195288 ?SetConnectionMode@CTSCoreApi@@UEAAJPEAG_KPEAUIUnknown@@@Z
00195328 ?ValidateConnectionSettings@CTSCoreApi@@UEAAJXZ
00195434 ?Connect@CTSCoreApi@@UEAAJXZ
00195588 ?Disconnect@CTSCoreApi@@UEAAJXZ
00195648 ?ForceShutdown@CTSCoreApi@@UEAAJXZ
0019567C ?TryShutdown@CTSCoreApi@@UEAAJXZ
00195780 ?CanAutoReconnect@CTSCoreApi@@UEAAHXZ
001957E8 ?RequestScreenUpdate@CTSCoreApi@@UEAAJJJJJ@Z
001958D0 ?SuppressScreenUpdate@CTSCoreApi@@UEAAJH@Z
00195988 ?SendZeroFontList@CTSCoreApi@@UEAAJXZ
001959F0 ?GetAuthInfoInterface@CTSCoreApi@@UEAAJPEAPEAVITscAuthInfo@@@Z
00195AC8 ?GetServerAuthenticated@CTSCoreApi@@UEAAJPEAH@Z
00195BC0 ?SkipNextServerCertValidation@CTSCoreApi@@UEAAJXZ
00195C54 ?ResetAutoReconnectCookie@CTSCoreApi@@UEAAJXZ
00195CEC ?SetLBInfo@CTSCoreApi@@UEAAJPEAEI@Z
00195DC0 ?InjectVKeys@CTSCoreApi@@UEAAJJPEBFPEBJ@Z
00195E5C ?GetDesktopSize@CTSCoreApi@@UEAAJPEAI0@Z
00195EBC ?GetRemoteMonitorCount@CTSCoreApi@@UEAAJPEAK@Z
00195F2C ?GetRemoteMonitorsBoundingBox@CTSCoreApi@@UEAAJPEAJ000@Z
00195FD8 ?GetRemoteMonitorsBoundingBoxSize@CTSCoreApi@@UEAAJPEAI0@Z
00196048 ?MonitorConfigMatchesLocalLayout@CTSCoreApi@@UEAAHXZ
001960A0 ?FatalError@CTSCoreApi@@UEAAXH@Z
001960C0 ?ValidateServerName@CTSCoreApi@@CAHPEBGH@Z
00196230 ?GetStackPropertySet@CTSRdpConnectionStack@@QEAAJPEAPEAVITSPropertySet@@@Z
001962B0 ?GetAuthLevel@CTsAuthUtil@@SAJPEAVITSCoreApi@@PEAK@Z
0019635C ?GetUseCredSsp@CTsAuthUtil@@SAJPEAVITSCoreApi@@PEAH@Z
00196440 ?GetSkipSecurityLayerNegotiation@CTsAuthUtil@@SAJPEAVITSCoreApi@@PEAH@Z
00196508 ??_GCodecCapsManager@@UEAAPEAXI@Z
0019655C ??0CCoreCapabilitiesManager@@QEAA@PEAVITSCoreApiInternal@@@Z
00196698 ??_GCCoreCapabilitiesManager@@MEAAPEAXI@Z
001966D0 ??1CCoreCapabilitiesManager@@MEAA@XZ
00196838 ?Initialize@CCoreCapabilitiesManager@@UEAAJXZ
001968E8 ?DeleteCaps@CCoreCapabilitiesManager@@UEAAJXZ
00196980 ?Terminate@CCoreCapabilitiesManager@@UEAAJXZ
001969A8 ?ResetCaps@CCoreCapabilitiesManager@@UEAAJXZ
00196AC0 ?GetReceivedCapSet@CCoreCapabilitiesManager@@UEAAJIPEAIPEAPEAE@Z
00196B04 ?GetCapSet@CCoreCapabilitiesManager@@AEAAJIPEAUtagTS_COMBINED_CAPABILITIES@@IPEAIPEAPEAE@Z
00196B90 ?GetCapSet@CCoreCapabilitiesManager@@UEAAJPEAPEAUtagTS_CAPABILITYHEADER@@I_K@Z
00196C04 ?CapSetExists@CCoreCapabilitiesManager@@UEAAHI@Z
00196C68 ?AddCapSet@CCoreCapabilitiesManager@@UEAAJPEAEI@Z
00196D64 ?StoreDemandActiveData@CCoreCapabilitiesManager@@QEAAJPEAUtagTS_DEMAND_ACTIVE_PDU@@I@Z
00197020 ?GetDynamicCapSet@CCoreCapabilitiesManager@@UEAAJIAEAV?$TCntPtr@VRefCnt@@@@@Z
001970F0 ?WriteCaps@CCoreCapabilitiesManager@@QEBAJPEAEI@Z
001971B8 ?NonDelegatingQueryInterface@CCoreCapabilitiesManager@@UEAAJAEBU_GUID@@PEAPEAX@Z
00197274 ??_ECTSCoreGraphics@@UEAAPEAXI@Z
001972AC ??1CTSCoreGraphics@@UEAA@XZ
00197350 ?Initialize@CTSCoreGraphics@@UEAAJPEAVITSCoreApiInternal@@PEAVITSGraphics@@PEAVITSCoreGraphicsStack@@@Z
0019741C ?Terminate@CTSCoreGraphics@@UEAAJXZ
001974B4 ?Enable@CTSCoreGraphics@@UEAAJXZ
0019752C ?Disable@CTSCoreGraphics@@UEAAJXZ
0019755C ?Disconnect@CTSCoreGraphics@@UEAAJXZ
0019758C ?ProcessCaps@CTSCoreGraphics@@UEAAJPEAVITSCapabilities@@PEAUtagTS_ORDER_CAPABILITYSET@@PEAUtagTS_BITMAPCACHE_CAPABILITYSET_HOSTSUPPORT@@PEAUtagTS_DRAW_GDIPLUS_CAPABILITYSET@@@Z
001975BC ?ProcessOrders@CTSCoreGraphics@@UEAAJIPEAEI@Z
001975E0 ?ProcessPalette@CTSCoreGraphics@@UEAAJPEAEI@Z
00197650 ?ProcessBitmap@CTSCoreGraphics@@UEAAJPEAEI@Z
001976F8 ?ProcessBitmapRect@CTSCoreGraphics@@IEAAJPEFAUtagTS_BITMAP_DATA@@@Z
00197C1C ?ResetGraphics@CTSCoreGraphics@@IEAAXXZ
00197D10 ?ProcessSurfaceCommands@CTSCoreGraphics@@UEAAJPEAEIPEAH@Z
00197E4C ?ProcessUpdateSurfaceBits@CTSCoreGraphics@@IEAAJPEFAUtagTS_SET_SURFACE_BITS_CMD@@@Z
00198310 ?SaveAndResetClipRegion@CTSCoreGraphics@@IEAAJXZ
001983B8 ?RestoreClipRegion@CTSCoreGraphics@@IEAAJXZ
00198440 ?SetConnectOptions@CTSCoreGraphics@@UEAAXK@Z
00198460 ?SendPersistentKeysAndFontList@CTSCoreGraphics@@UEAAXPEAVCFS@@@Z
001984A8 ??_ECOR@@MEAAPEAXI@Z
001984E0 ??1COR@@MEAA@XZ
00198590 ?Initialize@COR@@UEAAJXZ
00198630 ?Terminate@COR@@UEAAJXZ
001986C4 ??_GCFS@@MEAAPEAXI@Z
001986FC ??1CFS@@MEAA@XZ
00198784 ?Initialize@CFS@@UEAAJXZ
001987B8 ?Terminate@CFS@@UEAAJXZ
0019880C ?FS_SendZeroFontList@CFS@@QEAAXI@Z
001989A0 ??0CIH@@QEAA@PEAVITSCoreApiInternal@@@Z
00198AA0 ??_GCIH@@MEAAPEAXI@Z
00198AD8 ??1CIH@@MEAA@XZ
00198C58 ?Initialize@CIH@@UEAAJXZ
00198E04 ?Terminate@CIH@@UEAAJXZ
00198EC8 ?OnNotifyFocusGained@CIH@@UEAAJ_K@Z
00198EEC ?OnNotifyFocusLost@CIH@@UEAAJXZ
00198F10 ?BeginInputBatch@CIH@@UEAAJPEAIPEAH@Z
00198F5C ?AddKeyboardEventToBatch@CIH@@UEAAJPEAUtagTS_INPUT_KBD_DATA@@K@Z
00198FC8 ?AddMouseEventToBatch@CIH@@UEAAJW4TS_INPUT_MOUSE_EVENT_TYPE@@PEATtagTS_INPUT_MOUSE_DATA@@K@Z
00199044 ?HintMaybeSendBatch@CIH@@UEAAJII@Z
00199080 ?EndInputBatch@CIH@@UEAAJII@Z
001990EC ?AddSyncEvent@CIH@@UEAAJK@Z
00199198 ?QueryInputCapabilities@CIH@@UEAAJPEAPEAUtagTS_INPUT_CAPABILITYSET@@@Z
001991F8 ?OnEnableResponse@CIH@@UEAAJXZ
0019928C ?OnDisableResponse@CIH@@UEAAJXZ
001992B0 ?OnBufferAvailableResponse@CIH@@UEAAJXZ
001992F8 ?NonDelegatingQueryInterface@CIH@@UEAAJAEBU_GUID@@PEAPEAX@Z
001993B4 ??0CCM@@QEAA@PEAVITSCoreApiInternal@@@Z
00199474 ??_ECCM@@MEAAPEAXI@Z
001994AC ??1CCM@@MEAA@XZ
00199578 ?Initialize@CCM@@UEAAJXZ
0019964C ?Terminate@CCM@@UEAAJXZ
00199718 ?CM_OnReceivedCaps@CCM@@QEAAJPEAVITSCapabilities@@@Z
0019988C ?CM_Disable@CCM@@QEAAX_K@Z
001998F0 ?CM_DefaultSystemPointerPDU@CCM@@QEAAXXZ
0019994C ?CM_ColorPointerPDU@CCM@@QEAAJPEFAUtagTS_COLORPOINTERATTRIBUTE@@I@Z
00199A4C ?CM_CachedPointerPDU@CCM@@QEAAXI@Z
00199AB8 ?CM_PointerPDU@CCM@@QEAAJPEFAUtagTS_POINTERATTRIBUTE@@I@Z
00199B54 ?CMCreateColorCursor@CCM@@AEAAJIPEFAUtagTS_COLORPOINTERATTRIBUTE@@IPEAPEAX@Z
00199C88 ?CMCreateNewCursor@CCM@@AEAAJPEFAUtagTS_POINTERATTRIBUTE@@IPEAPEAX1@Z
00199DFC ??0CTSConnectionHandler@@QEAA@PEAVITSCoreApiInternal@@@Z
00199ED0 ??_GCTSConnectionHandler@@UEAAPEAXI@Z
00199F08 ??1CTSConnectionHandler@@UEAA@XZ
0019A02C ?Initialize@CTSConnectionHandler@@UEAAJPEAVITSConnectionSequenceNotifySink@@@Z
0019A318 ?Terminate@CTSConnectionHandler@@UEAAJXZ
0019A514 ?InitializeDefaultSettings@CTSConnectionHandler@@UEAAJXZ
0019A5D8 ?ValidateConnectionSettings@CTSConnectionHandler@@UEAAJW4CONNECTIONMODE@@PEAH@Z
0019A64C ?Connect@CTSConnectionHandler@@UEAAJW4CONNECTIONMODE@@@Z
0019A7F8 ?ConnectWithCurrentParams@CTSConnectionHandler@@IEAAJW4CONNECTIONMODE@@@Z
0019AC2C ?EstablishConnection@CTSConnectionHandler@@IEAAJXZ
0019ACFC ?OnConnected@CTSConnectionHandler@@UEAAXXZ
0019AE8C ?CanAutoReconnect@CTSConnectionHandler@@QEAAHXZ
0019AF60 ?OnDisconnected@CTSConnectionHandler@@QEAAXK@Z
0019B0EC ?GoDisconnected@CTSConnectionHandler@@IEAAXI@Z
0019B14C ?AsyncOnNotifyDisconnectResult@CTSConnectionHandler@@UEAAXIH@Z
0019B190 ?ContinueDisconnected@CTSConnectionHandler@@QEAAXI@Z
0019B318 ?StaticShutdownTimerHandler@CTSConnectionHandler@@SAXPEAX@Z
0019B36C ?StaticDisconnectionTimerHandler@CTSConnectionHandler@@SAXPEAX@Z
0019B3C0 ?OnLoginComplete@CTSConnectionHandler@@QEAAXXZ
0019B448 ?OnMonitorLayoutReceived@CTSConnectionHandler@@QEAAJPEAEI@Z
0019B5C0 ?UpdateSessionInfo@CTSConnectionHandler@@QEAAXPEAGI0II@Z
0019B63C ?SetServerRedirectionInfo@CTSConnectionHandler@@QEAAJIPEBGPEAEIH@Z
0019B764 ?SetServerAddressesToConnect@CTSConnectionHandler@@QEAAJPEAGKK@Z
0019B914 ?OnNotifyPublicKey@CTSConnectionHandler@@QEAAJPEAUtagTS_NOTIFY_PUBLIC_KEY@@@Z
0019B988 ?CCEnableShareSendCmpnts@CoreFSM@@AEAAJH@Z
0019BAEC ?CCFSMProc@CoreFSM@@AEAAJW4coreFsmEvent@@_KI@Z
0019C064 ?OnNotifyShutdownComplete@CoreFSM@@AEAAXXZ
0019C0C0 ?OnInitiateConnection@CoreFSM@@AEAAJPEAUtagCONNECTSTRUCT@@@Z
0019C72C ?StartStackConnection@CoreFSM@@AEAAJPEAGPEAEK@Z
0019C7EC ?OnDemandActive@CoreFSM@@AEAAJ_KI@Z
0019C904 ?HandleSentConfirmActive@CoreFSM@@AEAAJH@Z
0019C990 ?CCBuildConfirmActivePDU@CoreFSM@@AEAAJXZ
0019CAF4 ?CCSendPDU@CoreFSM@@AEAAJIIII@Z
0019CD20 ?CCBuildShareHeaders@CoreFSM@@AEAAXXZ
0019CE04 ?RevertToSingleMonitorConfig@CoreFSM@@AEAAJXZ
0019CEC4 ?PopulateCodecCapabilities@CoreFSM@@AEAAXXZ
0019D068 ?CCShareStart@CoreFSM@@AEAAJPEAUtagTS_DEMAND_ACTIVE_PDU@@IPEAH@Z
0019D690 ?CCShareEnd@CoreFSM@@AEAAXXZ
0019D6F0 ?StaticOnOverallProtocolTimerFired@CoreFSM@@CAXPEAX@Z
0019D724 ?TSCreateConnectionStack@@YAJPEAPEAVITSConnectionStack@@@Z
0019D7F4 ??0CTSConnectionStackManager@@IEAA@XZ
0019D8B8 ??_ECTSConnectionStackManager@@MEAAPEAXI@Z
0019D8F0 ??1CTSConnectionStackManager@@MEAA@XZ
0019D98C ?Initialize@CTSConnectionStackManager@@UEAAJXZ
0019D9D0 ?Terminate@CTSConnectionStackManager@@UEAAJXZ
0019DAE8 ?PushProtocolHandler@CTSConnectionStackManager@@UEAAJPEAVITSProtocolHandler@@@Z
0019DBD4 ?PushConnectionNamedPoint@CTSConnectionStackManager@@UEAAJPEBG@Z
0019DE64 ?FindFirstProtocolHandlerNode@CTSConnectionStackManager@@AEAAPEAXXZ
0019DF08 ?FindNextProtocolHandlerNode@CTSConnectionStackManager@@AEAAPEAXPEAXPEAPEAVITSProtocolHandler@@@Z
0019E02C ?FindPrevProtocolHandlerNode@CTSConnectionStackManager@@AEAAPEAXPEAXPEAPEAVITSProtocolHandler@@@Z
0019E150 ?FindNamedLocation@CTSConnectionStackManager@@AEAAPEAXPEBG@Z
0019E238 ?FindHandlerByName@CTSConnectionStackManager@@AEAAPEAXPEBGPEAPEAVITSProtocolHandler@@@Z
0019E384 ?PopProtocolHandler@CTSConnectionStackManager@@UEAAJPEAPEAVITSProtocolHandler@@@Z
0019E5E8 ?InsertProtocolHandler@CTSConnectionStackManager@@UEAAJPEAVITSProtocolHandler@@W4TSProtocolHandlerLocationPoint@ITSConnectionStack@@PEAG@Z
0019E8A4 ?GetProtocolHandler@CTSConnectionStackManager@@UEAAJW4TSProtocolHandlerLocationPoint@ITSConnectionStack@@PEAGPEAPEAVITSProtocolHandler@@@Z
0019EAE8 ?NotifyAllHandlerNeighbours@CTSConnectionStackManager@@IEAAJXZ
0019EDAC ?CreateInstance@CTSConnectionStackManagerNode@@SAJPEAVITSProtocolHandler@@PEAPEAV1@@Z
0019EEB4 ??_ECProtocolHandlerPlaceNode@@UEAAPEAXI@Z
0019EF24 ??_GCProtocolHandlerNode@@UEAAPEAXI@Z
0019EF5C ??1CProtocolHandlerNode@@UEAA@XZ
0019EFE0 ?Terminate@CProtocolHandlerNode@@UEAAJXZ
0019F014 ??_GCTSNetBuffer@@MEAAPEAXI@Z
0019F04C ??0CTSNetBuffer@@QEAA@PEAVITSObjectPool@@@Z
0019F0DC ?CreateInstance@CTSNetBuffer@@SAJPEAV?$CTSObjectPool@VCTSNetBuffer@@@@KPEAE_KHPEAPEAVITSNetBuffer@@@Z
0019F31C ?FillBuffer@CTSNetBuffer@@UEAAJPEAEK@Z
0019F3A0 ??_GCTSNetInputBuffer@@UEAAPEAXI@Z
0019F3D8 ?SetInitialBufferSize@CTSNetInputBuffer@@QEAAJKKK@Z
0019F45C ??1CTSNetInputBuffer@@UEAA@XZ
0019F4AC ?Terminate@CTSNetInputBuffer@@UEAAJXZ
0019F4EC ?ReceiveToBuffer@CTSNetInputBuffer@@QEAAJPEAVITSProtocolHandler@@PEAH1@Z
0019F5F4 ?NonDelegatingQueryInterface@CTSConnectionStackManager@@UEAAJAEBU_GUID@@PEAPEAX@Z
0019F6F0 ??0CTSX224Filter@@QEAA@PEAVITSCoreApiInternal@@PEAVCTSRdpConnectionStack@@@Z
0019F84C ??_ECTSX224Filter@@MEAAPEAXI@Z
0019F884 ??1CTSX224Filter@@MEAA@XZ
0019F990 ?Initialize@CTSX224Filter@@UEAAJXZ
0019FAC8 ?Terminate@CTSX224Filter@@UEAAJXZ
0019FBD0 ?GetBuffer@CTSX224Filter@@UEAAJKHPEAPEAVITSNetBuffer@@@Z
0019FC04 ?SendBuffer@CTSX224Filter@@UEAAJPEAVITSNetBuffer@@KKKKK@Z
0019FCE8 ?OnConnected@CTSX224Filter@@UEAAJXZ
0019FE5C ?XTSendCR@CTSX224Filter@@QEAAJXZ
001A0218 ?XTHandleNegRsp@CTSX224Filter@@QEAAJPEAUtagXT_CMNHDR@@GPEAH@Z
001A02F8 ?XTFireSecurityNegotiationComplete@CTSX224Filter@@QEAAJXZ
001A03F0 ?XTHandleX224ConnectConfirm@CTSX224Filter@@QEAAXPEAUtagXT_CMNHDR@@@Z
001A06A8 ?XTInsertSslFilter@CTSX224Filter@@QEAAJXZ
001A0820 ?OnDisconnected@CTSX224Filter@@UEAAJK@Z
001A08A0 ?ReadData@CTSX224Filter@@UEAAKPEAEK@Z
001A0910 ?OnDataAvailable@CTSX224Filter@@UEAAJKPEAEPEAH@Z
001A109C ?Connect@CTSX224Filter@@UEAAJPEBGPEAEK@Z
001A12B8 ?SecLayerNegCompleteCallback@CTSX224Filter@@UEAAXJ@Z
001A1390 ?DisconnectWithErrorCode@CTSX224Filter@@QEAAJK@Z
001A1418 ?NonDelegatingQueryInterface@CTSX224Filter@@UEAAJAEBU_GUID@@PEAPEAX@Z
001A14A4 ?StringCchPrintfA@@YAJPEAD_KPEBDZZ
001A1510 ??0CMCS@@QEAA@PEAVITSCoreApiInternal@@PEAVCTSRdpConnectionStack@@@Z
001A1648 ??_ECMCS@@MEAAPEAXI@Z
001A1680 ??1CMCS@@MEAA@XZ
001A1780 ?Initialize@CMCS@@UEAAJXZ
001A19A0 ?Terminate@CMCS@@UEAAJXZ
001A1AD4 ?Connect@CMCS@@UEAAJPEBGPEAEK@Z
001A1C68 ?Disconnect@CMCS@@UEAAJK@Z
001A1D10 ?GetBuffer@CMCS@@UEAAJKHPEAPEAVITSNetBuffer@@@Z
001A1DC8 ?SendBuffer@CMCS@@UEAAJPEAVITSNetBuffer@@KKKKK@Z
001A1EFC ?MCS_JoinChannel@CMCS@@QEAAXII@Z
001A1FD0 ?OnConnected@CMCS@@UEAAJXZ
001A2030 ?OnDisconnected@CMCS@@UEAAJK@Z
001A217C ?OnDataAvailable@CMCS@@UEAAJKPEAEPEAH@Z
001A25C0 ?OnBufferAvailable@CMCS@@UEAAJXZ
001A266C ??0CSL@@QEAA@PEAVITSCoreApiInternal@@PEAVCTSRdpConnectionStack@@@Z
001A2770 ??_ECSL@@MEAAPEAXI@Z
001A27A8 ??1CSL@@MEAA@XZ
001A28DC ?Initialize@CSL@@UEAAJXZ
001A2A94 ?Terminate@CSL@@UEAAJXZ
001A2D84 ?HeavyInitialize@CSL@@UEAAJXZ
001A2F54 ?Connect@CSL@@UEAAJPEBGPEAEK@Z
001A3248 ?Disconnect@CSL@@UEAAJK@Z
001A32BC ?GetBuffer@CSL@@UEAAJKHPEAPEAVITSNetBuffer@@@Z
001A339C ?SendBuffer@CSL@@UEAAJPEAVITSNetBuffer@@KKKKK@Z
001A3760 ?SendFastPathInput@CSL@@UEAAJPEAVITSNetBuffer@@KK@Z
001A3A98 ?SL_SendSecurityPacket@CSL@@QEAAXPEAXI@Z
001A3B8C ?SL_SendSecInfoPacket@CSL@@QEAAXPEAXI@Z
001A3D54 ??0CCO@@QEAA@PEAVITSCoreApiInternal@@PEAVCTSRdpConnectionStack@@@Z
001A3E78 ??_GCCO@@MEAAPEAXI@Z
001A3EB0 ??1CCO@@MEAA@XZ
001A407C ?Initialize@CCO@@UEAAJXZ
001A445C ?Terminate@CCO@@UEAAJXZ
001A4694 ?OnConnected@CCO@@UEAAJKPEAXKK@Z
001A46B8 ?OnTransportConnected@CCO@@UEAAJXZ
001A4740 ?OnDisconnected@CCO@@UEAAJK@Z
001A4768 ?internalDecompress@CCO@@AEAAJKHPEAEKHKPEAPEAEPEAK2@Z
001A4888 ?AddFragmentToReassemblyBuffer@CCO@@QEAAJEEPEAPEAEPEAK@Z
001A4964 ?OnPacketReceived@CCO@@UEAAJPEAEKKKK@Z
001A5080 ?OnFastPathOutputReceived@CCO@@UEAAJPEAEKHHH@Z
001A5798 ?OnSlowPathUpdateReceived@CCO@@QEAAJPEAEI@Z
001A5858 ?OnBufferAvailable@CCO@@UEAAJXZ
001A58B8 ?OnSaveSessionInfoPDU@CCO@@AEAAJPEAUtagTS_SAVE_SESSION_INFO_PDU_DATA@@I@Z
001A5B44 ?OnLogonErrors@CCO@@AEAAJPEAPEAEI@Z
001A5C00 ?OnServerRedirectionPacket@CCO@@QEAAJPEFAURDP_SERVER_REDIRECTION_PACKET@@I@Z
001A6780 ?internalVerifyLBInfo@CCO@@AEAAJHPEAEK@Z
001A6914 ?AllocateMFUContexts@CCO@@AEAAJIK@Z
001A6B98 ?OnCapsReceived@CCO@@QEAAJPEAVITSCapabilities@@PEAHPEAK@Z
001A6EF4 ??_G?$CTSObjectPool@VCTSUpdateBufferResult@@@@MEAAPEAXI@Z
001A6F88 ?Initialize@?$CTSObjectPool@VCTSUpdateBufferResult@@@@UEAAJXZ
001A70E4 ?CreateInstance@?$CTSObjectPool@VCTSUpdateBufferResult@@@@SAJIPEAPEAV1@@Z
001A71FC ?CreateInstancePool@CTSUpdateBufferResult@@SAJIIPEAPEAV?$CTSObjectPool@VCTSUpdateBufferResult@@@@@Z
001A7430 ??_ECTSUpdateBufferResult@@MEAAPEAXI@Z
001A74B4 ?Terminate@CTSUpdateBufferResult@@UEAAJXZ
001A74FC ?GetPooledObject@?$CTSObjectPool@VCTSUpdateBufferResult@@@@QEAAJPEAPEAVCTSUpdateBufferResult@@HH@Z
001A75F0 ?CM_SlowPathPDU@CCM@@QEAAJPEFAUtagTS_POINTER_PDU_DATA@@I@Z
001A7770 ??0CTSProtocolHandlerBase@@QEAA@PEAVITSCoreApiInternal@@PEBGPEBD@Z
001A787C ??_ECTSProtocolHandlerBase@@UEAAPEAXI@Z
001A78B4 ??1CTSProtocolHandlerBase@@UEAA@XZ
001A796C ?Terminate@CTSProtocolHandlerBase@@UEAAJXZ
001A7A10 ?OnJoinStack@CTSProtocolHandlerBase@@UEAAJPEAVITSConnectionStack@@PEAX@Z
001A7A9C ?OnUpdateHandlers@CTSProtocolHandlerBase@@UEAAJPEAVITSProtocolHandler@@0@Z
001A7B18 ?OnLeaveStack@CTSProtocolHandlerBase@@UEAAJXZ
001A7BC0 ?Connect@CTSProtocolHandlerBase@@UEAAJPEBGPEAEK@Z
001A7BF4 ?Disconnect@CTSProtocolHandlerBase@@UEAAJK@Z
001A7C30 ?DropLinkImmediate@CTSProtocolHandlerBase@@UEAAJK@Z
001A7C80 ?SendBuffer@CTSProtocolHandlerBase@@UEAAJPEAVITSNetBuffer@@KKKKK@Z
001A7D2C ?OnDisconnected@CTSProtocolHandlerBase@@UEAAJK@Z
001A7D98 ?BDDecompressBitmap8@@YAJPEAE0IIEG@Z
001A8BB4 ?BDDecompressBitmap15@@YAJPEAE0IIG@Z
001A9ED8 ?BDDecompressBitmap16@@YAJPEAE0IIG@Z
001AB1FC ?BDDecompressBitmap24@@YAJPEAE0IIG@Z
001AC738 ?BDDecompressBitmap32@@YAJPEAE0IIG@Z
001AE0B4 ?BD_DecompressBitmap@@YAJPEAE0IIIEHGG0IHPEAVITSGraphicsSurface@@IIIIPEAH@Z
001AE970 ?ORSendRefreshRectanglePDU@COR@@AEAAXXZ
001AEAF0 ?ORSendSuppressOutputPDU@COR@@AEAAXXZ
001AECB4 ?IHFSMProc@CIH@@AEAAJI_K@Z
001AEE90 ?IHAddKbdEventToPDU@CIH@@AEAAHPEAUtagTS_INPUT_KBD_DATA@@@Z
001AEFB0 ?IHAddMouseEventToPDU@CIH@@AEAAHW4TS_INPUT_MOUSE_EVENT_TYPE@@PEATtagTS_INPUT_MOUSE_DATA@@@Z
001AF25C ?IHMaybeSendPDU@CIH@@AEAAXXZ
001AF4F4 ?IHTranslateInputToFastPath@CIH@@AEAAIPEAI@Z
001AF668 ?IHInitPacket@CIH@@QEAAXXZ
001AF774 ??0CTSAutoReconnectionHandler@@QEAA@PEAVITSCoreApiInternal@@PEAVCTSConnectionHandler@@PEAVITSConnectionSequenceNotifySink@@@Z
001AF8AC ??_GCTSAutoReconnectionHandler@@MEAAPEAXI@Z
001AF8E4 ??1CTSAutoReconnectionHandler@@MEAA@XZ
001AF9A4 ?Initialize@CTSAutoReconnectionHandler@@UEAAJXZ
001AFA94 ?Terminate@CTSAutoReconnectionHandler@@UEAAJXZ
001AFC38 ?StaticARCNetworkConnected@CTSAutoReconnectionHandler@@CAIPEAX@Z
001AFC54 ?StaticARCNetworkDisconnected@CTSAutoReconnectionHandler@@CAIPEAX@Z
001AFC70 ?ARCNetworkConnected@CTSAutoReconnectionHandler@@AEAAXXZ
001AFD24 ?ARCNetworkDisconnected@CTSAutoReconnectionHandler@@AEAAXXZ
001AFE60 ?StaticARCTimerHandler@CTSAutoReconnectionHandler@@CAXPEAX@Z
001AFEB4 ?OnAutoReconnecting@CTSAutoReconnectionHandler@@AEAAJJJJHPEAW4ARCContinueState@@@Z
001AFF4C ?OnNotifyDisconnected@CTSAutoReconnectionHandler@@QEAAXJKPEAH@Z
001B01C4 ?NonDelegatingQueryInterface@CTSTransportAddresses@@UEAAJAEBU_GUID@@PEAPEAX@Z
001B027C ??_ECTSTransportAddresses@@UEAAPEAXI@Z
001B0328 ??0CNC@@QEAA@PEAVITSCoreApiInternal@@PEAVCMCS@@PEAVCTSRdpConnectionStack@@@Z
001B0474 ??_GCNC@@MEAAPEAXI@Z
001B04AC ??1CNC@@MEAA@XZ
001B05AC ?Initialize@CNC@@UEAAJXZ
001B066C ?Terminate@CNC@@UEAAJXZ
001B0778 ?NC_GetMONITORData@CNC@@AEAAIPEFAUtagRNS_UD_CS_MONITOR@@PEAUtagTS_MONITOR_DEF@@@Z
001B0938 ?NC_PrepareGccUserData@CNC@@QEAAJPEAXIPEAEPEAKPEAI33@Z
001B0B6C ?NC_PrepareMcsUserData@CNC@@QEAAJPEAEI0I0PEAI@Z
001B0CA8 ?MCSSendConnectInitial@CMCS@@QEAAXXZ
001B11D8 ?MCSGetPERInfo@CMCS@@AEAAJPEAI0@Z
001B12B0 ?MCSHandleControlPkt@CMCS@@AEAAJXZ
001B153C ?MCSHandleCRPDU@CMCS@@AEAAJXZ
001B1734 ?MCSRecvData@CMCS@@AEAAJPEAH@Z
001B1AC4 ?NC_OnMCSConnected@CNC@@QEAAJIPEAEI@Z
001B1E48 ?NC_OnMCSChannelJoinConfirm@CNC@@QEAAXIGPEAH@Z
001B204C ??0CLic@@QEAA@PEAVITSCoreApiInternal@@PEAVCSL@@PEAVCTSRdpConnectionStack@@@Z
001B2154 ??_ECLic@@MEAAPEAXI@Z
001B218C ??1CLic@@MEAA@XZ
001B2210 ?Terminate@CLic@@UEAAJXZ
001B227C ?CLicenseInit@CLic@@QEAAHPEAPEAX@Z
001B23A8 ?CLicenseData@CLic@@QEAAHPEAX0KPEAI@Z
001B2650 ?CLicenseTerm@CLic@@QEAAHPEAX@Z
001B2714 ?OnConnected@CSL@@UEAAJKPEAXKK@Z
001B2B9C ?SLValidateServerCert@CSL@@AEAAHPEAEIPEAW4CERT_TYPE@@@Z
001B2F60 ?OnDisconnected@CSL@@UEAAJK@Z
001B3010 ?OnPacketReceived@CSL@@UEAAJPEAEKKKK@Z
001B31F0 ?OnFastPathOutputReceived@CSL@@UEAAJPEAEKHHH@Z
001B3460 ?OnBufferAvailable@CSL@@UEAAJXZ
001B349C ?SLSendSecInfoPacket@CSL@@AEAAJXZ
001B42B0 ?SLSendSecurityPacket@CSL@@AEAAHPEAEI@Z
001B446C ?SLReceivedDataPacket@CSL@@AEAAJPEAEIIII@Z
001B458C ?SLDecryptRedirectionPacket@CSL@@AEAAHPEAPEAEPEAK@Z
001B4798 ?SLInitSecurity@CSL@@AEAAJXZ
001B498C ?SLFreeConnectResources@CSL@@AEAAXXZ
001B4A80 ?SLFreeInitResources@CSL@@AEAAXXZ
001B4AD8 ?SL_DecryptHelper@CSL@@AEAAHPEAEPEAI@Z
001B4CD0 ?SLLicenseData@CSL@@QEAAXPEAEK@Z
001B4E58 ?SLComputeHMACVerifier@CSL@@AEAAHPEAEJ0J0J@Z
001B4F28 ?SLVerifyCertChain@CSL@@AEAAKPEAEK0PEAK1@Z
001B4FAC ?SLStartLicensingTimer@CSL@@AEAAJJ@Z
001B50BC ?StaticOnLicensingTimerFired@CSL@@CAXPEAX@Z
001B50F0 ?SLGetClientDir@CSL@@AEAAJPEAE@Z
001B528C ??_GCSessionIdleDetector@@MEAAPEAXI@Z
001B52D8 WPP_SF_ddddd
001B534C WPP_SF_DDdd
001B53B8 WPP_SF_DL
001B540C WPP_SF_DLL
001B546C WPP_SF_ddddddDD
001B5510 WPP_SF_lllll
001B5588 ?UH_SetClipRegion@CUH@@QEAAXHHHH@Z
001B5688 ?UH_OnUnknownAltSecPacket@CUH@@QEAAJIPEAEIPEAI1@Z
001B57B4 ?UHUseBrush@CUH@@QEAAJIIUtagTSCOLOR@@IQEAE@Z
001B5E68 ?UHUseSolidPaletteBrush@CUH@@QEAAXUtagTSCOLOR@@@Z
001B5F64 ?UHUsePen@CUH@@QEAAJIIUtagTSCOLOR@@I@Z
001B6078 ?UHResetDCState@CUH@@AEAAXXZ
001B6378 ?Decode2ByteField@@YAJPEAPEAEPEAEPEAG@Z
001B6450 ?Decode4ByteField@@YAJPEAPEAEPEAEPEAI@Z
001B6608 ?UHSendBitmapCacheErrorPDU@CUH@@QEAAHE@Z
001B67DC ?UHSendOffscrCacheErrorPDU@CUH@@QEAAHXZ
001B69A0 ?UHSendDrawNineGridErrorPDU@CUH@@QEAAHXZ
001B6B68 ?UHSendDrawGdiplusErrorPDU@CUH@@QEAAHXZ
001B6D30 ?UHCacheBitmap@CUH@@AEAAJIIPEAUtagTS_SECONDARY_ORDER_HEADER@@PEAUtagUHBITMAPINFO@@PEAE@Z
001B7748 ?UHProcessCacheBitmapOrder@CUH@@AEAAJPEAXI@Z
001B7B50 ?UHIsValidOffsreenBitmapCacheIndex@CUH@@QEAAJI@Z
001B7BE8 ?UHProcessCacheBrushOrder@CUH@@AEAAJPEBUtagTS_CACHE_BRUSH_ORDER@@I@Z
001B8400 ?UHProcessCacheColorTableOrder@CUH@@AEAAJPEAUtagTS_CACHE_COLOR_TABLE_ORDER@@I@Z
001B8658 ?UHCreateOffscrBitmap@CUH@@AEAAJPEAUtagTS_CREATE_OFFSCR_BITMAP_ORDER@@IPEAI@Z
001B8C70 ?UHSwitchSurface@CUH@@QEAAJPEAUtagTS_SWITCH_SURFACE_ORDER@@IPEAVITSGraphicsBitmap@@H@Z
001B8F30 ?UHCalculateColorTableMapping@CUH@@AEAAXI@Z
001B909C ?UHDrawOffscrBitmapBits@CUH@@AEAAJPEAVITSGraphicsSurfaceEx@@PEAU_MEMBLT_COMMON@@@Z
001B93C4 ?UHLoadBitmapBits@CUH@@AEAAXIIPEAPEAUtagUHBITMAPCACHEENTRYHDR@@PEAPEAE@Z
001B974C ?UHGetMemBltBits@CUH@@AEAAPEAEPEAVITSGraphicsSurfaceEx@@IIPEAIPEAPEAUtagUHBITMAPCACHEENTRYHDR@@@Z
001B995C ?UHDrawMemBltOrder@CUH@@QEAAJPEAVITSGraphicsSurfaceEx@@PEAU_MEMBLT_COMMON@@@Z
001B9C54 ?UHAllocColorTableCacheMemory@CUH@@AEAAHXZ
001B9DC0 ?UHEvictLRUCacheEntry@CUH@@AEAAII@Z
001B9EDC ?UHFindFreeCacheEntry@CUH@@AEAAII@Z
001BA004 ?UHTouchMRUCacheEntry@CUH@@AEAAXII@Z
001BA1A8 ?UHInitBitmapCachePageTable@CUH@@AEAAXI@Z
001BA2E4 ?UHCreateCacheDirectory@CUH@@AEAAHXZ
001BA3E8 ?UHAllocOneBitmapCache@CUH@@AEAAIIIPEAPEAX0@Z
001BA5B0 ?UHAllocBitmapCacheMemory@CUH@@AEAAXXZ
001BB200 ?UHReadBitmapCacheSettings@CUH@@AEAAXXZ
001BB510 ?UHSavePersistentBitmap@CUH@@AEAAHPEAXIPEAEPEAUtagUHBITMAPINFO@@@Z
001BB6E0 ?UHLoadPersistentBitmap@CUH@@AEAAJPEAXIIIPEAUtagUHBITMAPCACHEPTE@@@Z
001BBBA8 ?UHAllocBrushCacheMemory@CUH@@AEAAHXZ
001BBD60 ?UHAllocOffscreenCacheMemory@CUH@@AEAAHXZ
001BBF58 ?UHFreeCacheMemory@CUH@@AEAAXXZ
001BC118 ?UHTsGfxCreateBitmap@CUH@@AEAAJUtagTS_GFX_SIZE@@PEAPEAVITSGraphicsBitmap@@PEAPEAVITSGraphicsSurfaceEx@@H@Z
001BC334 ?UHMaybeCreateSaveScreenBitmap@CUH@@AEAAXXZ
001BC430 ?UHResetAndRestartEnumeration@CUH@@QEAAXXZ
001BC57C ?UHSetCurrentCacheFileName@CUH@@AEAAJII@Z
001BC6A4 ?UHGetBitmapCacheCapSet@CUH@@AEAAJPEAPEAUtagTS_BITMAPCACHE_CAPABILITYSET@@@Z
001BC73C ?MACROGENERATED_Static_UI_DisplayBitmapCacheWarning@CUI@@SAXPEAX_K@Z
001BC764 WPP_SF_dDD
001BC7C4 ??_GCUH@@MEAAPEAXI@Z
001BC7FC ??1tagUH_DATA@@QEAA@XZ
001BC928 ??1CUH@@MEAA@XZ
001BCB10 ?Initialize@CUH@@UEAAJXZ
001BCE44 ?Terminate@CUH@@UEAAJXZ
001BCEE4 ?CoreObjectPhase2Initialize@CUH@@UEAAJXZ
001BDD08 ?CoreObjectPhase2Terminate@CUH@@UEAAJXZ
001BE048 ?UHSendPersistentBitmapKeyList@CUH@@QEAAX_K@Z
001BE4EC ?UHReadFromCacheFileForEnum@CUH@@QEAAHXZ
001BE6B0 ?UHEnumerateBitmapKeyList@CUH@@QEAAX_K@Z
001BEBF4 ?UH_ClearOneBitmapDiskCache@CUH@@QEAAXII@Z
001BEC54 ?UH_SetConnectOptions@CUH@@QEAAX_K@Z
001BEEB4 ?UH_SendPersistentKeysAndFontList@CUH@@QEAAXXZ
001BEF4C ?UH_Enable@CUH@@AEAAJXZ
001BFAFC ?UHCommonDisable@CUH@@AEAAXH@Z
001BFC58 ?UH_Disconnect@CUH@@AEAAXXZ
001BFFCC ?Disable@CUH@@UEAAJXZ
001C0020 ?Disconnect@CUH@@UEAAJXZ
001C003C ?ProcessOrders@CUH@@UEAAJIPEAEI@Z
001C0CE8 ?ProcessPalette@CUH@@UEAAJPEAEI@Z
001C1168 ?ProcessCaps@CUH@@UEAAJPEAVITSCapabilities@@PEAUtagTS_ORDER_CAPABILITYSET@@PEAUtagTS_BITMAPCACHE_CAPABILITYSET_HOSTSUPPORT@@PEAUtagTS_DRAW_GDIPLUS_CAPABILITYSET@@@Z
001C1440 ?SendPersistentKeysAndFontList@CUH@@UEAAJXZ
001C1560 ?SendPersistentKeysAndFontListThreadWorker@CUH@@UEAAJPEAVITSAsyncResult@@_K@Z
001C1578 ?SetConnectOptions@CUH@@UEAAJK@Z
001C1620 ?NonDelegatingQueryInterface@CMsComVcPlugin@@UEAAJAEBU_GUID@@PEAPEAX@Z
001C175C ??0CMsComVcPlugin@@QEAA@PEAUIUnknown@@@Z
001C1864 ??_GCMsComVcPlugin@@MEAAPEAXI@Z
001C189C ??1CMsComVcPlugin@@MEAA@XZ
001C1990 ?Initialize@CMsComVcPlugin@@UEAAJXZ
001C1AB4 ?Terminate@CMsComVcPlugin@@UEAAJXZ
001C1BB4 ?InitializeChannelDefs@CMsComVcPlugin@@IEAAJXZ
001C1DA4 ?VirtualChannelEntryEx@CMsComVcPlugin@@QEAAHPEAUtagCHANNEL_ENTRY_POINTS_EX@@PEAUtagCHANNEL_INIT_HANDLE@@@Z
001C1E98 ?VirtualChannelInitEventEx@CMsComVcPlugin@@QEAAXPEAXI0I@Z
001C20D8 ?GetVirtualChannel@CMsComVcPlugin@@UEAAJPEBDPEAPEAVITSVirtualChannel@@@Z
001C21FC ?MSCOMVC_VirtualChannelEntryEx@@YAHPEAUtagCHANNEL_ENTRY_POINTS_EX@@PEAX@Z
001C22A4 ?MSCOMVC_VirtualChannelInitEventEx@@YAXPEAX0I0I@Z
001C2320 ?MSCOMVC_VirtualChannelOpenEventEx@@YAXPEAXKI0III@Z
001C2444 ?NonDelegatingQueryInterface@CClientVirtualChannel@@UEAAJAEBU_GUID@@PEAPEAX@Z
001C2530 ??1CTSVCBufferResult@@UEAA@XZ
001C25A4 ??_ECTSVCBufferResult@@UEAAPEAXI@Z
001C2610 ?CreateInstance@CClientVirtualChannel@@SAJPEAVITSWin32CoreApi@@PEAVCMsComVcPlugin@@KPEBDPEAPEAV1@@Z
001C276C ??0CClientVirtualChannel@@IEAA@PEAVITSWin32CoreApi@@PEAVCMsComVcPlugin@@K@Z
001C283C ??_ECClientVirtualChannel@@MEAAPEAXI@Z
001C290C ?Initialize@CClientVirtualChannel@@IEAAJPEBD@Z
001C2A5C ?Terminate@CClientVirtualChannel@@UEAAJXZ
001C2B18 ?GetName@CClientVirtualChannel@@UEAAJPEADI@Z
001C2BC8 ?Disconnect@CClientVirtualChannel@@UEAAJXZ
001C2C58 ?Write@CClientVirtualChannel@@UEAAJJPEAE@Z
001C2D7C ?GetPacketReceivedEvent@CClientVirtualChannel@@UEAAJPEAI@Z
001C2E14 ?VirtualChannelOpenEventEx@CClientVirtualChannel@@QEAAXIPEAXIII@Z
001C303C ?OnCompleteDataPacketReceived@CClientVirtualChannel@@IEAAXXZ
001C315C ?ChannelClose@CClientVirtualChannel@@IEAAIXZ
001C324C ?ChannelWrite@CClientVirtualChannel@@IEAAHPEAXI@Z
001C3338 LicenseMakeSessionKeys
001C3548 LicenseBuildMasterSecret
001C3734 LicenseGenerateMAC
001C386C LicenseEnvelopeData
001C397C LicenseDecryptSessionData
001C3A14 CreateHWID
001C3AE8 GenerateClientHWID
001C3CAC TLSVerifyProprietyChainedCertificate
001C3F18 LicenseInitializeContext
001C4048 LicenseSetCertificate
001C41D0 LicenseClientHandleServerMessage
001C4554 LicenseClientHandleServerError
001C4610 LicenseClientHandleServerRequest
001C4BD4 LicenseClientHandleServerPlatformChallenge
001C4EF8 LicenseClientHandleNewLicense
001C5240 ClientConstructLicenseInfo
001C56AC ClientConstructNewLicenseRequest
001C5A70 ClientGenerateChallengeResponse
001C5C20 FreeProprietaryCertificate
001C5CCC PackHydraClientNewLicenseRequest
001C5DF0 PackHydraClientLicenseInfo
001C5F24 PackHydraClientPlatformChallengeResponse
001C6010 PackLicenseErrorMessage
001C60C4 UnPackLicenseErrorMessage
001C6194 UnpackHydraServerLicenseRequest
001C6508 UnPackHydraServerPlatformChallenge
001C65FC UnPackHydraServerNewLicense
001C66E0 UnpackNewLicenseInfo
001C6908 ??_GCBuffer@@UEAAPEAXI@Z
001C6AA0 VerifyCertChain
001C6C60 RDPDecompress
001C6D00 initrecvcontextMPPC
001C6D70 decompressMPPC
001C7BA0 ?XC_InitRecvContext@@YAKPEAXKE@Z
001C7C40 ?XC_Decompress@@YAKPEAEKKPEAPEAEPEAKPEAXK@Z
001C7D70 ?XC_DecompressInternal@@YAKPEAEKKPEAPEAEPEAKPEAXK@Z
001C8010 ?XC_GetRecvContextSize@@YAKXZ
001C8030 ?RDPCompress_InitRecvContextNCrush@@YAKPEAXKKE@Z
001C8210 ?RDPDecompressNCrush@@YAKPEAEKKPEAPEAEPEAKPEAXK@Z
001C8870 compressMPPC
001C9910 initsendcontextMPPC
001C99C0 ?makeTable@@YAEFKPEBEPEAG@Z
001C9B90 ?SetupImage@PixelMap@@QEAA_NHHHHE@Z
001C9CB0 ?CopyFrom@PixelMap@@QEAA_NAEBV1@@Z
001C9DB0 ?CopyFrom@PixelMap@@QEAA_NPEBEIIHIIIIIII@Z
001C9F60 ?NSRunLengthDecode@@YAKPEBEKPEAEK@Z
001CA0C0 ?NSUpSample2xColorChannel@@YAXPEBEKKKPEAEK@Z
001CA160 ?YCoCgtoRGB_SSE@@YAXPEBE00HHAEAVPixelMap@@@Z
001CA560 ?EnsureStorage@@YA_NAEAPEAEAEAKK@Z
001CA6B0 ??1NSCodecDecompressor@@QEAA@XZ
001CA6E0 ?IsSupported@NSCodecDecompressor@@SA_NXZ
001CA800 ?Decompress@NSCodecDecompressor@@QEAA_NPEBEIAEAVPixelMap@@@Z
001CACF0 ?EnsureWorkingSpace@NSCodecDecompressor@@AEAA_NHHH@Z
001CAD8C ?TSGetSocketAddress@@YAKPEAGPEAPEAUaddrinfo@@@Z
001CAF5C ?FillSocketAddressList@@YAJPEAV?$CTSSimpleArray@PEAUaddrinfo@@$0BA@@@KPEAUsockaddr_in6_w2ksp1@@HPEAU_SOCKET_ADDRESS_LIST@@@Z
001CB12C GetSortedIpAddressList
001CB258 ?TSSortServerAddresses@@YAJPEAPEAGKPEAUtagServerSocketAddressList@@@Z
001CB6C4 ??_E?$CTSSimpleArray@PEAVCRDPAPICollectionImplItem@@$0BA@@@UEAAPEAXI@Z
001CB710 ?NonDelegatingQueryInterface@CTscAuthenticationBlob@@UEAAJAEBU_GUID@@PEAPEAX@Z
001CB7CC ??_ECTscAuthenticationBlob@@MEAAPEAXI@Z
001CB804 ??1CTscAuthenticationBlob@@MEAA@XZ
001CB8A0 ?Initialize@CTscAuthenticationBlob@@IEAAJPEAXK@Z
001CB9CC ?LoadMemoryProtectionFunctions@CTscAuthenticationBlob@@IEAAHXZ
001CBABC ?EncryptBlob@CTscAuthenticationBlob@@IEAAHXZ
001CBB0C ?CreateInstance@CTscAuthenticationBlob@@SAJPEAXKPEAPEAV1@@Z
001CBCF0 ?GetBlob@CTscAuthenticationBlob@@UEAAJPEAPEAXPEAK@Z
001CBEB4 ??_GCTscCredentialsQueryUi@@MEAAPEAXI@Z
001CBEEC ??1CTscCredentialsQueryUi@@MEAA@XZ
001CBF58 ?CreateInstance@CTscCredentialsQueryUi@@SAJPEAPEAV1@@Z
001CC0DC ?Initialize@CTscCredentialsQueryUi@@MEAAJXZ
001CC200 ?PromptForCredentials@CTscCredentialsQueryUi@@QEAAJPEAUtagTSC_CREDENTIALS_UI_INFO@@PEBGKPEAGPEAPEAGPEA_K34PEAHKKPEAPEAVCTscAuthenticationBlob@@55K@Z
001CC3C0 ?PromptForCredentialsNew@CTscCredentialsQueryUi@@AEAAKPEAUtagTSC_CREDENTIALS_UI_INFO@@KPEAGPEAPEAGPEA_K23PEAHKPEAPEAVCTscAuthenticationBlob@@44K@Z
001CC738 ?PromptForCredentialsOld@CTscCredentialsQueryUi@@AEAAKPEAUtagTSC_CREDENTIALS_UI_INFO@@PEAGPEAPEAGPEA_K23PEAHK44K@Z
001CCA04 ?UnpackBlob@CTscCredentialsQueryUi@@QEAAKHPEAXKPEAPEAGPEA_K12PEAH@Z
001CCE00 ?GetAuthenticationPackageId@CTscCredentialsQueryUi@@AEAAJPEBDPEAK@Z
001CCEFC ?LookupPublisherName@@YAJPEAGAEAVCComBSTR@ATL@@@Z
001CD5A4 ?MatchAudioOutputID@@YAHPEBGK@Z
001CD710 ?MatchAudioInputID@@YAHPEBGK@Z
001CD87C ?GetWaveDevice@@YAJPEBGW4eAudioDeviceType@@PEAK@Z
001CD9A8 ?IsDefaultAudioDevice@@YAHPEBG@Z
001CD9E8 ?IsAudioDeviceDisabled@@YAHPEBG@Z
001CDA28 ?GetPaddedBorderWidth@@YAHPEAUHWND__@@@Z
001CDD48 ??_GCDlgBase@@UEAAPEAXI@Z
001CDD74 ?DoModal@CDlgBase@@UEAAHXZ
001CDF5C ?DoNonModal@CDlgBase@@UEAAPEAUHWND__@@XZ
001CE0EC ?DialogBoxProc@CDlgBase@@UEAA_JPEAUHWND__@@I_K_J@Z
001CE238 ?OnInitDialog@CDlgBase@@IEAAHXZ
001CE288 ?SetDialogAppIcon@CDlgBase@@IEAAXI@Z
001CE2C8 ?CenterWindow@CDlgBase@@IEAAXPEAUHWND__@@HH@Z
001CE53C ?StaticDialogBoxProc@CDlgBase@@KA_JPEAUHWND__@@I_K_J@Z
001CE630 ?RepositionControls@CDlgBase@@IEAAXHHPEAIH@Z
001CE708 ?EnableControls@CDlgBase@@IEAAXPEAIHH@Z
001CE784 ?ShowControls@CDlgBase@@IEAAXPEAIHH@Z
001CE808 ?SetControlText@CDlgBase@@IEAAJHI@Z
001CE89C ?ResizeDialog@CDlgBase@@IEAAXHH@Z
001CE918 ?ResizeComponent@CDlgBase@@IEAAHIHH@Z
001CE9E0 ?RepositionBottomControls@CDlgBase@@IEAAHIIPEAIIH@Z
001CEAD4 ?RepositionBottomControls@CDlgBase@@IEAAXHPEAIIH@Z
001CEB68 ?SetIcon@CDlgBase@@IEAAHPEAUHWND__@@IHH@Z
001CEBD8 ?SetBoldFontOnControl@CDlgBase@@IEAAPEAUHFONT__@@PEAUHWND__@@@Z
001CECD4 ?DrawShieldBanner@CDlgBase@@IEAAHPEAUHDC__@@IIIW4_BANNER_GRADIENT_TYPE@1@@Z
001CF01C ?DrawGradientRectHorz@CDlgBase@@IEAAXPEAUHDC__@@AEBUtagRECT@@KK@Z
001CF0E8 ?FlashDialog@CDlgBase@@IEAAXXZ
001CF148 ?InitBitmaps@CProgressBand@@AEAAHXZ
001CF26C ?PaintBand@CProgressBand@@AEAAHPEAUHDC__@@@Z
001CF400 ?s_WindowSize@CAnimateWindowSize@@CAXII_K00@Z
001CF420 ?_WindowSize@CAnimateWindowSize@@AEAAXI@Z
001CF4E8 ?_ComputeAnimation@CAnimateWindowSize@@AEAAXKPEAUtagSIZE@@@Z
001CF5C8 ?_ComputeSCurveAnimation@CAnimateWindowSize@@AEAANNNN@Z
001CF6A8 ?AnimateWindowSize@@YAJPEAUHWND__@@UtagSIZE@@1KW4AWSTYPE@@I@Z
001CF830 ?ClearFgdCache@CHdropToFgdConverter@@QEAAXXZ
001CF86C ?DoConversion@CHdropToFgdConverter@@QEAAJPEAPEAXPEAXH@Z
001CFB28 ?DoConversionWorker@CHdropToFgdConverter@@AEAAJPEAUHDROP__@@PEAU_DROPFILES@@_K@Z
001CFE74 ?GetFgd@CHdropToFgdConverter@@QEAAJPEAPEAU_FILEGROUPDESCRIPTORW@@H@Z
001CFF84 ?ResizeFgds@CHdropToFgdConverter@@AEAAJI@Z
001D00AC ?AddItemToFgd@CHdropToFgdConverter@@AEAAJPEAG0PEAU_WIN32_FIND_DATAW@@H@Z
001D04CC ?AddDirectoryToFgd@CHdropToFgdConverter@@AEAAJPEBG@Z
001D0C24 ?RegisterRdrWindowClass@CRdrWnd@@SAJPEAGPEAUHINSTANCE__@@P6A_JPEAUHWND__@@I_K_J@Z0@Z
001D0CF0 ?CreateRdrWindow@CRdrWnd@@SAJPEAPEAUHWND__@@PEAGPEAUHINSTANCE__@@PEAXPEBG@Z
001D0DBC ??_ECRdrFileTransfer@@MEAAPEAXI@Z
001D0DF4 ??1CRdrFileTransfer@@MEAA@XZ
001D0E6C ?CopyHdropToTempPath@CRdrFileTransfer@@QEAAJPEAU_DROPFILES@@_K@Z
001D10BC ?CopyFileNameToTempPath@CRdrFileTransfer@@QEAAJPEAG@Z
001D11D0 ?CreateTempPath@CRdrFileTransfer@@IEAAJXZ
001D1328 ?CopyToTempPath@CRdrFileTransfer@@IEAAJPEBG@Z
001D1438 ?DoubleNullTerminateString@CRdrFileTransfer@@IEAAJPEAG_K@Z
001D1524 ??_ECRdrVirtualChannel@@MEAAPEAXI@Z
001D155C ??1CRdrVirtualChannel@@MEAA@XZ
001D15E0 ?CreateClipboardPdu@CRdrVirtualChannel@@UEAAJPEAPEFAUtagTS_CLIP_PDU@@PEAKGGK@Z
001D173C ?SendSimpleClipboardPdu@CRdrVirtualChannel@@UEAAJGG@Z
001D182C ?OnDataAvailable@CRdrVirtualChannel@@UEAAXPEAEK@Z
001D18C8 ?OnWriteComplete@CRdrVirtualChannel@@UEAAXPEAXJ@Z
001D18E8 ??_ECClipRdrPduDispatcher@@MEAAPEAXI@Z
001D1920 ??1CClipRdrPduDispatcher@@MEAA@XZ
001D1A68 ?Initialize@CClipRdrPduDispatcher@@MEAAJXZ
001D1D74 ?Terminate@CClipRdrPduDispatcher@@MEAAJXZ
001D2154 ?DispatchPdu@CClipRdrPduDispatcher@@UEAAJPEFAUtagTS_CLIP_PDU@@K@Z
001D26A8 ?NonDelegatingQueryInterface@CProxyStream@@UEAAJAEBU_GUID@@PEAPEAX@Z
001D2764 ??_GCProxyStreamManager@@MEAAPEAXI@Z
001D287C ?CreateInstance@CProxyStreamManager@@SAJPEAVIStreamDataAcquire@@PEAPEAV1@@Z
001D2A00 ?RemoveUnusedStreamsFromRegister@CProxyStreamManager@@AEAAXXZ
001D2B0C ?Initialize@CProxyStreamManager@@MEAAJXZ
001D2BA4 ?Terminate@CProxyStreamManager@@UEAAJXZ
001D2C44 ?CreateStream@CProxyStreamManager@@QEAAJKJPEAPEAUIStream@@@Z
001D2DD0 ?AddStreamToRegister@CProxyStreamManager@@AEAAJPEAVCProxyStream@@J@Z
001D2EBC ?OnStreamDataReceived@CProxyStreamManager@@QEAAJJPEAEKH@Z
001D308C ??_GCProxyStream@@MEAAPEAXI@Z
001D314C ?CreateInstance@CProxyStream@@SAJPEAVCProxyStreamManager@@KJJPEAPEAV1@@Z
001D3328 ?SendFileContentsRequest@CProxyStream@@AEAAJKK@Z
001D3660 ?ServiceReadFromCache@CProxyStream@@AEAAJPEAXKPEAK@Z
001D37F0 ?Read@CProxyStream@@UEAAJPEAXKPEAK@Z
001D3A04 ?CopyTo@CProxyStream@@UEAAJPEAUIStream@@T_ULARGE_INTEGER@@PEAT3@2@Z
001D3C50 ?Seek@CProxyStream@@UEAAJT_LARGE_INTEGER@@KPEAT_ULARGE_INTEGER@@@Z
001D3CCC ?Stat@CProxyStream@@UEAAJPEAUtagSTATSTG@@K@Z
001D3E40 ?NonDelegatingQueryInterface@CProxyDataObject@@UEAAJAEBU_GUID@@PEAPEAX@Z
001D3EFC ?NonDelegatingQueryInterface@CEnumFormatEtc@@UEAAJAEBU_GUID@@PEAPEAX@Z
001D3FB8 ??0CProxyDataObjectManager@@IEAA@PEAVIFormatDataAcquire@@PEAVCProxyStreamManager@@@Z
001D4070 ??_ECProxyDataObjectManager@@MEAAPEAXI@Z
001D40A8 ??1CProxyDataObjectManager@@MEAA@XZ
001D4198 ?CreateInstance@CProxyDataObjectManager@@SAJPEAVIFormatDataAcquire@@PEAVCProxyStreamManager@@PEAPEAV1@@Z
001D42D8 ?Initialize@CProxyDataObjectManager@@MEAAJXZ
001D4358 ?NonDelegatingQueryInterface@CProxyDataObjectManager@@UEAAJAEBU_GUID@@PEAPEAX@Z
001D443C ?CreateDataObject@CProxyDataObjectManager@@QEAAJXZ
001D44F4 ?OnFormatDataReceived@CProxyDataObjectManager@@QEAAXPEAXI@Z
001D45B4 ?Terminate@CProxyDataObjectManager@@UEAAJXZ
001D4624 ?AcquireUniqueId@CProxyDataObjectManager@@AEAAJPEAK@Z
001D4714 ??_ECProxyDataObject@@MEAAPEAXI@Z
001D474C ??1CProxyDataObject@@MEAA@XZ
001D4904 ?CreateInstance@CProxyDataObject@@SAJPEAVCProxyDataObjectManager@@PEAPEAV1@@Z
001D4AC8 ?Initialize@CProxyDataObject@@MEAAJXZ
001D4BE8 ?GetData@CProxyDataObject@@UEAAJPEAUtagFORMATETC@@PEAUtagSTGMEDIUM@@@Z
001D5204 ?QueryGetData@CProxyDataObject@@UEAAJPEAUtagFORMATETC@@@Z
001D52E4 ?SetData@CProxyDataObject@@UEAAJPEAUtagFORMATETC@@PEAUtagSTGMEDIUM@@H@Z
001D540C ?EnumFormatEtc@CProxyDataObject@@UEAAJKPEAPEAUIEnumFORMATETC@@@Z
001D54FC ?CopyStgMedium@CProxyDataObject@@IEAAJPEBUtagSTGMEDIUM@@PEAU2@@Z
001D570C ??_GCEnumFormatEtc@@MEAAPEAXI@Z
001D5744 ??1CEnumFormatEtc@@MEAA@XZ
001D57D8 ?CreateInstance@CEnumFormatEtc@@SAJPEAUFORMATETC_ENTRY@@KPEAPEAV1@@Z
001D5984 ?Initialize@CEnumFormatEtc@@MEAAJPEAUFORMATETC_ENTRY@@K@Z
001D5A44 ?Next@CEnumFormatEtc@@UEAAJKPEAUtagFORMATETC@@PEAK@Z
001D5B24 ?Clone@CEnumFormatEtc@@UEAAJPEAPEAUIEnumFORMATETC@@@Z
001D5D00 ?Grow@?$DynArray@HK@@AEAAHK@Z
001D5DD8 ?CreateFormatNamePacker@@YAJPEAPEAVCFormatNamePacker@@HHHHHPEAVIFormatNameIdEnum@@@Z
001D5FFC ??0CFormatNamePacker@@QEAA@HHHPEAVIFormatNameIdEnum@@@Z
001D6060 ??1CFormatNamePacker@@UEAA@XZ
001D60E8 ?IsExcludedFormatName@CFormatNamePacker@@IEAAHPEBG@Z
001D62AC ?IsExcludedFormatId@CFormatNamePacker@@IEAAHI@Z
001D649C ??_GCLongFormatNamePacker@@UEAAPEAXI@Z
001D64D4 ?EncodeFormatNames@CShortFormatNamePacker@@UEAAJPEAEPEAI@Z
001D6898 ?DecodeFormatNames@CShortFormatNamePacker@@UEAAJPEAIPEAG_K@Z
001D6AF0 ?PackageFormatName@CLongFormatNamePacker@@IEAAJPEAEIIPEBGPEAIPEAPEAE@Z
001D6C50 ?GetPackageSpaceRequired@CLongFormatNamePacker@@MEAAJPEAVIFormatNameIdEnum@@PEAI@Z
001D6D48 ?PackageFormatNames@CLongFormatNamePacker@@MEAAJPEAEI@Z
001D6EF4 ?EncodeFormatNames@CLongFormatNamePacker@@UEAAJPEAEPEAI@Z
001D7064 ?DecodeFormatNames@CLongFormatNamePacker@@UEAAJPEAIPEAG_K@Z
001D72BC ?GetPackageSpaceRequired@CRemapHdropFormatNamePacker@@MEAAJPEAVIFormatNameIdEnum@@PEAI@Z
001D73C4 ?PackageFormatNames@CRemapHdropFormatNamePacker@@MEAAJPEAEI@Z
001D77B8 ?LockGlobalMemory@CGlobalMemory@@SAJPEAPEAXPEA_KPEAX@Z
001D7858 ?CopyGlobalMemory@CGlobalMemory@@SAJPEAPEAXPEAX@Z
001D7A84 ??_GCFormatDataPacker@@MEAAPEAXI@Z
001D7ABC ??1CFormatDataPacker@@MEAA@XZ
001D7BB4 ?Terminate@CFormatDataPacker@@MEAAJXZ
001D7C0C ?EncodeFormatData@CFormatDataPacker@@QEAAJPEAPEAXPEAHKPEAX@Z
001D8120 ?DecodeFormatData@CFormatDataPacker@@QEAAJPEAPEAXKPEAEK@Z
001D8550 ??_ECFileContentsReaderManager@@MEAAPEAXI@Z
001D85DC ?CreateInstance@CFileContentsReaderManager@@SAJPEAPEAV1@@Z
001D8750 ?CreateReader@CFileContentsReaderManager@@QEAAJHPEAVCHdropToFgdConverter@@PEAUIDataObject@@@Z
001D88E8 ?ProcessFileContentsRequest@CFileContentsReaderManager@@QEAAJPEFAUtagTS_CLIP_FILECONTENTS_REQUEST@@PEAXKPEAK@Z
001D8B74 ??_ECFileContentsReader@@UEAAPEAXI@Z
001D8BA0 ??_GCFileContentsStreamReader@@UEAAPEAXI@Z
001D8C28 ?ResetDataCache@CFileContentsStreamReader@@UEAAXXZ
001D8C70 ?ValidateData@CFileContentsStreamReader@@UEAAJJK@Z
001D8DD4 ?Read@CFileContentsStreamReader@@UEAAJKPEAXKPEAK@Z
001D8F84 ?GetStreamFromDataObject@CFileContentsStreamReader@@AEAAJPEAUIDataObject@@J@Z
001D916C ?Seek@CFileContentsStreamReader@@AEAAJK@Z
001D933C ?GetSize@CFileContentsStreamReader@@UEAAJPEAK0@Z
001D97B4 ??_ECFileContentsFileReader@@UEAAPEAXI@Z
001D9804 ?ResetDataCache@CFileContentsFileReader@@UEAAXXZ
001D985C ?ValidateData@CFileContentsFileReader@@UEAAJJK@Z
001D9A34 ?GetSize@CFileContentsFileReader@@UEAAJPEAK0@Z
001D9B10 ?Read@CFileContentsFileReader@@UEAAJKPEAXKPEAK@Z
001D9C7C ?IsValidHdrop@CHdropData@@SAJPEAHPEAU_DROPFILES@@_K@Z
001D9D7C ?ConvertHdropToUnicode@CHdropData@@SAJPEAPEAUHDROP__@@PEAU_DROPFILES@@_K@Z
001D9F84 WPP_SF_di
001D9FDC ?EncodePalette@CPalettePacker@@QEAAJPEAPEAXPEAUHPALETTE__@@@Z
001DA1E0 ?DecodePalette@CPalettePacker@@QEAAJPEAPEAUHPALETTE__@@PEAEI@Z
001DA3F0 ?EncodeMetaFile@CMetaFilePacker@@QEAAJPEAPEAXPEAX@Z
001DA620 ?DecodeMetaFile@CMetaFilePacker@@QEAAJPEAPEAXPEAEI@Z
001DA804 ??_GCHdropPacker@@MEAAPEAXI@Z
001DA858 ?EncodeHdrop@CHdropPacker@@QEAAJPEAPEAXPEAXPEAVCRdrFileTransfer@@@Z
001DAA94 ?DecodeHdrop@CHdropPacker@@QEAAJPEAPEAXPEAEI@Z
001DABE4 ?RemapDropFiles@CHdropPacker@@IEAAJPEAPEAXPEAUHDROP__@@PEAU_DROPFILES@@PEAVCPathRemapper@@@Z
001DAE80 ?EncodeFileName@CFileNamePacker@@QEAAJPEAPEAXPEAXHPEAVCRdrFileTransfer@@@Z
001DB1C8 ?DecodeFileName@CFileNamePacker@@QEAAJPEAPEAXPEAEIH@Z
001DB4DC ?RemapFileName@CFileNamePacker@@IEAAJPEAPEAXPEBGHPEAVCPathRemapper@@@Z
001DB7B0 ??0CClientRdrFileTransfer@@IEAA@PEBGPEAUHWND__@@@Z
001DB950 ??_GCClientRdrFileTransfer@@MEAAPEAXI@Z
001DB9F4 ?CreateInstance@CClientRdrFileTransfer@@SAJPEBGPEAUHWND__@@PEAPEAVCRdrFileTransfer@@@Z
001DBAF4 ?Terminate@CClientRdrFileTransfer@@MEAAJXZ
001DBB74 ?OnConnected@CClientRdrFileTransfer@@UEAAJH@Z
001DBC7C ?GetTempDrive@CClientRdrFileTransfer@@UEAAJPEAG@Z
001DBD28 ?CreateTempPathBase@CClientRdrFileTransfer@@IEAAJXZ
001DBF10 ?DeleteSubdirectory@CClientRdrFileTransfer@@IEAAJPEBG@Z
001DC5BC ??0CClientFormatDataPacker@@IEAA@PEAVCRdrFileTransfer@@@Z
001DC670 ??_ECClientFormatDataPacker@@MEAAPEAXI@Z
001DC6BC ?CreateInstance@CClientFormatDataPacker@@SAJPEAVCRdrFileTransfer@@PEAPEAVCFormatDataPacker@@@Z
001DC7B8 ?Initialize@CClientFormatDataPacker@@MEAAJXZ
001DC844 ??0CClientRdrVirtualChannel@@IEAA@PEAVIRdrPduDispatcher@@PEAXPEAUtagCHANNEL_ENTRY_POINTS_EX@@P6AX1KI1III@ZPEBD@Z
001DC9F0 ??_GCClientRdrVirtualChannel@@MEAAPEAXI@Z
001DCA64 ?CreateInstance@CClientRdrVirtualChannel@@SAJPEAVIRdrPduDispatcher@@PEAXPEAUtagCHANNEL_ENTRY_POINTS_EX@@P6AX1KI1III@ZPEBDPEAPEAVIRdrVirtualChannel@@@Z
001DCB88 ?OnVirtualChannelPdu@CClientRdrVirtualChannel@@UEAAJPEAEIII@Z
001DCE1C ?SendClipboardPdu@CClientRdrVirtualChannel@@UEAAJPEFAUtagTS_CLIP_PDU@@K@Z
001DCED4 ?OpenVirtualChannel@CClientRdrVirtualChannel@@UEAAJXZ
001DCF80 ?CloseVirtualChannel@CClientRdrVirtualChannel@@UEAAJXZ
001DD0B4 ?FreeReceiveBuffer@CClientRdrVirtualChannel@@IEAAJXZ
001DD140 ?CreateInstance@CClientHdropPacker@@SAJPEAPEAVCHdropPacker@@@Z
001DD280 ?RemapDropFilesForRequest@CClientHdropPacker@@MEAAJPEAPEAXPEAUHDROP__@@PEAU_DROPFILES@@PEBG@Z
001DD30C ?RemapDropFilesForResponse@CClientHdropPacker@@MEAAJPEAPEAXPEAU_DROPFILES@@_K@Z
001DD408 ?CreateInstance@CClientFileNamePacker@@SAJPEAPEAVCFileNamePacker@@@Z
001DD548 ?RemapFileNameForRequest@CClientFileNamePacker@@MEAAJPEAPEAXPEBGH1@Z
001DD5D4 ?RemapFileNameForResponse@CClientFileNamePacker@@MEAAJPEAPEAXPEBGH@Z
001DD740 ?TsScardStartInsertionMonitor@@YAJPEAX@Z
001DD890 ?TsScardQueryInsertionMonitor@@YAJPEAXPEAHPEAGPEA_K@Z
001DD9BC ?TsScardStopInsertionMonitor@@YAJPEAX@Z
001DDA24 DecodeBitmapFromRLE
001DDCBC BitmapSplitARGBToARGB
001DDF98 BitmapSplitRGBToRGB
001DE108 BitmapSplitAYCoCgToARGB
001DE3D4 BitmapSplitYCoCgToRGB
001DE630 BitmapSplitAYCoCgToARGB4411
001DE958 BitmapSplitYCoCgToRGB411
001DEC18 BitmapCombinePlanes
001DEDDC ?AddHead@CVPtrList@@QEAAPEAXPEAX@Z
001DEE64 ?AddTail@CVPtrList@@QEAAPEAXPEAX@Z
001DEF9C ?Find@CVPtrList@@QEBAPEAXPEBXPEAX@Z
001DF000 ?AcquireNode@?$CTNodePool@UNODEBLOCK@CVPtrList@@UNODE@2@$0BA@@@QEAAJPEAPEAUNODE@CVPtrList@@@Z
001DF08C ?EnterReadLock@CTSPropertySet@@UEAAXXZ
001DF160 ?LockPropSetForWrite@CTSPropertySet@@UEAAJHH@Z
001DF1BC ?SetPropertySecureStringValue@CTSPropertySet@@IEAAJPEAUtagPROPERTY_ENTRY_EX@@PEBG@Z
001DF2B8 WPP_SF_Sd
001DF334 WPP_SF_Ss
001DF3FC ?TSCreatePropertySet@@YAJPEAUtagPROPERTY_ENTRY@@KPEAPEAVITSPropertySet@@@Z
001DF4DC ??0CTSPropertySet@@QEAA@KPEAUtagPROPERTY_ENTRY@@@Z
001DF58C ??_GCTSPropertySet@@UEAAPEAXI@Z
001DF5C4 ??1CTSPropertySet@@UEAA@XZ
001DF61C ?Initialize@CTSPropertySet@@UEAAJXZ
001DF938 ?Terminate@CTSPropertySet@@UEAAJXZ
001DFAC0 ?SetIUnknownProperty@CTSPropertySet@@UEAAJPEBDPEAUIUnknown@@@Z
001DFC80 ?SetIntProperty@CTSPropertySet@@UEAAJPEBDH@Z
001DFE6C ?SetProperty@CTSPropertySet@@UEAAJPEBDK@Z
001E0060 ?SetBoolProperty@CTSPropertySet@@UEAAJPEBDH@Z
001E024C ?SetStringProperty@CTSPropertySet@@UEAAJPEBDPEBGI@Z
001E0530 ?SetUlongPtrProperty@CTSPropertySet@@UEAAJPEBD_K@Z
001E0720 ?SetSecureStringProperty@CTSPropertySet@@UEAAJPEBDPEBGI@Z
001E095C ?GetIUnknownProperty@CTSPropertySet@@UEAAJPEBDPEAPEAUIUnknown@@@Z
001E0A58 ?GetProperty@CTSPropertySet@@UEAAJPEBDPEAK@Z
001E0B44 ?GetIntProperty@CTSPropertySet@@UEAAJPEBDPEAH@Z
001E0C30 ?GetUlongPtrProperty@CTSPropertySet@@UEAAJPEBDPEA_K@Z
001E0D08 ?GetBoolProperty@CTSPropertySet@@UEAAJPEBDPEAH@Z
001E0DE0 ?GetProperty@CTSPropertySet@@UEAAJPEBDPEAGH@Z
001E0F20 ?GetStringProperty@CTSPropertySet@@UEAAJPEBDPEAPEBG@Z
001E0FF4 ?GetSecureStringProperty@CTSPropertySet@@UEAAJPEBDPEAGPEAK@Z
001E1220 ?FindEntry@CTSPropertySet@@IEAAPEAUtagPROPERTY_ENTRY_EX@@PEBD@Z
001E12D8 ?InternalPreSetProperty@CTSPropertySet@@MEAAJPEBDPEAPEAUtagPROPERTY_ENTRY_EX@@@Z
001E1374 ?InternalPreGetProperty@CTSPropertySet@@MEAAJPEBDPEAPEAUtagPROPERTY_ENTRY_EX@@@Z
001E13CC ?InternalPostSetProperty@CTSPropertySet@@MEAAJPEBDPEAUtagPROPERTY_ENTRY_EX@@@Z
001E13E8 ?RevertToDefaults@CTSPropertySet@@UEAAJXZ
001E158C WPP_SF_sPd
001E1644 ?ValidateString@CTSStringLenValidator@@UEAAJPEBG@Z
001E171C ??_GCTSStringLenValidator@@UEAAPEAXI@Z
001E1748 ?ValidateLong@CTSRangeValidator@@UEAAJK@Z
001E17B4 WPP_SF_IDD
001E1818 ?ValidateULongPtr@CTSRangeValidator@@UEAAJ_K@Z
001E1888 ??_ECTSRangeValidator@@UEAAPEAXI@Z
001E18B4 ??_ECTSNullValidator@@UEAAPEAXI@Z
001E18E0 ??0CTSPooledUnknown@@QEAA@PEBDPEAVITSObjectPool@@@Z
001E1958 ??_GCTSPooledUnknown@@UEAAPEAXI@Z
001E1990 ??1CTSPooledUnknown@@UEAA@XZ
001E19E8 ?NonDelegatingRelease@CTSPooledUnknown@@UEAAKXZ
001E1A98 ?NonDelegatingQueryInterface@CTSPlatform@@UEAAJAEBU_GUID@@PEAPEAX@Z
001E1B40 ?TSCreatePlatform@@YAJPEAXPEAPEAVITSPlatform@@@Z
001E1C28 ??_ECTSPlatform@@UEAAPEAXI@Z
001E1C70 ?Initialize@CTSPlatform@@UEAAJXZ
001E1CBC ?Terminate@CTSPlatform@@UEAAJXZ
001E1D10 ?CreateThread@CTSPlatform@@UEAAJP6AXPEAX@Z0PEAPEAVITSThread@@@Z
001E1DEC ?TSGetCurThread@CTSPlatform@@UEAAPEAVITSThread@@XZ
001E1EAC ?CreateInstancePool@CTSSyncWaitResult@@SAJIPEAPEAV?$CTSObjectPool@VCTSSyncWaitResult@@@@@Z
001E205C ?NonDelegatingQueryInterface@CTSMsg@@UEAAJAEBU_GUID@@PEAPEAX@Z
001E2104 ?OnReturnToPool@CTSMsg@@UEAAXXZ
001E217C ?Terminate@CTSMsg@@UEAAJXZ
001E21CC ?CreateInstancePool@CTSMsg@@SAJIPEAPEAV?$CTSObjectPool@VCTSMsg@@@@@Z
001E2380 ?CreateInstance@CTSMsg@@SAJPEAV?$CTSObjectPool@VCTSMsg@@@@PEAVITSAsyncCallback@@PEAVITSAsyncResult@@_KIHPEAVITSThread@@4PEAPEAV1@@Z
001E24EC ?CancelPendingCallback@CTSMsg@@UEAAJXZ
001E2518 ??1CTSMsg@@MEAA@XZ
001E25E0 ??_ECTSMsg@@MEAAPEAXI@Z
001E2618 ??_GCTSEventFilterAllowAllEvents@@MEAAPEAXI@Z
001E2660 ??_ECTSEventFilterBlockAllEvents@@MEAAPEAXI@Z
001E26B8 ??_GCTSEventFilterAllowSyncEventsOnly@@MEAAPEAXI@Z
001E2764 ??_ECTSEventFilterAllowSpecifiedEvents@@MEAAPEAXI@Z
001E27AC ?CreateBlockAllFilter@CTSEventFilterFactory@@SAJPEAPEAVITSEventFilter@@@Z
001E289C ?TSGet_TLS_ThreadDescriptor@@YAPEAVCTS_TLS_ThreadDescriptor@@XZ
001E2954 ??0CTSThread@@QEAA@P6AXPEAX@Z0PEAVITSPlatform@@@Z
001E2B2C ??_GCTSThread@@UEAAPEAXI@Z
001E2B64 ??1CTSThread@@UEAA@XZ
001E2D00 ?Initialize@CTSThread@@UEAAJXZ
001E2EA8 ?Terminate@CTSThread@@UEAAJXZ
001E300C ?InternalRundownThread@CTSThread@@AEAAJXZ
001E3090 ?InternalFreeThreadHandle@CTSThread@@AEAAJXZ
001E3174 ?DestroyThread@CTSThread@@UEAAJH@Z
001E36B4 ?EndProcessingEvents@CTSThread@@UEAAJXZ
001E37D8 ?StartThread@CTSThread@@UEAAJP6AJPEAX@Z@Z
001E3AC0 ?InitializeInThreadContext@CTSThread@@AEAAJH@Z
001E3B40 ?BindThread@CTSThread@@UEAAJXZ
001E3FA4 ?TSStaticThreadEntry@CTSThread@@CAIPEAX@Z
001E430C ?OnPostExitThreadProc@CTSThread@@AEAAXXZ
001E43F8 ?RunQueueEvent@CTSThread@@IEAAJPEAVCTSMsg@@@Z
001E4544 ?RunAllQueueEvents@CTSThread@@IEAAJPEAVITSEventFilter@@@Z
001E474C ?DiscardAllQueueEvents@CTSThread@@IEAAJXZ
001E4874 ?ThreadWaitForSingleObject@CTSThread@@UEAAJPEAXW4TSWaitType@@K@Z
001E48B0 ?ThreadWaitForMultipleObjects@CTSThread@@UEAAJKPEBQEAXW4TSWaitType@@KPEAI@Z
001E4C74 ?ThreadInterruptibleWait@CTSThread@@UEAAJKPEBQEAXKPEBIKPEAI@Z
001E4EB4 ?internalThreadWaitForMultipleObjects@CTSThread@@IEAAJKPEBQEAXPEAVITSEventFilter@@KPEAI@Z
001E518C ?ThreadMsgLoop@CTSThread@@UEAAJXZ
001E51B4 ?internalThreadMsgLoop@CTSThread@@IEAAJKPEBQEAXKPEAI@Z
001E5444 ?internalMsgPump@CTSThread@@IEAAJXZ
001E575C ?AddCallback@CTSThread@@UEAAJPEAVITSAsyncCallback@@PEAVITSAsyncResult@@K_KKPEAPEAVITSQueuedCallback@@I@Z
001E5AF4 ?CancelCallback@CTSThread@@UEAAJPEAVITSQueuedCallback@@@Z
001E5BBC ?EnableTSEventProcessing@CTSThread@@UEAAJH@Z
001E5D38 ?PushEventFilter@CTSThread@@AEAAJPEAVITSEventFilter@@@Z
001E5DAC ?PopEventFilter@CTSThread@@AEAAJW4TSEventFilterType@@@Z
001E5E58 ?SignalEventQueue@CTSThread@@MEAAJXZ
001E5F50 ?GetItem@CTSThread@@AEAAJPEAVITSEventFilter@@PEAPEAVCTSMsg@@@Z
001E6048 ?DispatchAsyncCall@CTSThread@@UEAAJPEAVITSAsyncCallback@@_KK@Z
001E6078 ?DispatchAsyncCall@CTSThread@@UEAAJPEAVITSAsyncCallback@@KPEAX_KK@Z
001E6164 ?DispatchAsyncCall@CTSThread@@UEAAJPEAVITSAsyncCallback@@KPEAXK@Z
001E624C ?DispatchAsyncCallWithResult@CTSThread@@UEAAJPEAVITSAsyncCallback@@PEAVITSAsyncResult@@K@Z
001E6278 ?DispatchSyncCall@CTSThread@@UEAAJPEAVITSAsyncCallback@@_KW4TSWaitType@@@Z
001E62A4 ?DispatchSyncCall@CTSThread@@UEAAJPEAVITSAsyncCallback@@KPEAXW4TSWaitType@@@Z
001E62D0 ?DispatchSyncCallWithResult@CTSThread@@UEAAJPEAVITSAsyncCallback@@PEAVITSAsyncResult@@W4TSWaitType@@@Z
001E62F8 ?internalDispatchSyncCall@CTSThread@@IEAAJPEAVITSAsyncCallback@@PEAVITSAsyncResult@@_KKPEAXW4TSWaitType@@@Z
001E66A8 ?OnNotifyThreadEventQueue@CTSThread@@UEAAJXZ
001E6730 ?OnNotifyThreadMessage@CTSThread@@KAIPEAX@Z
001E6798 ?ClearThreadDescriptor@CTSThread@@IEAAXXZ
001E6878 ??_ECTS_TLS_ThreadDescriptor@@UEAAPEAXI@Z
001E6928 ?Initialize@CTS_TLS_ThreadDescriptor@@UEAAJXZ
001E698C ?Terminate@CTS_TLS_ThreadDescriptor@@UEAAJXZ
001E69D4 ?AddThreadToList@CTS_TLS_ThreadDescriptor@@QEAAJPEAVITSThread@@@Z
001E6A44 ?Initialize@?$CTSObjectPool@VCTSSyncWaitResult@@@@UEAAJXZ
001E6C74 ?GetPooledObject@?$CTSObjectPool@VCTSSyncWaitResult@@@@QEAAJPEAPEAVCTSSyncWaitResult@@HH@Z
001E6E8C ?ReturnPooledObject@?$CTSObjectPool@VCTSBufferResult@@@@UEAAJPEAVCTSPooledUnknown@@@Z
001E6F68 ?Initialize@?$CTSObjectPool@VCTSMsg@@@@UEAAJXZ
001E71F8 ?Terminate@?$CTSObjectPool@VCTSNetBuffer@@@@UEAAJXZ
001E72A4 ?GetPooledObject@?$CTSObjectPool@VCTSMsg@@@@QEAAJPEAPEAVCTSMsg@@HH@Z
001E74F0 ??_G?$CTSObjectPool@VCTSSyncWaitResult@@@@MEAAPEAXI@Z
001E7574 ??_G?$CTSObjectPool@VCTSMsg@@@@MEAAPEAXI@Z
001E7688 ??0CTSRegEntry@@QEAA@PEBGPEAUHKEY__@@HK@Z
001E7714 ??1CTSRegEntry@@QEAA@XZ
001E7764 ?GetNumber@CTSRegEntry@@QEAAJPEBGJ@Z
001E77D0 ?GetNumber@CTSRegEntry@@QEAAJPEBGJPEAJ@Z
001E7824 ??0CTSRegEnumSubKeys@@QEAA@PEAVCTSRegEntry@@@Z
001E78EC ??1CCallbackInfo@CTimedCallback@@QEAA@XZ
001E7990 ??_GCTimedCallback@@MEAAPEAXI@Z
001E79F8 ?CreateInstance@CTimedCallback@@SAJPEAPEAV1@@Z
001E7B50 ?AddCallback@CTimedCallback@@QEAAJIPEAVITSThread@@KPEAVITSAsyncCallback@@PEAVITSAsyncResult@@_KI@Z
001E7C90 ?Initialize@CTimedCallback@@UEAAJXZ
001E7CF8 ?Terminate@CTimedCallback@@UEAAJXZ
001E7D70 ?CancelCallback@CTimedCallback@@QEAAJXZ
001E7E1C ?TimerProc@CTimedCallback@@SAXPEAX@Z
001E7E68 ?PlaceCallback@CTimedCallback@@QEAAJXZ
001E7FA4 ?TSCreatePropertySetWithNotify@@YAJPEAUtagPROPERTY_ENTRY@@KPEAVITSCoreEvents@@PEAPEAVITSPropertySet@@@Z
001E80C4 ??_GCTSPropertySetWithNotify@@UEAAPEAXI@Z
001E80FC ??1CTSPropertySetWithNotify@@UEAA@XZ
001E8154 ?Initialize@CTSPropertySetWithNotify@@UEAAJXZ
001E82D8 ?Terminate@CTSPropertySetWithNotify@@UEAAJXZ
001E8414 ?InternalPostSetProperty@CTSPropertySetWithNotify@@MEAAJPEBDPEAUtagPROPERTY_ENTRY_EX@@@Z
001E8470 ??0CTSCoreEventSink@@QEAA@PEAVITSAsyncCallback@@W4EventSinkTargetThreadType@@PEAVITSThread@@IPEAVITSCoreEvents@@PEAVITSPlatform@@@Z
001E8594 ?GetThread@CTSCoreEventSink@@UEAAJPEAPEAVITSThread@@@Z
001E85D0 ?GetAsyncCallback@CTSCoreEventSink@@UEAAJPEAPEAVITSAsyncCallback@@@Z
001E860C ?RemoveNotificationSink@CTSCoreEventSink@@UEAAJXZ
001E8644 ??_ECTSCoreEventSink@@UEAAPEAXI@Z
001E8700 ?Terminate@CTSCoreEvents@@UEAAJXZ
001E8740 ??0CTSCoreEventSource@@QEAA@PEAVCTSCoreEvents@@I@Z
001E885C ??1CTSCoreEventSource@@UEAA@XZ
001E89D8 ?SetEventName@CTSCoreEventSource@@AEAAJPEBG@Z
001E8B50 ??_GCTSCoreEventSource@@UEAAPEAXI@Z
001E8B88 ??_GCTSCoreEvents@@UEAAPEAXI@Z
001E8BC0 ??1CTSCoreEvents@@UEAA@XZ
001E8C50 ?AllocateEventID@CTSCoreEvents@@UEAAJPEAI@Z
001E8D4C ?FreeEventID@CTSCoreEvents@@UEAAJI@Z
001E8E3C ?RegisterNotificationSource@CTSCoreEvents@@UEAAJIPEAPEAVITSCoreEventSource@@@Z
001E9074 ?RegisterNotificationSource@CTSCoreEvents@@UEAAJPEBGPEAPEAVITSCoreEventSource@@@Z
001E91A8 ?RegisterNotificationSource@CTSCoreEvents@@UEAAJPEAPEAVITSCoreEventSource@@@Z
001E9298 ?RemoveNotificationSource@CTSCoreEvents@@UEAAJPEAVITSCoreEventSource@@@Z
001E9350 ?BindNotificationSink@CTSCoreEvents@@UEAAJIPEAVITSAsyncCallback@@W4EventBindType@@PEAVITSThread@@PEAPEAVITSCoreEventSink@@@Z
001E9498 ?BindNotificationSink@CTSCoreEvents@@UEAAJPEBGPEAVITSAsyncCallback@@W4EventBindType@@PEAVITSThread@@PEAPEAVITSCoreEventSink@@@Z
001E9674 ?BindNotificationSinkWorker@CTSCoreEvents@@AEAAJPEAVCTSCoreEventSource@@PEAVITSAsyncCallback@@W4EventBindType@@PEAVITSThread@@PEAPEAVITSCoreEventSink@@@Z
001E98C0 ?RemoveNotificationSink@CTSCoreEvents@@UEAAJIPEAVITSAsyncCallback@@@Z
001E9A2C ?RemoveNotificationSink@CTSCoreEvents@@UEAAJPEAVITSCoreEventSink@@@Z
001E9B84 ?InternalGetEventSource@CTSCoreEvents@@AEAAHIPEAPEAVCTSCoreEventSource@@@Z
001E9C4C ?AddWorkItem@CTSCoreEvents@@UEAAJPEAVITSThread@@PEAVITSAsyncCallback@@1PEAVITSAsyncResult@@_KPEAPEAVITSWorkItem@@@Z
001E9EF4 ?Initialize@CTSCoreEventSource@@UEAAJXZ
001EA0C0 ?Terminate@CTSCoreEventSource@@UEAAJXZ
001EA1D4 ?AddSink@CTSCoreEventSource@@QEAAJPEAVCTSCoreEventSink@@@Z
001EA32C ?RemoveSink@CTSCoreEventSource@@QEAAJPEAVITSAsyncCallback@@@Z
001EA4FC ?FireSyncNotification@CTSCoreEventSource@@UEAAJ_KPEAKW4TSWaitType@@@Z
001EA518 ?FireSyncNotification@CTSCoreEventSource@@UEAAJKPEAXPEAKW4TSWaitType@@@Z
001EA5E0 ?FireSyncNotification@CTSCoreEventSource@@UEAAJPEAVITSAsyncResult@@PEAKW4TSWaitType@@@Z
001EA610 ?FireASyncNotification@CTSCoreEventSource@@UEAAJKPEAXPEAK@Z
001EA6F8 ?InternalFireAsyncNotification@CTSCoreEventSource@@AEAAJ_KPEAKPEAVITSAsyncResult@@@Z
001EA89C ?InternalFireSyncNotification@CTSCoreEventSource@@AEAAJ_KPEAKPEAVITSAsyncResult@@W4TSWaitType@@@Z
001EAE90 WPP_SF_DDDDDDDD
001EAF30 ??_GCTSBaseServices@@UEAAPEAXI@Z
001EAF68 ??1CTSBaseServices@@UEAA@XZ
001EAFCC ?CreateComponent@CTSBaseServices@@UEAAJU_GUID@@0PEAPEAX@Z
001EB194 ?NonDelegatingQueryInterface@CTSWorkItemResult@@UEAAJAEBU_GUID@@PEAPEAX@Z
001EB298 ??_GCTSSyncWaitResult@@UEAAPEAXI@Z
001EB2D0 ??0CTSSyncWaitResult@@QEAA@PEAVITSObjectPool@@@Z
001EB328 ??1CTSSyncWaitResult@@UEAA@XZ
001EB380 ?Initialize@CTSSyncWaitResult@@UEAAJXZ
001EB3EC ?Terminate@CTSSyncWaitResult@@UEAAJXZ
001EB464 ?InitializeForReuse@CTSSyncWaitResult@@QEAAJPEAVITSAsyncResult@@@Z
001EB514 ?OnReturnToPool@CTSSyncWaitResult@@UEAAXXZ
001EB544 ?WaitForCompletion@CTSSyncWaitResult@@QEAAJW4TSWaitType@@PEAVITSThread@@@Z
001EB70C ?SetCompleted@CTSSyncWaitResult@@UEAAJJ@Z
001EB770 ?CreateInstance@CTSBufferResult@@SAJPEAPEAV1@KPEAX@Z
001EB8C0 ?CreateInstance@CTSBufferResult@@SAJPEAV?$CTSObjectPool@VCTSBufferResult@@@@KPEAXPEAPEAV1@@Z
001EBA14 ??0CTSBufferResult@@QEAA@PEAVITSObjectPool@@@Z
001EBA68 ??_ECTSBufferResult@@MEAAPEAXI@Z
001EBAA0 ??1CTSBufferResult@@MEAA@XZ
001EBAE4 ?Initialize@CTSBufferResult@@UEAAJXZ
001EBB48 ?Initialize@CTSBufferResult@@IEAAJKPEAX@Z
001EBBF8 ?Terminate@CTSBufferResult@@UEAAJXZ
001EBC4C ??0CTSWorkItemResult@@IEAA@PEAVITSAsyncCallback@@PEAVITSThread@@PEAVITSAsyncResult@@@Z
001EBD80 ??_ECTSWorkItemResult@@MEAAPEAXI@Z
001EBDB8 ??1CTSWorkItemResult@@MEAA@XZ
001EBE7C ?Initialize@CTSWorkItemResult@@UEAAJXZ
001EBEE4 ?Terminate@CTSWorkItemResult@@UEAAJXZ
001EBF18 ?SetCompleted@CTSWorkItemResult@@UEAAJJ@Z
001EC024 ?CancelWorkItem@CTSWorkItemResult@@UEAAJXZ
001EC0B4 ?IsWorkItemCancelled@CTSWorkItemResult@@UEAAHXZ
001EC108 ?IsWorkItemCompleted@CTSWorkItemResult@@UEAAHXZ
001EC15C ?GetPooledObject@?$CTSObjectPool@VCTSBufferResult@@@@QEAAJPEAPEAVCTSBufferResult@@HH@Z
001EC38C TRC_TraceBufferW
001EC4D8 ??_ECTSGraphicsBitmap@@UEAAPEAXI@Z
001EC510 ??1CTSGraphicsBitmap@@UEAA@XZ
001EC570 ?Terminate@CTSGraphicsBitmap@@UEAAJXZ
001EC600 ?InitializeRGBDIB@CTSGraphicsBitmap@@UEAAJIIIHH@Z
001EC9A0 ?InitializePaletteDIB@CTSGraphicsBitmap@@UEAAJPEAVITSGraphicsSurfaceEx@@IIIH@Z
001ECC18 ?InitializeSurfaceCompatibleBitmap@CTSGraphicsBitmap@@UEAAJPEAVITSGraphicsSurfaceEx@@II@Z
001ECD70 ?InitializeMonochromeBitmap@CTSGraphicsBitmap@@UEAAJII@Z
001ECE24 ?GetBits@CTSGraphicsBitmap@@UEAAJPEAPEAX@Z
001ECEB4 ?SetBits@CTSGraphicsBitmap@@UEAAJW4TS_GFX_BITMAP_ENCODING@@QEAXK@Z
001ECFE4 ?SetBitsEncoding1@CTSGraphicsBitmap@@MEAAJQEAXK@Z
001ED0AC ?GetDimensions@CTSGraphicsBitmap@@UEAAJPEAI0@Z
001ED148 ?SetBitmapInfo@CTSGraphicsBitmap@@SAJIIW4TS_GFX_BITMAP_ENCODING@@PEAUtagBITMAPINFO@@K@Z
001ED358 ?GetEncodingFromColorDepth@CTSGraphicsBitmap@@SA?AW4TS_GFX_BITMAP_ENCODING@@I@Z
001ED3EC ?GetRequiredBufferSizeForBitmap@CTSGraphicsBitmap@@SAJIIW4TS_GFX_BITMAP_ENCODING@@PEAK@Z
001ED4FC ?GetDIBFormat@CTSGraphicsBitmap@@SAIW4TS_GFX_BITMAP_ENCODING@@@Z
001ED568 ?NonDelegatingQueryInterface@CTSGraphics@@UEAAJAEBU_GUID@@PEAPEAX@Z
001ED6D4 ??0CTSGraphics@@QEAA@PEAVITSInstance@@@Z
001ED7FC ??_GCTSGraphics@@UEAAPEAXI@Z
001ED834 ??1CTSGraphics@@UEAA@XZ
001ED9EC ?Initialize@CTSGraphics@@UEAAJXZ
001EDBFC ?Terminate@CTSGraphics@@UEAAJXZ
001EDD10 ?CoreObjectPhase2Initialize@CTSGraphics@@UEAAJXZ
001EE158 ?CoreObjectPhase2Terminate@CTSGraphics@@UEAAJXZ
001EE240 ?Enable@CTSGraphics@@UEAAJXZ
001EE434 ?Disable@CTSGraphics@@UEAAJXZ
001EE498 ?ProcessMetaCommand@CTSGraphics@@UEAAJPEAEI@Z
001EE4DC ?ProcessDeltaEncoder@CTSGraphics@@UEAAJPEAEI@Z
001EE520 ?EndOfUpdateBatch@CTSGraphics@@UEAAJXZ
001EE560 ?SurfaceCreate@CTSGraphics@@UEAAJPEAPEAVITSGraphicsSurfaceEx@@@Z
001EE704 ?SurfaceGetPrimary@CTSGraphics@@UEAAJPEAPEAVITSGraphicsSurface@@@Z
001EE900 ?SurfaceGetPrimary@CTSGraphics@@UEAAJPEAPEAVITSGraphicsSurfaceEx@@@Z
001EE9A4 ?SurfaceSetTarget@CTSGraphics@@UEAAJPEAVITSGraphicsSurface@@@Z
001EEA34 ?SurfaceGetTarget@CTSGraphics@@UEAAJPEAPEAVITSGraphicsSurface@@@Z
001EEAA8 ?SetPrimarySurfaceShadowing@CTSGraphics@@UEAAJH@Z
001EEB2C ?InvalidRectOnDisplay@CTSGraphics@@UEAAXUtagTS_GFX_RECT@@@Z
001EEB64 ?GetDeviceColorDepth@CTSGraphics@@UEAAJPEAI@Z
001EEC2C ?GetDeviceSize@CTSGraphics@@UEAAJPEAH0@Z
001EED1C ?SetColorDepth@CTSGraphics@@UEAAJI@Z
001EED9C ?GetColorDepth@CTSGraphics@@UEAAJPEAI@Z
001EEDF0 ?SetDesktopSize@CTSGraphics@@UEAAJUtagTS_GFX_SIZE@@@Z
001EEF60 ?GetDesktopSize@CTSGraphics@@UEAAJPEAUtagTS_GFX_SIZE@@@Z
001EEFB8 ?IsPrimaryDisplayVisible@CTSGraphics@@UEAAHXZ
001EF0DC ?BitmapCreate@CTSGraphics@@UEAAJPEAVITSGraphicsSurfaceEx@@IIIKPEAPEAVITSGraphicsBitmap@@@Z
001EF2C8 ?BitmapCreateSurfaceBitmap@CTSGraphics@@UEAAJPEAVITSGraphicsSurfaceEx@@IIPEAPEAVITSGraphicsBitmap@@@Z
001EF434 ?BitmapCreateMonochromeBitmap@CTSGraphics@@UEAAJIIPEAPEAVITSGraphicsBitmap@@@Z
001EF58C ?PenCreate@CTSGraphics@@UEAAJW4TS_GFX_PEN_TYPE@@IIPEAPEAVITSGraphicsPen@@@Z
001EF734 ?BrushCreate@CTSGraphics@@UEAAJW4TS_GFX_BRUSH_TYPE@@PEATtagTS_GFX_BRUSH_DATA@@PEAPEAVITSGraphicsBrush@@@Z
001EF8DC ?PaletteGetDefault@CTSGraphics@@UEAAJPEAPEAVITSGraphicsPalette@@@Z
001EFA3C ?PaletteCreate@CTSGraphics@@UEAAJPEAIIIPEAPEAVITSGraphicsPalette@@@Z
001EFBA8 ?RegionAlloc@CTSGraphics@@UEAAJPEAUtagTS_GFX_RECT@@IPEAPEAX@Z
001EFDA0 ?RegionAllocInLogicalCoords@CTSGraphics@@UEAAJPEAVITSGraphicsSurfaceEx@@PEAUtagTS_GFX_RECT@@IPEAPEAX@Z
001EFFB0 ?RegionRelease@CTSGraphics@@UEAAJPEAX@Z
001F0008 ?RegionClear@CTSGraphics@@UEAAJPEAX@Z
001F00B4 ?RegionSetRects@CTSGraphics@@UEAAJPEAXPEAUtagTS_GFX_RECT@@I@Z
001F01EC ?RegionUnionRects@CTSGraphics@@UEAAJPEAXPEAUtagTS_GFX_RECT@@I@Z
001F020C ?RegionIntersectRects@CTSGraphics@@UEAAJPEAXPEAUtagTS_GFX_RECT@@I@Z
001F022C ?RegionOperationRects@CTSGraphics@@MEAAJPEAXPEAUtagTS_GFX_RECT@@IH@Z
001F03FC ?RegionDuplicate@CTSGraphics@@UEAAJPEAXPEAPEAX@Z
001F0520 ?SetCapabilities@CTSGraphics@@UEAAJPEAVITSCapabilities@@@Z
001F0610 ??_GCTSMonitorConfig@@MEAAPEAXI@Z
001F0648 ??1CTSMonitorConfig@@MEAA@XZ
001F06A8 ?CreateInstance@CTSMonitorConfig@@SAJPEAPEAV1@@Z
001F0868 ?Terminate@CTSMonitorConfig@@EEAAJXZ
001F08A8 ?GetMonitorCount@CTSMonitorConfig@@UEAAIXZ
001F0908 ?GetMonitorRect@CTSMonitorConfig@@UEAAJIPEAUtagTS_GFX_RECT@@H@Z
001F0ADC ?GetMonitorSize@CTSMonitorConfig@@UEAAJIPEAI0@Z
001F0C50 ?GetPrimaryMonitorSize@CTSMonitorConfig@@UEAAJPEAI0@Z
001F0E28 ?IsMonitorPrimary@CTSMonitorConfig@@UEAAJIPEAH@Z
001F0F68 ?CheckMonitorConfigIntegrity@CTSMonitorConfig@@AEAAJXZ
001F1038 ?ConfigureMonitors@CTSMonitorConfig@@UEAAJIPEAGPEAI@Z
001F12BC ?ReconfigureMonitors@CTSMonitorConfig@@UEAAJPEAUTS_GRAPHICS_MONITOR_DEF@@I@Z
001F1514 ?GetMonitorsBoundingRect@CTSMonitorConfig@@UEAAJPEAUtagTS_GFX_RECT@@@Z
001F1598 ?MonitorConfigMatchesLocalLayout@CTSMonitorConfig@@UEAAHXZ
001F17D0 ?ReadMonitorLayoutFromRegistry@CTSMonitorConfig@@AEAAJPEAPEAUTS_GRAPHICS_MONITOR_DEF@@PEAG1@Z
001F1D30 ?StaticMonitorEnumFunc@CTSMonitorConfig@@CAHPEAUHMONITOR__@@PEAUHDC__@@PEAUtagRECT@@_J@Z
001F1DDC ?GetCurrentSystemMonitorLayout@CTSMonitorConfig@@AEAAJPEAPEAUTS_GRAPHICS_MONITOR_DEF@@PEAGH@Z
001F2120 ?GetMonitorsBoundingRect@CTSMonitorConfig@@AEAAJPEAUTS_GRAPHICS_MONITOR_DEF@@IPEAUtagTS_GFX_RECT@@@Z
001F2260 ??_GCTSGraphicsGdiPlusHandler@@MEAAPEAXI@Z
001F2298 ??1CTSGraphicsGdiPlusHandler@@MEAA@XZ
001F2340 ?Initialize@CTSGraphicsGdiPlusHandler@@UEAAJPEAVCTSGraphics@@@Z
001F23A4 ?Terminate@CTSGraphicsGdiPlusHandler@@UEAAJXZ
001F25CC ?InitGDIPCaps@CTSGraphicsGdiPlusHandler@@IEAAJXZ
001F2700 ?Enable@CTSGraphicsGdiPlusHandler@@UEAAJXZ
001F290C ?SetCapabilities@CTSGraphicsGdiPlusHandler@@UEAAJPEAVITSCapabilities@@@Z
001F29B8 ?GetGDIPCaps@CTSGraphicsGdiPlusHandler@@IEAAPEAUtagTS_DRAW_GDIPLUS_CAPABILITYSET@@XZ
001F2A2C ?DrawGdiplusStartup@CTSGraphicsGdiPlusHandler@@QEAAH_K@Z
001F2ADC ?DrawGdiplusCachePDUFirst@CTSGraphicsGdiPlusHandler@@QEAAJPEAUtagTS_DRAW_GDIPLUS_CACHE_ORDER_FIRST@@IPEAI@Z
001F2EB0 ?DrawGdiplusCachePDUNext@CTSGraphicsGdiPlusHandler@@QEAAJPEAUtagTS_DRAW_GDIPLUS_CACHE_ORDER_NEXT@@IPEAI@Z
001F2F94 ?DrawGdiplusCachePDUEnd@CTSGraphicsGdiPlusHandler@@QEAAJPEAUtagTS_DRAW_GDIPLUS_CACHE_ORDER_END@@IPEAI@Z
001F3164 ?DrawGdiplusCacheData@CTSGraphicsGdiPlusHandler@@QEAAJGGI@Z
001F34FC ?AssembleGdipEmfRecord@CTSGraphicsGdiPlusHandler@@IEAAJII@Z
001F39C4 ?DrawGdiplusPDUComplete@CTSGraphicsGdiPlusHandler@@QEAAJKK@Z
001F3C18 ?DrawGdiplusPDUFirst@CTSGraphicsGdiPlusHandler@@QEAAJPEAUtagTS_DRAW_GDIPLUS_ORDER_FRIST@@IPEAI@Z
001F3DE4 ?DrawGdiplusPDUNext@CTSGraphicsGdiPlusHandler@@QEAAJPEAUtagTS_DRAW_GDIPLUS_ORDER_NEXT@@IPEAI@Z
001F3EC8 ?DrawGdiplusPDUEnd@CTSGraphicsGdiPlusHandler@@QEAAJPEAUtagTS_DRAW_GDIPLUS_ORDER_END@@IPEAI@Z
001F4074 ?DrawGdipRemoveImageCacheEntry@CTSGraphicsGdiPlusHandler@@IEAAHG@Z
001F40EC ?AllocDrawGdiplusCacheMemory@CTSGraphicsGdiPlusHandler@@IEAAHXZ
001F4B20 ?GetShadowSurface@CTSGraphicsGdiPlusHandler@@IEAAPEAUHDC__@@XZ
001F4BFC ??_ECTSGraphicsDrawNineGridHandler@@MEAAPEAXI@Z
001F4C34 ??1CTSGraphicsDrawNineGridHandler@@MEAA@XZ
001F4CDC ?Initialize@CTSGraphicsDrawNineGridHandler@@UEAAJPEAVCTSGraphics@@@Z
001F4D3C ?Terminate@CTSGraphicsDrawNineGridHandler@@UEAAJXZ
001F4EC4 ?Enable@CTSGraphicsDrawNineGridHandler@@UEAAJXZ
001F4FFC ?SetCapabilities@CTSGraphicsDrawNineGridHandler@@UEAAJPEAVITSCapabilities@@@Z
001F50A8 ?GetDNGCaps@CTSGraphicsDrawNineGridHandler@@IEAAPEAUtagTS_DRAW_NINEGRID_CAPABILITYSET@@XZ
001F511C ?CacheStreamBitmapFirstPDU@CTSGraphicsDrawNineGridHandler@@QEAAJPEAUtagTS_STREAM_BITMAP_FIRST_PDU@@IPEAI@Z
001F54E8 ?CacheStreamBitmapNextPDU@CTSGraphicsDrawNineGridHandler@@QEAAJPEAUtagTS_STREAM_BITMAP_NEXT_PDU@@IPEAI@Z
001F56EC ?CreateNineGridBitmap@CTSGraphicsDrawNineGridHandler@@QEAAJPEAUtagTS_CREATE_NINEGRID_BITMAP_ORDER@@IPEAI@Z
001F5BBC ?DrawNineGrid@CTSGraphicsDrawNineGridHandler@@UEAAJPEAUtagTS_GFX_ORDER@@IPEAUtagTS_GFX_RECT@@@Z
001F5E34 ?AllocDrawNineGridCacheMemory@CTSGraphicsDrawNineGridHandler@@IEAAJXZ
001F6088 ?GetCurrentPalette@CTSGraphicsDrawNineGridHandler@@IEAAPEAUHPALETTE__@@XZ
001F6244 WPP_SF_ddDDDDDD
001F62E4 ??_ECTSGraphicsGlyphHandler@@MEAAPEAXI@Z
001F631C ??1CTSGraphicsGlyphHandler@@MEAA@XZ
001F63FC ?Initialize@CTSGraphicsGlyphHandler@@UEAAJPEAVCTSGraphics@@PEAVITSCLX@@@Z
001F64AC ?Terminate@CTSGraphicsGlyphHandler@@UEAAJXZ
001F663C ?InitGlyphCaps@CTSGraphicsGlyphHandler@@IEAAJXZ
001F6710 ?Enable@CTSGraphicsGlyphHandler@@UEAAJXZ
001F6878 ?SetCapabilities@CTSGraphicsGlyphHandler@@UEAAJPEAVITSCapabilities@@@Z
001F6924 ?GetGlyphCaps@CTSGraphicsGlyphHandler@@IEAAPEAUtagTS_GLYPHCACHE_CAPABILITYSET@@XZ
001F6998 ?Decode2ByteField@@YAJPEAPEAEPEAEPEAI@Z
001F6A5C ?Decode2ByteSignedField@@YAJPEAPEAEPEAEPEAH@Z
001F6B38 ?IsValidGlyphCacheIDIndex@CTSGraphicsGlyphHandler@@IEAAJII@Z
001F6B80 ?ProcessCacheGlyphOrderRev2@CTSGraphicsGlyphHandler@@QEAAJEIPEAEI@Z
001F6F34 ?ProcessCacheGlyphOrder@CTSGraphicsGlyphHandler@@QEAAJPEAUtagTS_CACHE_GLYPH_ORDER@@I@Z
001F7180 ?AllocOneFragCache@CTSGraphicsGlyphHandler@@IEAAHPEAUtagFRAGCACHE@@I@Z
001F7238 ?AllocGlyphCacheMemory@CTSGraphicsGlyphHandler@@IEAAHXZ
001F749C ?GlyphOut@CTSGraphicsGlyphHandler@@IEAAJPEAUtagTS_GFX_INDEX_ORDER@@PEAUtagTS_GFX_VARIABLE_INDEXBYTES@@II@Z
001F8124 ?NonDelegatingQueryInterface@CTSGraphicsSurfaceBase@@UEAAJAEBU_GUID@@PEAPEAX@Z
001F8260 ?NonDelegatingQueryInterface@CTSGraphicsSurfacePrimary@@UEAAJAEBU_GUID@@PEAPEAX@Z
001F83D0 ??0CTSGraphicsSurfaceBase@@QEAA@W4TS_GFX_SURFACE_TYPE@@@Z
001F84E4 ??_GCTSGraphicsSurfaceBase@@UEAAPEAXI@Z
001F851C ??1CTSGraphicsSurfaceBase@@UEAA@XZ
001F86C0 ?Initialize@CTSGraphicsSurfaceBase@@UEAAJPEAVITSCoreApi@@PEAVITSWin32CoreApi@@PEAVCTSGraphicsGdiPlusHandler@@PEAVCTSGraphicsDrawNineGridHandler@@PEAVCTSGraphicsGlyphHandler@@@Z
001F8A94 ?Terminate@CTSGraphicsSurfaceBase@@UEAAJXZ
001F8C4C ?CreateDesktopCompatibleDC@CTSGraphicsSurfaceBase@@KAJPEAPEAUHDC__@@@Z
001F8D64 ?SetClippingRegion@CTSGraphicsSurfaceBase@@UEAAJPEAX@Z
001F8F2C ?GetSurfaceSize@CTSGraphicsSurfaceBase@@UEAAJPEAUtagTS_GFX_SIZE@@@Z
001F8F9C ?GetClippingRegion@CTSGraphicsSurfaceBase@@UEAAJPEAPEAX@Z
001F90F4 ?SetPalette@CTSGraphicsSurfaceBase@@UEAAJPEAVITSGraphicsPalette@@@Z
001F924C ?GetPalette@CTSGraphicsSurfaceBase@@UEAAJPEAPEAVITSGraphicsPalette@@@Z
001F92C0 ?SetPaletteOnHDC@CTSGraphicsSurfaceBase@@KAJPEAVCTSGraphicsPalette@@PEAUHDC__@@@Z
001F9434 ?SetPaletteIndexTable@CTSGraphicsSurfaceBase@@UEAAJPEAGH@Z
001F94E8 ?SetBitmap@CTSGraphicsSurfaceBase@@UEAAJPEAVITSGraphicsBitmap@@@Z
001F9658 ?GetBitmap@CTSGraphicsSurfaceBase@@UEAAJPEAPEAVITSGraphicsBitmap@@@Z
001F96CC ?SetBrush@CTSGraphicsSurfaceBase@@UEAAJPEAVITSGraphicsBrush@@@Z
001F981C ?GetBrush@CTSGraphicsSurfaceBase@@UEAAJPEAPEAVITSGraphicsBrush@@@Z
001F9890 ?SetBrushOrigin@CTSGraphicsSurfaceBase@@UEAAJHH@Z
001F996C ?GetBrushOrigin@CTSGraphicsSurfaceBase@@UEAAJPEAH0@Z
001F9ABC ?SetPen@CTSGraphicsSurfaceBase@@UEAAJPEAVITSGraphicsPen@@@Z
001F9C0C ?SetBackgroundMode@CTSGraphicsSurfaceBase@@UEAAJW4TS_GFX_BRUSH_BKMODE@@@Z
001F9D24 ?GetBackgroundMode@CTSGraphicsSurfaceBase@@UEAAJPEAW4TS_GFX_BRUSH_BKMODE@@@Z
001F9E7C ?SetBackgroundColor@CTSGraphicsSurfaceBase@@UEAAJI@Z
001F9F4C ?SetForegroundColor@CTSGraphicsSurfaceBase@@UEAAJI@Z
001FA01C ?SetTextAlignment@CTSGraphicsSurfaceBase@@UEAAJI@Z
001FA0EC ?GetTextAlignment@CTSGraphicsSurfaceBase@@UEAAJPEAI@Z
001FA1FC ?Flush@CTSGraphicsSurfaceBase@@UEAAJXZ
001FA290 ?FastBltPlanar@CTSGraphicsSurfaceBase@@UEAAJHHPEAU_RDP_BITMAP@@000HEH@Z
001FA550 ?FastBlt@CTSGraphicsSurfaceBase@@UEAAJHHIIHHW4TS_GFX_BITMAP_ENCODING@@PEAXKIIKPEAGI@Z
001FA8D0 ?BitBlt@CTSGraphicsSurfaceBase@@UEAAJUtagTS_GFX_RECT@@PEAVITSGraphicsSurfaceEx@@UtagTS_GFX_POINT@@K@Z
001FAAD0 ?OpaqueBlt@CTSGraphicsSurfaceBase@@UEAAJUtagTS_GFX_RECT@@I@Z
001FAD64 ?PatBlt@CTSGraphicsSurfaceBase@@UEAAJUtagTS_GFX_RECT@@K@Z
001FAEC4 ?TransparentBlt@CTSGraphicsSurfaceBase@@UEAAJUtagTS_GFX_RECT@@PEAVITSGraphicsSurfaceEx@@0I@Z
001FB12C ?AlphaBlend@CTSGraphicsSurfaceBase@@UEAAJUtagTS_GFX_RECT@@PEAVITSGraphicsSurfaceEx@@0@Z
001FB3A8 ?DrawLine@CTSGraphicsSurfaceBase@@UEAAJUtagTS_GFX_POINT@@0K@Z
001FB3D8 ?DrawPolyLine@CTSGraphicsSurfaceBase@@UEAAJPEAUtagTS_GFX_POINT@@IK@Z
001FB6A4 ?DrawRectangle@CTSGraphicsSurfaceBase@@UEAAJUtagTS_GFX_RECT@@K@Z
001FB888 ?DrawEllipse@CTSGraphicsSurfaceBase@@UEAAJUtagTS_GFX_RECT@@KW4TS_GFX_POLYFILLMODE@@@Z
001FBAFC ?DrawPolygon@CTSGraphicsSurfaceBase@@UEAAJPEAUtagTS_GFX_POINT@@IKW4TS_GFX_POLYFILLMODE@@@Z
001FBE20 ?DrawBorder@CTSGraphicsSurfaceBase@@UEAAJPEAXII@Z
001FBFE8 ?DrawFilledRegion@CTSGraphicsSurfaceBase@@UEAAJPEAX@Z
001FC18C ?ColorRGBFromPaletteIndex@CTSGraphicsSurfaceBase@@UEAAJGPEAI@Z
001FC1E8 ?GDIPlusPassthrough@CTSGraphicsSurfaceBase@@UEAAJIPEAEIPEAI@Z
001FC6E0 ?DrawNineGridPassthrough@CTSGraphicsSurfaceBase@@UEAAJIPEAEIPEAI@Z
001FCA10 ?DrawNineGridPassthrough@CTSGraphicsSurfaceBase@@UEAAJPEAUtagTS_GFX_ORDER@@IPEAUtagTS_GFX_RECT@@@Z
001FCB68 ?GlyphPassthrough@CTSGraphicsSurfaceBase@@UEAAJPEAUtagTS_GFX_INDEX_ORDER@@PEAUtagTS_GFX_VARIABLE_INDEXBYTES@@PEAUtagTS_GFX_RECT@@II@Z
001FCD98 ?GlyphPassthrough@CTSGraphicsSurfaceBase@@UEAAJEIPEAEI@Z
001FCE7C ?GlyphPassthrough@CTSGraphicsSurfaceBase@@UEAAJPEAUtagTS_CACHE_GLYPH_ORDER@@I@Z
001FCF60 ?ColorRoundToNearestPaletteRGB@CTSGraphicsSurfaceBase@@UEAAJIPEAI@Z
001FCFEC ?AddUpdateRegion@CTSGraphicsSurfaceBase@@UEAAJPEAX@Z
001FD170 ?AddUpdateRegion@CTSGraphicsSurfaceBase@@UEAAJUtagTS_GFX_RECT@@@Z
001FD1A0 ?AddUpdateRegion@CTSGraphicsSurfaceBase@@UEAAJHHII@Z
001FD2F4 ?SetUpdateRegion@CTSGraphicsSurfaceBase@@UEAAJPEAUITSWin32GraphicsRegion@@@Z
001FD340 ?GetUpdateRegion@CTSGraphicsSurfaceBase@@UEAAJPEAPEAUITSWin32GraphicsRegion@@@Z
001FD3B4 ?GetUpdateRegion@CTSGraphicsSurfaceBase@@UEAAJPEAPEAX@Z
001FD410 ??0CTSGraphicsSurfacePrimary@@QEAA@XZ
001FD4D8 ??_GCTSGraphicsSurfacePrimary@@UEAAPEAXI@Z
001FD510 ??1CTSGraphicsSurfacePrimary@@UEAA@XZ
001FD5B4 ?Initialize@CTSGraphicsSurfacePrimary@@UEAAJPEAVITSCoreApi@@PEAVITSWin32CoreApi@@PEAVCTSGraphicsGdiPlusHandler@@PEAVCTSGraphicsDrawNineGridHandler@@PEAVCTSGraphicsGlyphHandler@@IHUtagTS_GFX_SIZE@@@Z
001FD724 ?Terminate@CTSGraphicsSurfacePrimary@@UEAAJXZ
001FD7F4 ?InitializeDefaultSettings@CTSGraphicsSurfacePrimary@@UEAAJXZ
001FD868 ?Enable@CTSGraphicsSurfacePrimary@@UEAAJXZ
001FD990 ?Disable@CTSGraphicsSurfacePrimary@@UEAAJXZ
001FD9C0 ?ClearShadowSurface@CTSGraphicsSurfacePrimary@@UEAAJXZ
001FDCE4 ?SetUseShadowSurface@CTSGraphicsSurfacePrimary@@UEAAJH@Z
001FDDDC ?SetPalette@CTSGraphicsSurfacePrimary@@UEAAJPEAVITSGraphicsPalette@@@Z
001FDFA0 ?Flush@CTSGraphicsSurfacePrimary@@UEAAJXZ
001FE0D4 ?FastBlt@CTSGraphicsSurfacePrimary@@UEAAJHHIIHHW4TS_GFX_BITMAP_ENCODING@@PEAXKIIKPEAGI@Z
001FE3B0 ?FastBltPlanar@CTSGraphicsSurfacePrimary@@UEAAJHHPEAU_RDP_BITMAP@@000HEH@Z
001FE700 ?SetShadowBitmap@CTSGraphicsSurfacePrimary@@UEAAJPEAVITSGraphicsBitmap@@@Z
001FE850 ?GetShadowBitmap@CTSGraphicsSurfacePrimary@@UEAAJPEAPEAVITSGraphicsBitmap@@@Z
001FE8C8 ?GetDrawingSurface@CTSGraphicsSurfacePrimary@@UEAAPEAUHDC__@@XZ
001FE988 ?CreateShadowSurface@CTSGraphicsSurfacePrimary@@IEAAJXZ
001FECE8 ?DeleteShadowSurface@CTSGraphicsSurfacePrimary@@IEAAJXZ
001FED78 ?RepaintRegion@CTSGraphicsSurfacePrimary@@UEAAXPEBUtagRECT@@@Z
001FEE24 ?AddUpdateRegion@CTSGraphicsSurfacePrimary@@UEAAJPEAX@Z
001FEE80 ?AddUpdateRegion@CTSGraphicsSurfacePrimary@@UEAAJHHII@Z
001FEEE4 ??_ECTSGraphicsSurfaceSecondary@@UEAAPEAXI@Z
001FEF1C ??1CTSGraphicsSurfaceSecondary@@UEAA@XZ
001FEF6C ?Initialize@CTSGraphicsSurfaceSecondary@@UEAAJPEAVITSCoreApi@@PEAVITSWin32CoreApi@@PEAVCTSGraphicsGdiPlusHandler@@PEAVCTSGraphicsDrawNineGridHandler@@PEAVCTSGraphicsGlyphHandler@@@Z
001FF070 ?Terminate@CTSGraphicsSurfaceSecondary@@UEAAJXZ
001FF174 ??_ECTSGraphicsPen@@UEAAPEAXI@Z
001FF1AC ??1CTSGraphicsPen@@UEAA@XZ
001FF20C ?Initialize@CTSGraphicsPen@@UEAAJW4TS_GFX_PEN_TYPE@@II@Z
001FF32C ?Terminate@CTSGraphicsPen@@UEAAJXZ
001FF388 ?GetColor@CTSGraphicsPen@@UEAAJPEAI@Z
001FF3E8 ??_ECTSGraphicsBrush@@UEAAPEAXI@Z
001FF420 ??1CTSGraphicsBrush@@UEAA@XZ
001FF480 ?Initialize@CTSGraphicsBrush@@UEAAJW4TS_GFX_BRUSH_TYPE@@PEATtagTS_GFX_BRUSH_DATA@@@Z
001FF7C8 ?CreateBrushFromBitmapBits@CTSGraphicsBrush@@IEAAJPEATtagTS_GFX_BRUSH_DATA@@PEAPEAUHBRUSH__@@@Z
001FF9C4 ?Terminate@CTSGraphicsBrush@@UEAAJXZ
001FFA34 ?GetBrushData@CTSGraphicsBrush@@UEAAJPEATtagTS_GFX_BRUSH_DATA@@@Z
001FFAD4 ?NonDelegatingQueryInterface@CTSGraphicsPalette@@UEAAJAEBU_GUID@@PEAPEAX@Z
001FFBD8 ??0CTSGraphicsPalette@@QEAA@XZ
001FFC64 ??_GCTSGraphicsPalette@@UEAAPEAXI@Z
001FFC9C ??1CTSGraphicsPalette@@UEAA@XZ
001FFD08 ?Initialize@CTSGraphicsPalette@@UEAAJPEAIII@Z
001FFFB8 ?InitializeDefaultPalette@CTSGraphicsPalette@@UEAAJXZ
0020002C ?GetNearestPaletteIndex@CTSGraphicsPalette@@UEAAJIPEAI@Z
002000D0 ?Terminate@CTSGraphicsPalette@@UEAAJXZ
00200148 ?UpdateDIB@CTSGraphicsPalette@@UEAAJPEAUHDC__@@@Z
00200280 ?CalculateGlyphClipRect@@YAIPEAUtagRECT@@PEAUtagTS_GFX_INDEX_ORDER@@PEAUtagGLYPHCACHEENTRYHDR@@HH@Z
00200310 ?ClipGlyphBits@@YAJPEAVCTSGraphicsGlyphHandler@@PEAUtagRECT@@PEAUtagGLYPHCACHEENTRYHDR@@PEAPEAE3@Z
00200634 ?GlyphSlowOutputBuffer@CTSGraphicsGlyphHandler@@IEAAXPEAUtagTS_GFX_INDEX_ORDER@@PEAEKIII@Z
00200A20 ?draw_nf_ntb_o_to_temp_start@CTSGraphicsGlyphHandler@@SAJPEAV1@PEAUtagTS_GFX_INDEX_ORDER@@IPEAPEAEPEAEPEAH433KIPEAG_K4@Z
00200E4C ?draw_f_ntb_o_to_temp_start@CTSGraphicsGlyphHandler@@SAJPEAV1@PEAUtagTS_GFX_INDEX_ORDER@@IPEAPEAEPEAEPEAH433KIPEAG_K4@Z
002011D8 ?draw_nf_tb_no_to_temp_start@CTSGraphicsGlyphHandler@@SAJPEAV1@PEAUtagTS_GFX_INDEX_ORDER@@IPEAPEAEPEAEPEAH433KIPEAG_K4@Z
002015B0 ?draw_f_tb_no_to_temp_start@CTSGraphicsGlyphHandler@@SAJPEAV1@PEAUtagTS_GFX_INDEX_ORDER@@IPEAPEAEPEAEPEAH433KIPEAG_K4@Z
00201928 ?FastBltForShadow@CTSGraphicsSurfacePrimary@@IEAAJHHIIHHW4TS_GFX_BITMAP_ENCODING@@PEAEIIIPEAGI@Z
00202240 ?or_all_1_wide_rotated_need_last@@YAXJJJPEAE000J@Z
00202378 ?or_first_2_wide_rotated_need_last@@YAXJJJPEAE000J@Z
00202420 ?or_all_2_wide_rotated_need_last@@YAXJJJPEAE000J@Z
002024C0 ?or_first_2_wide_rotated_no_last@@YAXJJJPEAE000J@Z
00202550 ?or_all_2_wide_rotated_no_last@@YAXJJJPEAE000J@Z
002026D8 ?or_first_3_wide_rotated_need_last@@YAXJJJPEAE000J@Z
00202774 ?or_all_3_wide_rotated_need_last@@YAXJJJPEAE000J@Z
00202810 ?or_all_3_wide_rotated_no_last@@YAXJJJPEAE000J@Z
002028A8 ?or_first_3_wide_rotated_no_last@@YAXJJJPEAE000J@Z
00202A30 ?or_first_4_wide_rotated_need_last@@YAXJJJPEAE000J@Z
00202AEC ?or_all_4_wide_rotated_need_last@@YAXJJJPEAE000J@Z
00202BA8 ?or_first_4_wide_rotated_no_last@@YAXJJJPEAE000J@Z
00202C54 ?or_all_4_wide_rotated_no_last@@YAXJJJPEAE000J@Z
00202EB0 ?or_all_N_wide_rotated_need_last@@YAXJJJPEAE000JJ@Z
00202F74 ?or_all_N_wide_rotated_no_last@@YAXJJJPEAE000JJ@Z
00203030 ?or_all_N_wide_unrotated@@YAXJJJPEAE000JJ@Z
002030B0 WPP_SF_Dxx
00203108 WPP_SF_H
0020314C WPP_SF_HsHH
00203220 WPP_SF_xDddd
0020329C ?TSCreateInput@@YAJPEAXPEAPEAVITSInput@@@Z
002033A8 ??0CTSInput@@QEAA@PEAVITSInstance@@@Z
00203814 ??_ECTSInput@@UEAAPEAXI@Z
0020384C ??1CTSInput@@UEAA@XZ
00203A6C ?Initialize@CTSInput@@UEAAJXZ
00203F94 ?SetInputSink@CTSInput@@UEAAJPEAVITSInputMouseKeyboardSink@@@Z
00203FF8 ?Terminate@CTSInput@@UEAAJXZ
00204280 ?GetMouseCapsFlags@CTSInput@@UEAAIXZ
002042BC ?Enable@CTSInput@@UEAAJXZ
0020435C ?EnableThreadWorker@CTSInput@@UEAAJPEAVITSAsyncResult@@_K@Z
00204540 ?Disable@CTSInput@@UEAAJXZ
002045E0 ?DisableThreadWorker@CTSInput@@UEAAJPEAVITSAsyncResult@@_K@Z
00204684 ?CoreObjectPhase2Initialize@CTSInput@@UEAAJXZ
002048FC ?CoreObjectPhase2Terminate@CTSInput@@UEAAJXZ
00204AB4 ?InitializeInputWindow@CTSInput@@AEAAJXZ
00204F54 ?InitializeDefaultSettings@CTSInput@@UEAAXXZ
00204FD4 ?ParentInputWindow@CTSInput@@QEAAXH@Z
002051B0 ?GetKeyboardSubType@CTSInput@@UEAAIXZ
00205298 ?GetKeyboardLayout@CTSInput@@UEAAIXZ
00205374 ?GetKeyboardLayoutThreadWorker@CTSInput@@UEAAJPEAVITSAsyncResult@@_K@Z
0020556C ?SetMouseCursorPosition@CTSInput@@UEAAJPEAUtagTS_GFX_POINT@@@Z
00205674 ?SetMouseCursorPositionThreadWorker@CTSInput@@UEAAJPEAVITSAsyncResult@@_K@Z
00205A68 ?SetMouseCursorShape@CTSInput@@UEAAJPEAX@Z
00205B24 ?SetMouseCursorShapeThreadWorker@CTSInput@@UEAAJPEAVITSAsyncResult@@_K@Z
00205B40 ?GetMouseCursorShape@CTSInput@@UEAAJPEAPEAX@Z
00205B9C ?OnEnableRequest@CTSInput@@UEAAJXZ
00205C3C ?OnEnableRequestSNDThreadWorker@CTSInput@@UEAAJPEAVITSAsyncResult@@_K@Z
00205C5C ?OnDisableRequest@CTSInput@@UEAAJXZ
00205CFC ?OnDisableRequestSNDThreadWorker@CTSInput@@UEAAJPEAVITSAsyncResult@@_K@Z
00205D20 ?OnBufferAvailableRequest@CTSInput@@UEAAJXZ
00205DC0 ?OnBufferAvailableRequestSNDThreadWorker@CTSInput@@UEAAJPEAVITSAsyncResult@@_K@Z
00205DE0 ?IHSetVisiblePosAsDesktop@CTSInput@@AEAAXXZ
00205E34 ?OnVisibleSizeChange@CTSInput@@UEAAJPEAVITSAsyncResult@@_K@Z
00205F08 ?SetFocus@CTSInput@@UEAAJXZ
00205F28 ?SetVisiblePos@CTSInput@@UEAAJPEAXI@Z
00205FFC ?SetVisiblePosThreadWorker@CTSInput@@UEAAJPEAVITSAsyncResult@@_K@Z
0020615C ?GetCurrentMousePosition@CTSInput@@UEAAJPEAUtagTS_GFX_POINT@@@Z
002061F0 ?ClipMouse@CTSInput@@UEAAJPEAUtagTS_GFX_POINT@@@Z
0020623C ?OnRequestSyncInputState@CTSInput@@UEAAJ_K@Z
00206264 ?InjectMultipleVKeys@CTSInput@@UEAAJPEAUtagIH_INJECT_VKEYS_REQUEST@@@Z
00206384 ?InjectMultipleVKeysWorker@CTSInput@@UEAAJPEAVITSAsyncResult@@_K@Z
0020663C ?OnUpdateKeyboardIndicators@CTSInput@@UEAAJGG@Z
00206738 ?ChangeInputMode@CTSInput@@UEAAJPEAK@Z
00206788 ?UpdateKeyboardIndicator@CTSInput@@AEAAXPEAEEE@Z
002067D8 ?NotifyInputParentWndEvent@CTSInput@@UEAAJ_K@Z
00206948 ?ForceSendInputEvent@CTSInput@@UEAAJI_K_J@Z
002069D8 ?ForceSendCursorEvent@CTSInput@@UEAAJIK@Z
00206A94 ?ForceSendLeftKeyState@CTSInput@@UEAAJHHKPEAH@Z
00206BF0 ?ForceSendRightKeyState@CTSInput@@UEAAJHHKPEAHG@Z
00206D74 ?ForceSyncState@CTSInput@@UEAAX_K@Z
00206DA4 ?OnRequestSyncModifiersUpKeyState@CTSInput@@UEAAXXZ
00206DD4 ?OnUpdateKeyboardImeStatus@CTSInput@@UEAAJII@Z
00206E08 ?OnNotifyEnterFullScreen@CTSInput@@UEAAJPEAVITSAsyncResult@@_K@Z
00206E80 ?OnNotifyLeaveFullScreen@CTSInput@@UEAAJPEAVITSAsyncResult@@_K@Z
00206EF8 ?InitIdleQueryTimer@CTSInput@@QEAAJH@Z
00207078 ?ConfigureHotkeys@CTSInput@@QEAAJXZ
002074D4 ?OnPropChangeCoreClipMouseToVisible@CTSInput@@UEAAJPEAVITSAsyncResult@@_K@Z
00207548 ?OnPropChangeHotkeysEnabled@CTSInput@@UEAAJPEAVITSAsyncResult@@_K@Z
002075BC ?OnPropChangeRfxMinSendIntervalOverride@CTSInput@@UEAAJPEAVITSAsyncResult@@_K@Z
00207708 ?AddRelativeEventsToPDU@CTSInput@@AEAAXPEAUtagMSG@@@Z
00207A80 ?AdjustMouseEventForSmartSizing@CTSInput@@AEAAXAEBUtagPOINT@@PEAJ1@Z
00207AEC ?AddEventToPDU@CTSInput@@AEAAHPEAUtagMSG@@@Z
00208848 ?NonDelegatingQueryInterface@CTSInput@@UEAAJAEBU_GUID@@PEAPEAX@Z
002089E8 ?UT_IsNX98Key@CTSInput@@UEAAHXZ
00208A3C ?SetTransform@CTSInput@@UEAAXPEAVITransform@@@Z
00208A8C ?UT_IsNEC98platform@CTSInputUtils@@QEAAHXZ
00208AC4 ?UT_GetRealDriverNameNT@CTSInputUtils@@QEAAHPEAGI@Z
00208CE8 ?UT_IsNew106Layout@CTSInputUtils@@QEAAHXZ
00208E68 ?UT_IsFujitsuLayout@CTSInputUtils@@QEAAHXZ
00208F64 ?UT_IsKorean101LayoutForWin9x@CTSInputUtils@@QEAAHXZ
00208FB0 ?UT_IsKorean101LayoutForNT351@CTSInputUtils@@QEAAHXZ
00209040 ?LoadExternalDll@CTSInputUtils@@QEAAPEAUHINSTANCE__@@PEBGPEAT_FUNCTIONPORT@@K@Z
00209104 ?GetOsMinorType@CTSInputUtils@@QEAAIXZ
0020915C WPP_SF_DDcddd
002091EC WPP_SF_Ddd
0020924C WPP_SF_Dqxx
002092BC WPP_SF_DxD
00209320 WPP_SF_sDxx
002093E8 WPP_SF_sDxxDddd
0020950C WPP_SF_sxD
002095C4 WPP_SF_xx
0020960C ?internalProcessInput@CTSInput@@AEAAJPEAUtagMSG@@@Z
00209D94 ?IHStaticInputCaptureWndProc@CTSInput@@CA_JPEAUHWND__@@I_K_J@Z
00209E2C ?IHInputCaptureWndProc@CTSInput@@AEAA_JPEAUHWND__@@I_K_J@Z
0020AAC4 ?OnIdleQueryTimer@CTSInput@@UEAAJPEAVITSAsyncResult@@_K@Z
0020AC7C ?IsDesktopFullScreen@CTSInput@@AEAAHXZ
0020AD1C ?IHSync@CTSInput@@AEAAX_K@Z
0020BA24 ?IHDiscardMsg@CTSInput@@AEAAXPEAUtagMSG@@@Z
0020BBC0 ?IHSetMouseHandedness@CTSInput@@AEAAXXZ
0020BC6C ?IHCheckForHotkey@CTSInput@@AEAAHPEAUtagMSG@@@Z
0020C4F8 ?IHProcessKoreanVKHangulHanja@CTSInput@@AEAAHPEAG0@Z
0020C5F4 ?IHProcessKeyboardEvent@CTSInput@@AEAAHPEAUtagMSG@@@Z
0020D820 ?IHProcessMouseEvent@CTSInput@@AEAAHPEAUtagMSG@@@Z
0020DBB8 ?IHRelativeMouseEventCount@CTSInput@@AEAAIPEAUtagMSG@@@Z
0020DCB4 ?IHStaticLowLevelKeyboardProc@CTSInput@@CA_JH_K_J@Z
0020DCFC ?IHLowLevelKeyboardProc@CTSInput@@AEAA_JH_K_J@Z
0020E2AC ?IHMaintainModifierKeyState@CTSInput@@AEAAXH@Z
0020E6D8 ?IHHandleLocalLockDesktop@CTSInput@@AEAAXXZ
0020E984 ?IsForegroundWindow@CTSInput@@AEAAHPEAUHWND__@@@Z
0020EA58 ?IHSetCursorShape@CTSInput@@AEAAXPEAUHICON__@@@Z
0020EC2C ?GetDefaultLangID@CTSInput@@AEAA?AW4DCLANGID@@XZ
0020EC84 ?ResetIdleTimer@CTSInput@@EEAAXXZ
0020ECB0 ?IHUpdateInputSentTickCount@CTSInput@@AEAAXXZ
0020ED08 ?IHPostMessageToMainWindow@CTSInput@@AEAAHI_K_J@Z
0020EFBC ?IHInjectKey@CTSInput@@AEAAXI_KG@Z
0020F0A8 ?CiceroHideLangBar@CTSInput@@EEAAXXZ
0020F150 ?CiceroRestoreLangBar@CTSInput@@EEAAXXZ
0020F1D0 ?NotifyFocusGained@CTSInput@@AEAAJ_K@Z
0020F2F8 ?CaptureRelativeMouse@CTSInput@@AEAAJI@Z
0020F3C0 ?ReleaseRelativeMouse@CTSInput@@AEAAJXZ
0020F530 ?PeekForRawInputMessage@CTSInput@@AEAAHPEAUtagMSG@@I@Z
0020F5A0 ?DisableIME@CTSInput@@UEAAXPEAUHWND__@@@Z
0020F5C8 ?GetIMEFileName@CTSInput@@UEAAJPEAGI@Z
0020F75C ?GetIMEFileName16@CTSInput@@AEAAXPEAGI@Z
0020F8A4 ?GetIMEMappingTableName@CTSInput@@AEAAIPEAGI@Z
0020F934 WPP_SF_dDDDDDD
0020F9CC WPP_SF_qDD
0020FA30 ?DestroyCursor@CTSInput@@UEAAJPEAX@Z
0020FA4C ?CreateColorCursor@CTSInput@@UEAAJIUtagTS_GFX_POINT@@GGGGPEAEPEAPEAX@Z
00210134 ?CreateMonoCursor@CTSInput@@UEAAJUtagTS_GFX_POINT@@GGGGPEAEPEAPEAX@Z
002102AC ?CreateXORBitmap@CTSInput@@AEAAPEAUHBITMAP__@@PEAUtagBITMAPINFO@@IIPEAE@Z
0021060C ?GetCurrentPalette@CTSInput@@AEAAPEAUHPALETTE__@@XZ
0021088C ?NonDelegatingQueryInterface@CTSVirtualChannelPluginLoader@@UEAAJAEBU_GUID@@PEAPEAX@Z
00210A08 ??_GCPnpRdrConfig@@UEAAPEAXI@Z
00210AB0 WPP_SF_sq
00210B4C WPP_SF_sqq
00210BFC ??0CTSVirtualChannelPluginLoader@@QEAA@PEAVITSInstance@@@Z
00210D54 ??_ECTSVirtualChannelPluginLoader@@UEAAPEAXI@Z
00210D8C ??1CTSVirtualChannelPluginLoader@@UEAA@XZ
00210F6C ?Initialize@CTSVirtualChannelPluginLoader@@UEAAJXZ
002110CC ?Terminate@CTSVirtualChannelPluginLoader@@UEAAJXZ
0021117C ?CoreObjectPhase2Initialize@CTSVirtualChannelPluginLoader@@UEAAJXZ
0021119C ?CoreObjectPhase2Terminate@CTSVirtualChannelPluginLoader@@UEAAJXZ
00211208 ?SetVirtualChannelPluginList@CTSVirtualChannelPluginLoader@@UEAAJPEBG@Z
00211320 ?LoadVirtualChannelPlugins@CTSVirtualChannelPluginLoader@@UEAAJPEAVITSCoreVirtualChannel@@@Z
0021146C ?UnloadPlugins@CTSVirtualChannelPluginLoader@@UEAAXXZ
0021163C ?SendOverride@CTSVirtualChannelPluginLoader@@UEAAJPEAXP6AJ00@Z0@Z
00211724 ?GetCommonChannelConfig@CTSVirtualChannelPluginLoader@@UEAAJPEAPEAUIWTSVirtualChannelConfig@@@Z
00211788 ?SendOverrideThreadWorker@CTSVirtualChannelPluginLoader@@UEAAJPEAVITSAsyncResult@@_K@Z
0021180C ?ProcessStaticVirtualChannelPlugins@CTSVirtualChannelPluginLoader@@MEAAJPEAVITSCoreVirtualChannel@@@Z
00212794 ?ProcessExternalVirtualChannelPlugins@CTSVirtualChannelPluginLoader@@MEAAJPEAVITSCoreVirtualChannel@@@Z
002128CC ?LoadExternalPlugin@CTSVirtualChannelPluginLoader@@MEAAJPEBGPEAVITSCoreVirtualChannel@@@Z
00212B88 ?OnDeviceChange@CTSVirtualChannelPluginLoader@@UEAAX_K_J@Z
00212DAC ?OnDeviceChangeWorker@CTSVirtualChannelPluginLoader@@UEAAJPEAVITSAsyncResult@@_K@Z
00212E40 ?GetRunningVCPluginInstance@CTSVirtualChannelPluginLoader@@UEAAJU_GUID@@PEAPEAVITSVirtualChannelPlugin@@@Z
00212FD8 ?NonDelegatingQueryInterface@CCommonVCChannelConfig@@UEAAJAEBU_GUID@@PEAPEAX@Z
002130D0 ??_GCCommonVCChannelConfig@@UEAAPEAXI@Z
0021316C ?Terminate@CCommonVCChannelConfig@@UEAAJXZ
002131E8 ?GetConfiguration@CCommonVCChannelConfig@@UEAAJPEBDPEAPEAUIPropertyBag@@@Z
002132EC ?SetConfiguration@CCommonVCChannelConfig@@UEAAJPEBDPEAUIPropertyBag@@@Z
0021348C ?TerminateConfiguration@CCommonVCChannelConfig@@UEAAJXZ
00213510 ?Read@CCommonVCChannelConfig@@UEAAJPEBGPEAUtagVARIANT@@PEAUIErrorLog@@@Z
00213740 ?NonDelegatingQueryInterface@CTSTransportStack@@UEAAJAEBU_GUID@@PEAPEAX@Z
00213874 ?TSCreateTransportStack@@YAJPEAXPEAPEAVITSTransportStack@@@Z
00213980 ??0CTSTransportStack@@QEAA@PEAVITSInstance@@@Z
00213B54 ??_GCTSTransportStack@@UEAAPEAXI@Z
00213B8C ??1CTSTransportStack@@UEAA@XZ
00213DD8 ?CoreObjectPhase2Initialize@CTSTransportStack@@UEAAJXZ
002141A4 ?CoreObjectPhase2Terminate@CTSTransportStack@@UEAAJXZ
00214414 ?InitializeStack@CTSTransportStack@@UEAAJXZ
00214478 ?TerminateStack@CTSTransportStack@@UEAAJXZ
0021460C ?TerminateExistingTransports@CTSTransportStack@@AEAAXPEAU_GUID@@@Z
00214720 ?StartConnect@CTSTransportStack@@UEAAJPEBGKPEAEPEAVITSTransportEventsNotifySink@@PEAVITSPropertySet@@@Z
00214CC0 ?Disconnect@CTSTransportStack@@UEAAJXZ
00214F90 ?GetTransport@CTSTransportStack@@UEAAJPEAPEAVITSTransport@@@Z
0021500C ?CanDisconnect@CTSTransportStack@@UEAAJH@Z
0021515C ?ParseSchemeIdentifier@CTSTransportStack@@AEAAJPEBGPEAGK@Z
00215238 ?ParseConnectionSpecificString@CTSTransportStack@@AEAAJPEBGPEAGK@Z
00215348 ?FindNameResolverFromScheme@CTSTransportStack@@AEAAJPEBGPEAU_GUID@@@Z
0021544C ?OnNameResolved@CTSTransportStack@@UEAAJKPEAU_GUID@@PEAUtagTS_FILTER_INFO@@PEAEIPEAVITSPropertySet@@@Z
002155F4 ?ReTarget@CTSTransportStack@@UEAAJPEBG@Z
00215A48 ?OnResolutionError@CTSTransportStack@@UEAAJJK@Z
00215C80 ?OnConnected@CTSTransportStack@@UEAAJXZ
00215DB4 ?OnDisconnected@CTSTransportStack@@UEAAJK@Z
00216044 ?OnDataAvailable@CTSTransportStack@@UEAAJPEAEI@Z
0021606C ?OnBufferAvailable@CTSTransportStack@@UEAAJXZ
00216094 ?OnReadyConnect@CTSTransportStack@@UEAAJU_GUID@@PEAEKPEAVITSPropertySet@@@Z
002160F8 ?OnAsyncStartConnect@CTSTransportStack@@UEAAJPEAVITSAsyncResult@@_K@Z
00216760 ?ResetConnectionTimer@CTSTransportStack@@AEAAJK@Z
00216894 ?CancelConnectionTimer@CTSTransportStack@@AEAAJXZ
002169DC ?OnAsyncConnectionTimerFired@CTSTransportStack@@EEAAJPEAVITSAsyncResult@@_K@Z
00216B44 ?ResetResolutionTimer@CTSTransportStack@@AEAAJK@Z
00216C78 ?CancelResolutionTimer@CTSTransportStack@@AEAAJXZ
00216DC0 ?OnAsyncResolutionTimerFired@CTSTransportStack@@EEAAJPEAVITSAsyncResult@@_K@Z
00216EDC ?OnPreConnect@CTSTransportStack@@AEAAJPEAU_GUID@@PEAEIPEAHPEAVITSPropertySet@@@Z
00216FAC ?CheckBlockLoopback@CTSTransportStack@@AEAAHPEAUtagTS_TCPTRANSPORT_CONNECT@@@Z
00217260 ?IsConnectingToOwnAddress@CTSTransportStack@@AEAAHPEAUsockaddr_storage_xp@@_K@Z
0021755C ?HmacHashDataEx@@YAHPEAU_CAPI_FUNCTION_TABLE@@_KPEAEK2K1PEA_K@Z
002176C8 ?DumpHashes@@YAHPEAU_CAPI_FUNCTION_TABLE@@PEA_KPEAEK@Z
00217768 TS_SECURITY_FIPS_InitContext
00217800 TS_SECURITY_FIPS_Init
00217A10 TS_SECURITY_FIPS_Enable
00217AEC TS_SECURITY_FIPS_Term
00217B44 ?ImportKey@@YAHPEAU_CAPI_FUNCTION_TABLE@@_KIPEAEKKPEA_K@Z
00217C84 ?TS_SECURITY_FIPS_DeriveKey@@YAHPEAU_CAPI_FUNCTION_TABLE@@_KPEA_KPEAEK3PEAK@Z
00217E2C TS_SECURITY_FIPS_MakeSessionKeys
002182D8 TS_SECURITY_FIPS_EncryptData
00218400 TS_SECURITY_FIPS_DecryptData
0021857C TS_SECURITY_AllocRC4Key
002185D0 TS_SECURITY_UpdateSessionKey
00218734 TS_SECURITY_DecryptData
002187EC TS_SECURITY_EncryptClientRandom
002188D8 ??_ECVCAdapter@@UEAAPEAXI@Z
002189CC ?Initialize@CVCAdapter@@QEAAJPEAPEAUIWTSPlugin@@@Z
00218B0C ?Terminate@CVCAdapter@@UEAAJXZ
00218C18 ?VirtualChannelEntryEx@CVCAdapter@@UEAAJPEAUtagCHANNEL_ENTRY_POINTS_EX@@PEAX@Z
00218C90 ?SetStaticChannelConfig@CVCAdapter@@UEAAJPEBDPEAUIWTSVirtualChannelConfig@@@Z
00218E60 ?CreateListener@CVCAdapter@@UEAAJPEBDKPEAUIWTSListenerCallback@@PEAPEAUIWTSListener@@@Z
002191CC ?staticInitEventFnEx@CVCAdapter@@SAXPEAX0I0I@Z
00219360 ?CreateInstance@CCommonVCChannel@@SAJPEAPEAV1@PEBDPEAUtagCHANNEL_ENTRY_POINTS_EX@@PEAX@Z
002194E8 ??_GCCommonVCChannel@@UEAAPEAXI@Z
002195A0 ?Terminate@CCommonVCChannel@@UEAAJXZ
002195E0 ?Write@CCommonVCChannel@@UEAAJKPEAEPEAUIUnknown@@@Z
002196EC ?Close@CCommonVCChannel@@UEAAJXZ
00219744 ?OpenProcEx@CCommonVCChannel@@QEAAJIPEAXIII@Z
002198D4 ?static_OpenProcEx@CCommonVCChannel@@SAXPEAXKI0III@Z
002199F8 ??_GCWriteCallback@@UEAAPEAXI@Z
00219A78 ?CreateInstance@CWriteCallback@@SAJPEAPEAUIWTSWriteCallback@@PEAE@Z
00219B3C ?Terminate@CWriteCallback@@UEAAJXZ
00219B6C ?WriteCompleted@CWriteCallback@@UEAAJH@Z
00219BC8 ?NonDelegatingQueryInterface@CDynVCChannel@@UEAAJAEBU_GUID@@PEAPEAX@Z
00219C84 ??0CDynVCChannel@@QEAA@PEAVCDynVCPlugin@@PEAVIThreadPool@@KKPEAUIWTSVirtualChannel@@@Z
00219D94 ?Initialize@CDynVCChannel@@UEAAJXZ
00219DB0 ?Terminate@CDynVCChannel@@UEAAJXZ
00219DCC ?OnData@CDynVCChannel@@QEAAJPEAEKK@Z
00219FF8 ?InvokeAsyncCall@CDynVCChannel@@UEAAJQEA_K@Z
0021A0B4 ?OnClose@CDynVCChannel@@QEAAJXZ
0021A18C ??_ECDynVCChannel@@UEAAPEAXI@Z
0021A278 ??0CWriteBuffer@@QEAA@W4CMD@_DYNVC_HEADER@@KKPEAVCDynVCChannel@@PEAUIWTSVirtualChannel@@@Z
0021A32C ?WriteCompleted@CWriteBuffer@@UEAAJH@Z
0021A370 ??_GCWriteBuffer@@UEAAPEAXI@Z
0021A42C ?PopEntry@CWriteQueue@@QEAAJPEAPEAVCWriteBuffer@@@Z
0021A588 ?CancelChannelWrites@CWriteQueue@@QEAAJKK@Z
0021A690 ?NonDelegatingQueryInterface@CDynVCListener@@UEAAJAEBU_GUID@@PEAPEAX@Z
0021A77C ?OnCreateChannel@CDynVCListener@@QEAAJPEAVCDynVCChannel@@@Z
0021A874 ?GetConfiguration@CDynVCListener@@UEAAJPEAPEAUIPropertyBag@@@Z
0021A8B0 ?StartListen@CDynVCListener@@UEAAJPEAUIWTSListenerCallback@@@Z
0021A920 ?StopListen@CDynVCListener@@UEAAJXZ
0021A988 ??_GCDynVCListener@@UEAAPEAXI@Z
0021AA3C ?NonDelegatingQueryInterface@CDynVCPlugin@@UEAAJAEBU_GUID@@PEAPEAX@Z
0021AC14 ?SendChannelClose@CDynVCPlugin@@QEAAJK@Z
0021ADD0 ?WriteCompleted@CDynVCPlugin@@UEAAJH@Z
0021AE40 ?SetSendChunkSize@CDynVCPlugin@@UEAAJK@Z
0021AEAC ?ClearChannelList@CDynVCPlugin@@AEAAXXZ
0021B0AC ?NonDelegatingQueryInterface@CStaticChannelCallback@@UEAAJAEBU_GUID@@PEAPEAX@Z
0021B154 ??1CStaticChannelCallback@@UEAA@XZ
0021B1C8 ?OnDataReceived@CStaticChannelCallback@@UEAAJKPEAE@Z
0021B1F8 ?OnClose@CStaticChannelCallback@@UEAAJXZ
0021B23C ??_ECStaticChannelCallback@@UEAAPEAXI@Z
0021B274 ?Close@CDynVCChannel@@UEAAJXZ
0021B2A0 ?Write@CDynVCChannel@@UEAAJKPEAEPEAUIUnknown@@@Z
0021B3D4 ??0CDynVCPlugin@@QEAA@XZ
0021B540 ??_ECDynVCPlugin@@UEAAPEAXI@Z
0021B704 ?Terminate@CDynVCPlugin@@UEAAJXZ
0021B838 ?Initialize@CDynVCPlugin@@UEAAJPEAUIWTSVirtualChannelManager@@@Z
0021BF08 ?Connected@CDynVCPlugin@@UEAAJXZ
0021C054 ?Disconnected@CDynVCPlugin@@UEAAJK@Z
0021C0EC ?Terminated@CDynVCPlugin@@UEAAJXZ
0021C1E4 ?SendChannelData@CDynVCPlugin@@QEAAJPEAVCWriteBuffer@@@Z
0021C664 ?OnNewChannelConnection@CDynVCPlugin@@UEAAJPEAUIWTSVirtualChannel@@PEAGPEAHPEAPEAUIWTSVirtualChannelCallback@@@Z
0021C758 ?OnStaticDataReceived@CDynVCPlugin@@QEAAJPEAUIWTSVirtualChannel@@KPEAE@Z
0021CA10 ?AddPlugin@CDynVCPlugin@@UEAAJPEAUIWTSPlugin@@@Z
0021CA80 ?CreateListener@CDynVCPlugin@@UEAAJPEBDKPEAUIWTSListenerCallback@@PEAPEAUIWTSListener@@@Z
0021CD4C ?OnCreatePacket@CDynVCPlugin@@AEAAJPEAUIWTSVirtualChannel@@PEAU_CREATE_REQ@@K@Z
0021D034 ?FindListenerByName@CDynVCPlugin@@AEAAJPEBDPEAPEAVCDynVCListener@@@Z
0021D128 ?LoadExternalPlugins@CDynVCPlugin@@AEAAJPEAG@Z
0021D20C ?LoadOneComPlugin@CDynVCPlugin@@AEAAJAEBU_GUID@@PEAG@Z
0021D3C8 ?LoadPlugin@CDynVCPlugin@@AEAAJPEBG@Z
0021D61C ?RegistryReadDwordEntry@@YAHPEAUHKEY__@@PEBG1PEAK_K@Z
0021D6BC ?AddAt@?$DynArray@PEAUHINSTANCE__@@K@@QEAAHKAEAPEAUHINSTANCE__@@@Z
0021D798 ?AddAt@?$DynArray@VCCleanType@?$SmartArray@VCDynVCChannel@@K@@K@@QEAAHKAEAVCCleanType@?$SmartArray@VCDynVCChannel@@K@@@Z
0021D8A8 ?Grow@?$DynArray@VCCleanType@?$SmartArray@UIWTSPlugin@@K@@K@@AEAAHK@Z
0021DA2C ?SetPlatformInstance@CDynVCThreadPool@@UEAAJPEAVITSPlatform@@@Z
0021DA78 ??_GCDynVCThreadPool@@UEAAPEAXI@Z
0021DAB0 ??1CDynVCThreadPool@@UEAA@XZ
0021DB58 ?Terminate@CDynVCThreadPool@@UEAAJXZ
0021DC84 ?ThreadPool_CreateInstance@@YAJPEAPEAVIThreadPool@@@Z
0021DD64 ?AddAsyncCall@CDynVCThreadPool@@UEAAJPEAVIThreadPoolCallback@@PEAUIUnknown@@QEA_K@Z
0021DF2C ??_GCDynVCThreadPoolThread@@UEAAPEAXI@Z
0021DF64 ??1CDynVCThreadPoolThread@@UEAA@XZ
0021E00C ?Initialize@CDynVCThreadPoolThread@@UEAAJXZ
0021E0AC ?Terminate@CDynVCThreadPoolThread@@UEAAJXZ
0021E12C ?CreateInstance@CDynVCThreadPoolThread@@SAJPEAVCDynVCThreadPool@@PEAPEAV1@@Z
0021E228 ?AddCall@CDynVCThreadPoolThread@@QEAAJPEAVIThreadPoolCallback@@QEA_K@Z
0021E330 ?ThreadPoolEntry@CDynVCThreadPoolThread@@AEAAJXZ
0021E52C ?OnClose@CEchoChannelCallback@@UEAAJXZ
0021E558 ??_ECEchoChannelCallback@@UEAAPEAXI@Z
0021E5D4 ??_ECEcho@@UEAAPEAXI@Z
0021E61C ?CreateInstance@CEcho@@SAJPEAPEAV1@@Z
0021E6F8 ?OnNewChannelConnection@CEcho@@UEAAJPEAUIWTSVirtualChannel@@PEAGPEAHPEAPEAUIWTSVirtualChannelCallback@@@Z
0021E834 ??_GCShimChannel@@UEAAPEAXI@Z
0021E8C8 ?OnNewChannelConnection@CShimListenerCallback@@UEAAJPEAUIWTSVirtualChannel@@PEAGPEAHPEAPEAUIWTSVirtualChannelCallback@@@Z
0021E9D4 ??_ECShimListenerCallback@@UEAAPEAXI@Z
0021EA34 ?StartListen@CShimListener@@UEAAJPEAVICommonVCListenerCallBack@@@Z
0021EB08 ??_GCShimListener@@UEAAPEAXI@Z
0021EB88 ?CreateListener@CShimManager@@UEAAJPEBDPEAPEAVICommonVCListener@@@Z
0021ED18 ??_ECShimManager@@UEAAPEAXI@Z
0021ED98 ??1CShimPlugin@@UEAA@XZ
0021EE10 ?Initialize@CShimPlugin@@UEAAJPEAUIWTSVirtualChannelManager@@@Z
0021EF28 ??_GCShimPlugin@@UEAAPEAXI@Z
0021EF60 ?ShimPlugin@@YAJPEAUIWTSPlugin@@PEAPEAU1@@Z
0021F090 ?CreateInstance@CUsbDeviceEnumerator@@SAJPEAPEAV1@@Z
0021F3F8 ?Initialize@CUsbDeviceEnumerator@@EEAAJXZ
0021FDA0 ?CMGetDevNodeRegistryProperty@CUsbDeviceEnumerator@@AEAAJKKPEAPEAXPEAKPEAE@Z
0021FF44 ?GetDevicesToRedirect@CUsbDeviceEnumerator@@UEAAJPEAUIDeviceCollection@@@Z
002210A0 ?CreateInstance@CUsbRedirectionControl@@SAJPEAUIWTSVirtualChannelManager@@PEAPEAV1@@Z
00221380 ?Initialize@CUsbRedirectionControl@@AEAAJPEAUIWTSVirtualChannelManager@@@Z
00221494 ?QueryDevicePdo@@YAJPEAUILocalDevice@@PEAPEAGPEAK12@Z
00221854 ?QueryDeviceProprietaryId@CUsbRedirectionControl@@AEAAPEAU_IOCTL_TSUSB_FILTER_QUERY_CHILD_DEVICE_PROPRIETARY_ID_OUTPUT@@PEAUILocalDevice@@PEAK@Z
00221B38 ?EnableRedirectionListener@CUsbRedirectionControl@@UEAAJPEAUIDeviceCollection@@@Z
00221F00 ?DisableRedirectionListener@CUsbRedirectionControl@@UEAAJXZ
00221FB4 ?EnableRedirection@CUsbRedirectionControl@@UEAAJPEAUIDeviceCollection@@@Z
0022250C ?DisableRedirection@CUsbRedirectionControl@@UEAAJXZ
00222634 ?QueryDeviceText@CUsbDeviceEnumerator@@QEAAJPEAUILocalDevice@@PEAPEAXPEAKPEAPEAU_IOCTL_TSUSB_FILTER_QUERY_CHILD_DEVICE_TEXT_OUTPUT@@@Z
00222924 ?RemoteServerReady@CUsbRedirectionControl@@UEAAJXZ
00222A08 ?RetractDevice@CUsbRedirectionControl@@UEAAJPEAG@Z
00222C20 ?DeviceRedirectionCheck@CUsbDeviceEnumerator@@AEAA?AW4_DEVICE_CHECK_OPTION@@K@Z
0022310C ?FindDevicesBy@CUsbDeviceEnumerator@@AEAAXW4FIND_DEVICES_BY_GUID@1@QEBU_GUID@@KQEAPEAKPEAK@Z
002234E4 ??_GCUsbRedirectionControl@@EEAAPEAXI@Z
002235C4 MofTemplateEventDescriptor
00223634 ??_ECUsbDeviceEnumerator@@EEAAPEAXI@Z
002236F4 ?CreateInstance@CUrbDrPlugin@@SAJPEAPEAV1@@Z
002238C0 ?Initialize@CUrbDrPlugin@@UEAAJXZ
00223AC4 ?Enable@CUrbDrPlugin@@QEAAJPEAUIWTSVirtualChannelManager@@PEAU_GUID@@PEAUIUsbRedirectionDeviceNotification@@@Z
002240A4 ?Disable@CUrbDrPlugin@@QEAAXXZ
00224260 ?OnNewChannelConnection@CUrbDrPlugin@@UEAAJPEAUIWTSVirtualChannel@@PEAGPEAHPEAPEAUIWTSVirtualChannelCallback@@@Z
00224550 ?ConfigureRimConnection@CUrbDrPlugin@@SAJPEAUIWTSVirtualChannel@@PEAUITsChannelNotification@@PEAPEAUIWTSVirtualChannelCallback@@PEAPEAUITsUsbDeviceSink@@PEAPEAU3@@Z
002247C8 ?ChannelCreated@CUrbDrPlugin@@UEAAJPEAU_URBDR_VERSION@@@Z
002249DC ?UnredirectDevice@CUrbDrPlugin@@AEAAJPEAG@Z
00224D70 ?OnDeviceAdded@CUrbDrPlugin@@UEAAJPEAUILocalDevice@@@Z
00224EFC ?OnDeviceRemoved@CUrbDrPlugin@@UEAAJPEAG@Z
00224FC4 ?GetInitialDevices@CUrbDrPlugin@@UEAAJPEAPEAUIDeviceCollection@@@Z
00225028 ?GetCurrentDevices@CUrbDrPlugin@@UEAAJPEAPEAUIDeviceCollection@@PEAK@Z
002250E4 ?OnClose@CUrbDrPlugin@@UEAAJXZ
002251B8 ?NonDelegatingQueryInterface@CUrbDrPlugin@@UEAAJAEBU_GUID@@PEAPEAX@Z
00225294 ??_ECUrbDrPlugin@@UEAAPEAXI@Z
00225448 ?CreateInstance@CTsUsbDevice@@SAJPEAUILocalDevice@@AEBU_GUID@@PEAUIUsbRedirectionDeviceNotification@@KPEAPEAV1@@Z
00225568 ?Initialize@CTsUsbDevice@@AEAAJPEAUILocalDevice@@AEBU_GUID@@PEAUIUsbRedirectionDeviceNotification@@K@Z
002261D8 ??1CTsUsbDevice@@UEAA@XZ
00226410 ?CancelRequests@CTsUsbDevice@@AEAAJEK@Z
002265B8 ?RegisterRequestCallback@CTsUsbDevice@@UEAAJPEAUITsRequestCompletion@@@Z
00226640 ?UrbTransferInRequest@CTsUsbDevice@@UEAAJPEADKK@Z
00226678 ?UrbTransferOutRequest@CTsUsbDevice@@UEAAJPEADK0K@Z
002266A0 ?UrbTransferDataRequest@CTsUsbDevice@@AEAAXPEADK0KW4_TS_URB_DATA_TRANSFER_DIRECTION@@@Z
00226B40 ?PnpQueryDeviceTextDescription@CTsUsbDevice@@UEAAJKKPEAPEAGPEAK@Z
002270E8 ?UsbIoControl@CTsUsbDevice@@UEAAJKPEADKKK@Z
00227114 ?UsbInternalIoControl@CTsUsbDevice@@UEAAJKPEADKKK@Z
00227140 ?UsbControl@CTsUsbDevice@@QEAAJKPEADKKKH@Z
002273C8 ?UsbdiGetVersion@CTsUsbDevice@@AEAAJPEAK0000@Z
00227638 ?ChannelCreated@CTsUsbDevice@@UEAAJPEAU_URBDR_VERSION@@@Z
002277D0 ?OnClose@CTsUsbDevice@@UEAAJXZ
00227878 ?RetractDevice@CTsUsbDevice@@UEAAJK@Z
00227AD8 MofTemplate_z
00227B94 ?CompletionThread@CTsUsbDevice@@CAKPEAX@Z
00227C24 ?NonDelegatingQueryInterface@CTsUsbDevice@@UEAAJAEBU_GUID@@PEAPEAX@Z
00227CCC ??_ECTsUsbDevice@@UEAAPEAXI@Z
00227D14 ??0CTsUsbDevice@@AEAA@XZ
00227E44 ?CreateInstance@CTsUsbRequest@@SAJPEAVCTsUsbDevice@@PEAUITsRequestCompletion@@KEPEAT_TS_URB@@PEAEKW4_TS_URB_DATA_TRANSFER_DIRECTION@@PEAPEAV1@@Z
00227FE8 ?Complete@CTsUsbRequest@@UEAAXJK@Z
0022820C ??_GCTsRequest@@MEAAPEAXI@Z
0022828C ??_ECTsUsbRequest@@UEAAPEAXI@Z
00228360 ?CreateInstance@CTsUsbIoContro2@@SAJPEAVCTsUsbDevice@@PEAUITsRequestCompletion@@KKPEADKKHPEAPEAV1@@Z
00228550 ?Initialize@CTsUsbIoContro2@@AEAAJPEAVCTsUsbDevice@@PEAUITsRequestCompletion@@KKPEADKKH@Z
00228850 ?Complete@CTsUsbIoContro2@@UEAAXJK@Z
00228938 ?SubmitIoControlAsync@CTsUsbIoContro2@@QEAAJPEAX@Z
00228A30 ??_ECTsUsbIoContro2@@UEAAPEAXI@Z
00228AE8 ?ValidateMultiStrings@@YAJPEBG_KPEAKPEA_KPEAPEAPEBG@Z
00228CA8 ?IsAnyStringInMultiSzOnStringTable@@YAEPEBGQEAPEBGKPEAK@Z
00228D48 ?IsStringOnStringTable@@YAEPEBGQEAPEBGKPEAK@Z
00228DBC ?CreateInstance@CSimpleHash@@SAJKPEAPEAV1@@Z
00228F28 ?AddItemNoDuplicate@CSimpleHash@@QEAAJPEAXPEAK@Z
00228F88 ?FindEmptySlot@CSimpleHash@@AEAAJPEAK@Z
002290E4 ?FindNextItem@CSimpleHash@@QEAAJPEAKPEAPEAX@Z
00229140 ?RegQueryGuids@@YAXPEAUHKEY__@@PEBG1PEAKPEAPEAG2@Z
002294D4 ?NonDelegatingQueryInterface@CXPSClientPlugin@@UEAAJAEBU_GUID@@PEAPEAX@Z
002295A4 ?Terminated@CXPSClientPlugin@@UEAAJXZ
002295D4 ??_GCXPSClientPlugin@@UEAAPEAXI@Z
00229634 ?Initialize@CXPSClientPlugin@@UEAAJPEAUIWTSVirtualChannelManager@@@Z
002297E0 ?XPS_VirtualChannelGetInstance@@YAJAEBU_GUID@@PEAKPEAPEAX@Z
0022991C ?Create_CXPSPrintJob@@YAJPEAPEAVIXPSPrintJob@@PEBGW4XPSPrintJobVersion@@@Z
00229A08 ??_GCXPSPrintJob2@@UEAAPEAXI@Z
00229BD0 ?CreateInstance@CXPSPrintJob2@@SAJPEBGPEAPEAV1@@Z
00229D78 ?Initialize@CXPSPrintJob2@@AEAAJPEBG@Z
00229E9C ?Terminate@CXPSPrintJob2@@EEAAJXZ
00229F60 ?Open@CXPSPrintJob2@@UEAAJPEBG@Z
0022A0D0 ?Write@CXPSPrintJob2@@UEAAJPEAEK@Z
0022A1B0 ?Close@CXPSPrintJob2@@UEAAJK@Z
0022A2C4 ?GetDebugXPSFlag@CXPSPrintFlags@@QEAAXPEA_N@Z
0022A368 ?CreateTempFile@CXPSPrintTempFile@@QEAAJPEAPEBG@Z
0022A5B8 ?WriteTempFile@CXPSPrintTempFile@@QEAAJPEAEK@Z
0022A620 ?CreateInstance@CXPSPrintJob@@SAJPEAPEAV1@@Z
0022A78C ??_ECXPSPrintJob@@UEAAPEAXI@Z
0022A820 ?Terminate@CXPSPrintJob@@UEAAJXZ
0022A854 ?CanPrintXPS@CXPSPrintJob@@UEAAJPEAH@Z
0022A970 ?Open@CXPSPrintJob@@UEAAJPEBG@Z
0022AAB0 ?Write@CXPSPrintJob@@UEAAJPEAEK@Z
0022AAE8 ?GetProgramFile@CXPSPrintJob@@AEAAJPEAGK@Z
0022ABB4 ?Close@CXPSPrintJob@@UEAAJK@Z
0022AE54 ?NonDelegatingQueryInterface@CXPSClientHandler@@UEAAJAEBU_GUID@@PEAPEAX@Z
0022AF1C ?NonDelegatingQueryInterface@CTicketListenerCallback@@UEAAJAEBU_GUID@@PEAPEAX@Z
0022AFC4 ?CreateInstance@CTicketListenerCallback@@SAJPEAPEAUIWTSListenerCallback@@PEAVIPrinterCollection@@@Z
0022B0CC ??_ECTicketListenerCallback@@UEAAPEAXI@Z
0022B15C ??0CXPSClientHandler@@QEAA@XZ
0022B250 ??_ECXPSClientHandler@@UEAAPEAXI@Z
0022B354 ?Terminate@CXPSClientHandler@@UEAAJXZ
0022B3EC ?InitializeHandler@CXPSClientHandler@@UEAAJPEAUIWTSVirtualChannelManager@@PEAUIXPSClientHandlerCallBack@@@Z
0022B8C0 ?OnConnected@CXPSClientHandler@@UEAAJXZ
0022BA74 ?OnNewChannelConnection@CXPSClientHandler@@UEAAJPEAUIWTSVirtualChannel@@PEAGPEAHPEAPEAUIWTSVirtualChannelCallback@@@Z
0022BDC0 ?OnNewChannelConnection@CTicketListenerCallback@@UEAAJPEAUIWTSVirtualChannel@@PEAGPEAHPEAPEAUIWTSVirtualChannelCallback@@@Z
0022C0C4 ?NonDelegatingQueryInterface@CTSClientPrintDriver@@UEAAJAEBU_GUID@@PEAPEAX@Z
0022C1E4 ?Invoke@OnDesktopSwitchAsyncTerminatingCallback@CTSClientPrintDriver@@UEAAJPEAVITSAsyncResult@@_K@Z
0022C214 ?CreateInstance@CTSClientPrintDriver@@SAJPEAPEAUITS_PrintDriver@@PEAVIPrinterCollection@@PEAVITSWindowMapper@@PEAVITSWin32CoreApi@@PEAUHWND__@@@Z
0022C330 ??0CTSClientPrintDriver@@QEAA@XZ
0022C470 ??_ECTSClientPrintDriver@@UEAAPEAXI@Z
0022C4A8 ??1CTSClientPrintDriver@@UEAA@XZ
0022C584 ?Initialize@CTSClientPrintDriver@@QEAAJPEAVIPrinterCollection@@PEAVITSWindowMapper@@PEAVITSWin32CoreApi@@PEAUHWND__@@@Z
0022C760 ?Terminate@CTSClientPrintDriver@@UEAAJXZ
0022C83C ?InitializePrinter@CTSClientPrintDriver@@UEAAJK@Z
0022CBB8 ?GetAllDevCaps@CTSClientPrintDriver@@UEAAJPEAPEAU_TSDEVICE_CAPABILITY@@PEAK@Z
0022D378 ?VerifyDevMode@CTSClientPrintDriver@@IEAAJPEADK@Z
0022D450 ?ConvertDevMode@CTSClientPrintDriver@@UEAAJKKPEADK0PEAPEADPEAKK222@Z
0022D6A0 ?GetDeviceCapabilityBuffer_Clean@CTSClientPrintDriver@@IEAAJKPEADGKPEAKPEAPEAD1@Z
0022D88C ?GetDeviceCapability@CTSClientPrintDriver@@UEAAJKPEADGKPEAKPEAPEAD1@Z
0022DC30 ?FindParentWindow@CTSClientPrintDriver@@IEAAJ_KPEAPEAUHWND__@@@Z
0022DCE0 ?DocumentPropertiesW@CTSClientPrintDriver@@UEAAJK_KPEAK1PEADKKPEAPEAD1@Z
0022E058 ?static_AsyncDocumentProperties@CTSClientPrintDriver@@KAKPEAX@Z
0022E1A4 ?AsyncDocumentProperties@CTSClientPrintDriver@@UEAAJK_KPEADKKPEAUITS_PrinterDriver_DocumentPropertiesCallBack@@@Z
0022E394 ?static_AsyncPrinterProperties@CTSClientPrintDriver@@KAKPEAX@Z
0022E4A8 ?AsyncPrinterProperties@CTSClientPrintDriver@@UEAAJK_KPEAUITS_PrinterDriver_PrinterPropertiesCallBack@@@Z
0022E614 ?PrinterProperties@CTSClientPrintDriver@@UEAAJK_KPEAK1@Z
0022E7A8 ?OnChannelClose@CTSClientPrintDriver@@UEAAJXZ
0022E800 ?MoveAsyncDocumentProperties@CTSClientPrintDriver@@UEAAJKK@Z
0022E97C ?CancelUI@CTSClientPrintDriver@@IEAAJXZ
0022EA70 ?OnDesktopSwitch@CTSClientPrintDriver@@MEAAJPEAVITSAsyncResult@@_K@Z
0022EAC4 ?MxdcGetPDEVAdjustment@CTSClientPrintDriver@@UEAAJKPEADK0KPEAU_TSPRINTER_PROPERTY@@PEAKPEAPEAU2@@Z
0022EFA8 ?NonDelegatingQueryInterface@CTSClientPrintTicket@@UEAAJAEBU_GUID@@PEAPEAX@Z
0022F050 ?RIM_USER_ALLOC_C@@YAJPEAPEAXKK@Z
0022F0CC ?Release@CMemStream@@UEAAKXZ
0022F120 ?QueryInterface@CMemStream@@UEAAJAEBU_GUID@@PEAPEAX@Z
0022F198 ?CreateDriverUniqueUri@CTSClientPrintTicket@@AEAAJKPEAPEAG@Z
0022F450 ??_ECTSClientPrintTicket@@UEAAPEAXI@Z
0022F488 ??1CTSClientPrintTicket@@UEAA@XZ
0022F504 ?GetSupportedVersions@CTSClientPrintTicket@@UEAAJKPEAPEAHPEAH@Z
0022F6F4 ?BindPrinter@CTSClientPrintTicket@@UEAAJKHPEAHPEAI0PEAPEAPEAG@Z
0022F9CC ?QueryDeviceNamespace@CTSClientPrintTicket@@UEAAJPEAPEAG@Z
0022FB40 ?ConvertPrintTicketToDevMode@CTSClientPrintTicket@@UEAAJPEAUIUnknown@@PEADKPEAPEADPEAK@Z
0022FDD8 ?ConvertDevModeToPrintTicket@CTSClientPrintTicket@@UEAAJPEADKPEAUIUnknown@@PEAPEAU2@@Z
0022FEF0 ?GetPrintCapabilities@CTSClientPrintTicket@@UEAAJPEAPEAUIUnknown@@@Z
0022FFC8 ?GetPrintCapabilitiesUsingPrintTicket@CTSClientPrintTicket@@UEAAJPEAUIUnknown@@PEAPEAU2@@Z
0023011C ?ValidatePrintTicket@CTSClientPrintTicket@@UEAAJPEAUIUnknown@@PEAPEAU2@@Z
00230214 ?GetTicketInstance@CTSClientPrintTicket@@AEAAJKPEAH@Z
002303FC ?Cleanup@CTSClientPrintTicket@@AEAAXXZ
00230474 ?OpenPTProvider@CTSClientPrintTicket@@AEAAJPEAPEAUHPTPROVIDER__@@@Z
00230580 ?NoPT_GetPrintCapabilities@CTSClientPrintTicket@@AEAAJPEAUIXMLDOMDocument2@@PEAPEAU2@@Z
002309D4 ?GetDriverInfo3@CTSClientPrintTicket@@AEAAJKPEAPEAU_DRIVER_INFO_3W@@@Z
00230B34 ?MarshalPrinterPropertiesCollection@@YAJKPEAUPrintPropertiesCollection@@PEAKPEAPEAU_TSPRINTER_PROPERTY@@@Z
00230F10 ?UpdatePrinterPropertiesCollection@@YAJKPEAU_TSPRINTER_PROPERTY@@KPEAUPrintPropertiesCollection@@@Z
002311D8 ?UnMarshalPrinterPropertiesCollection@@YAJKPEAU_TSPRINTER_PROPERTY@@PEAKPEAPEAUPrintPropertiesCollection@@@Z
002313AC ??_ECSndInputPlugin@@UEAAPEAXI@Z
0023140C ?CreateInstance@CSndInputListenerCallback@@SAJPEAVITSCLX@@PEAVITSWin32CoreApi@@PEAPEAUIWTSListenerCallback@@@Z
0023153C ??_ECSndInputListenerCallback@@UEAAPEAXI@Z
002315D4 ??0CSndInputChannelCallback@@AEAA@PEAUIWTSVirtualChannel@@@Z
002318B0 ?staticMsgWndProc@CSndInputChannelCallback@@CA_JPEAUHWND__@@I_K_J@Z
0023193C ?OnClose@CSndInputChannelCallback@@UEAAJXZ
002319DC ?Invoke@OnAudioCaptureDeviceChangedAsyncTerminatingCallback@CSndInputChannelCallback@@UEAAJPEAVITSAsyncResult@@_K@Z
00231A0C ??_GCSndInputChannelCallback@@UEAAPEAXI@Z
00231B88 ?Initialize@CSndInputChannelCallback@@AEAAJPEAVITSCLX@@PEAVITSWin32CoreApi@@@Z
00231EC0 ?OnDataReceived@CSndInputChannelCallback@@UEAAJKPEAE@Z
002322A0 ?Terminate@CSndInputChannelCallback@@EEAAJXZ
002323B8 ?OnNewFormat@CSndInputChannelCallback@@AEAAJK@Z
002325D0 ?OnWaveOpen@CSndInputChannelCallback@@AEAAJPEAU_SNDIN_OPEN@@@Z
0023279C ?OpenAudioInDevice@CSndInputChannelCallback@@AEAAJPEAUtWAVEFORMATEX@@I@Z
002328C4 ?OnFormatsReceived@CSndInputChannelCallback@@AEAAJPEAEK@Z
00232DE4 ?StartWaveCapture@CSndInputChannelCallback@@AEAAJI@Z
00232F98 ?CleanupWaveHeaders@CSndInputChannelCallback@@AEAAXPEAUHWAVEIN__@@@Z
00233028 ?OnCapturedAudio@CSndInputChannelCallback@@AEAAXPEAUwavehdr_tag@@@Z
0023327C ?OnAudioCaptureDeviceChanged@CSndInputChannelCallback@@UEAAJPEAVITSAsyncResult@@_K@Z
002332FC ?UpdateWaveInDevice@CSndInputChannelCallback@@AEAAXXZ
0023353C ?SNDINPUT_VirtualChannelGetInstance@@YAJAEBU_GUID@@PEAKPEAPEAX@Z
002336BC ?Initialize@CSndInputPlugin@@UEAAJPEAUIWTSVirtualChannelManager@@@Z
002339EC ?OnNewChannelConnection@CSndInputListenerCallback@@UEAAJPEAUIWTSVirtualChannel@@PEAGPEAHPEAPEAUIWTSVirtualChannelCallback@@@Z
00233B44 ??1CAudioInputTestData@@QEAA@XZ
00233BA0 ?Initialize@CAudioInputTestData@@QEAAJPEAUtWAVEFORMATEX@@@Z
00233E2C ?GetDrivers@CPCMDriverCache@@QEAAJPEAUtWAVEFORMATEX@@PEAPEAUHACMDRIVERID__@@1@Z
00233FF4 ?acmDriverEnumCallbackGetPCM@@YAHPEAUHACMDRIVERID__@@_KK@Z
002340A8 ?OpenConverter@CAudioConverter@@QEAAHPEAUtWAVEFORMATEX@@0PEAUHACMDRIVERID__@@@Z
00234584 ?CloseConverter@CAudioConverter@@QEAAXXZ
002345C4 ?Convert@CAudioConverter@@QEAAHPEAEK0PEAK@Z
00234AB0 ?FindSuggestedConverter@@YAHPEAUHACMDRIVERID__@@PEAUtWAVEFORMATEX@@11PEAH@Z
00234E54 ?IsStraightConverter@@YAHPEAUHACMDRIVERID__@@PEAUtWAVEFORMATEX@@1@Z
00234FCC ?SetDriver@CFormatHandler@@AEAAHPEAU_VCSNDFORMATLIST@@W4AUDIO_COMP_TYPE@@@Z
0023502C ?acmDriverEnumCallbackGetACM@@YAHPEAUHACMDRIVERID__@@_KK@Z
00235114 ?Convert@CAudioMaster@@QEAAHPEAEK0PEAK@Z
00235264 ?OpenConverter@CAudioMaster@@QEAAHPEAUtWAVEFORMATEX@@0PEAUHACMDRIVERID__@@@Z
00235A0C ?GetFormatAndACMDriverID@CAudioMaster@@QEAAJPEAUSNDFORMATITEM@@PEAPEAUtWAVEFORMATEX@@PEAPEAUHACMDRIVERID__@@@Z
00235AD4 ??_GCMMPlugin@@UEAAPEAXI@Z
00235BBC ??_GCMMListenerCallback@@UEAAPEAXI@Z
00235CA0 ?TSMM_VirtualChannelGetInstance@@YAJAEBU_GUID@@PEAKPEAPEAX@Z
00235E60 ?Initialize@CMMPlugin@@UEAAJPEAUIWTSVirtualChannelManager@@@Z
00235FDC ?Terminated@CMMPlugin@@UEAAJXZ
00236050 ?Connected@CMMPlugin@@UEAAJXZ
00236348 ?Disconnected@CMMPlugin@@UEAAJK@Z
00236468 ?CreateInstance@CMMListenerCallback@@SAJPEAVITSPlatform@@PEAVIMMPlayerManager@@PEAVIMMChannelManager@@PEAPEAUIWTSListenerCallback@@@Z
002365C4 ?OnNewChannelConnection@CMMListenerCallback@@UEAAJPEAUIWTSVirtualChannel@@PEAGPEAHPEAPEAUIWTSVirtualChannelCallback@@@Z
002368C4 ??_GCMMChannelManager@@UEAAPEAXI@Z
002368FC ?CreateMMChannelManager@@YAJPEAVITSPlatform@@PEAPEAVIMMChannelManager@@@Z
00236A50 ?Initialize@CMMChannelManager@@QEAAJPEAVITSPlatform@@@Z
00236B30 ??1CMMChannelManager@@UEAA@XZ
00236D58 ?AddChannel@CMMChannelManager@@UEAAJPEAUIRIMObjManager@@PEAVIMMServerDataHandler@@PEAUIMMClientNotifications@@@Z
00236EDC ?RemoveChannel@CMMChannelManager@@UEAAJPEAVIMMServerDataHandler@@@Z
00236FF8 ?GetChannelClientProxy@CMMChannelManager@@UEAAJKU_GUID@@PEAPEAUIMMClientNotifications@@@Z
00237124 ??_ECMMPlayerManager@@UEAAPEAXI@Z
002372BC ?IsRunningWin7OrHigher@@YAHXZ
00237398 ?IsDShowInstalled@@YAHXZ
0023746C ?GetOverriddenPlatformCookie@@YAKXZ
002375E4 ?CreateMMPlayerManager@@YAJPEAVITSWin32CoreApi@@PEAVIMMChannelManager@@PEAVCTSMfWrapper@@PEAPEAVIMMPlayerManager@@@Z
00237760 ?Initialize@CMMPlayerManager@@QEAAJPEAVITSWin32CoreApi@@PEAVIMMChannelManager@@PEAVCTSMfWrapper@@@Z
00237910 ?Shutdown@CMMPlayerManager@@UEAAXXZ
00237A64 ?AddPlayer@CMMPlayerManager@@UEAAJU_GUID@@I@Z
00237CDC ?RemovePlayer@CMMPlayerManager@@UEAAJU_GUID@@@Z
00237E90 ?FindPlayer@CMMPlayerManager@@UEAAJU_GUID@@PEAPEAVITSMFPlayer@@@Z
00237FD4 ?ExchangeCapabilities@CMMPlayerManager@@UEAAJIPEAU_TSMM_CAPABILITY@@PEAIPEAPEAU2@@Z
00238274 ?IsFormatSupported@CMMPlayerManager@@UEAAJKKPEADKPEAI1@Z
00238584 ?CheckFormatSupportInMF@CMMPlayerManager@@AEAAJPEADKPEAI@Z
00238878 ?CheckFormatSupportInDShow@CMMPlayerManager@@AEAAJPEADKPEAI@Z
00238B08 ?NonDelegatingQueryInterface@CMMServerDataHandler@@UEAAJAEBU_GUID@@PEAPEAX@Z
00238BD0 ??_ECMMServerDataHandler@@UEAAPEAXI@Z
00238D44 ?CreateMMServerDataHandler@@YAJPEAVITSPlatform@@PEAUIRIMObjManager@@PEAVIMMChannelManager@@PEAVIMMPlayerManager@@PEAPEAVIMMServerDataHandler@@@Z
00238EB4 ?Initialize@CMMServerDataHandler@@QEAAJPEAVITSPlatform@@PEAUIRIMObjManager@@PEAVIMMChannelManager@@PEAVIMMPlayerManager@@@Z
00238FA0 ?OnChannelClose@CMMServerDataHandler@@UEAAJXZ
00239158 ?ExchangeCapabilities@CMMServerDataHandler@@UEAAJIPEAU_TSMM_CAPABILITY@@PEAIPEAPEAU2@@Z
002391C0 ?SetChannelParameters@CMMServerDataHandler@@UEAAJU_GUID@@I@Z
00239290 ?AddStream@CMMServerDataHandler@@UEAAJU_GUID@@IPEADK@Z
0023939C ?DeliverSample@CMMServerDataHandler@@UEAAJU_GUID@@IPEADK@Z
002394A8 ?SetVideoWindow@CMMServerDataHandler@@UEAAJU_GUID@@_K1@Z
002395AC ?OnNewPresentation@CMMServerDataHandler@@UEAAJU_GUID@@I@Z
0023965C ?ShutdownPresentation@CMMServerDataHandler@@UEAAJU_GUID@@@Z
0023970C ?SetTopology@CMMServerDataHandler@@UEAAJU_GUID@@PEAI@Z
00239844 ?IsFormatSupported@CMMServerDataHandler@@UEAAJKKPEADKPEAI1@Z
00239970 ?OnPlaybackStarted@CMMServerDataHandler@@UEAAJU_GUID@@_JI@Z
00239A74 ?OnPlaybackPaused@CMMServerDataHandler@@UEAAJU_GUID@@@Z
00239B74 ?OnPlaybackStopped@CMMServerDataHandler@@UEAAJU_GUID@@@Z
00239C74 ?OnPlaybackRestarted@CMMServerDataHandler@@UEAAJU_GUID@@@Z
00239D74 ?OnPlaybackRateChanged@CMMServerDataHandler@@UEAAJU_GUID@@M@Z
00239E78 ?OnFlush@CMMServerDataHandler@@UEAAJU_GUID@@I@Z
00239F7C ?OnVolume@CMMServerDataHandler@@UEAAJU_GUID@@II@Z
0023A088 ?OnChannelVolume@CMMServerDataHandler@@UEAAJU_GUID@@II@Z
0023A18C ?OnEndOfStream@CMMServerDataHandler@@UEAAJU_GUID@@I@Z
0023A294 ?SetAllocatorProps@CMMServerDataHandler@@UEAAJU_GUID@@IIIII@Z
0023A3B8 ?NotifyPreroll@CMMServerDataHandler@@UEAAJU_GUID@@I@Z
0023A4C0 ?UpdateGeometryInfo@CMMServerDataHandler@@UEAAJU_GUID@@PEADK1K@Z
0023A5FC ?PopulateCommonHostCapabilities@@YAJIIPEAU_TSMM_CAPABILITY@@@Z
0023A770 ?HandleCommonRemoteCapabilities@@YAJIPEAU_TSMM_CAPABILITY@@PEAI1@Z
0023A934 ?CreateGuid@@YAJPEAU_GUID@@@Z
0023A9BC ??0CBasePlayer@@QEAA@XZ
0023ABF0 ?Invoke@OnWindowInformationAsyncTerminatingCallback@CBasePlayer@@UEAAJPEAVITSAsyncResult@@_K@Z
0023AC20 ?Invoke@OnVisibleOutputWindowChangedAsyncTerminatingCallback@CBasePlayer@@UEAAJPEAVITSAsyncResult@@_K@Z
0023AE24 ?Invoke@OnMainWindowSizeChangeAsyncCallback@CBasePlayer@@UEAAJPEAVITSAsyncResult@@_K@Z
0023AEB4 ??_ECBasePlayer@@UEAAPEAXI@Z
0023AF2C ?CreateInstance@CTSDXPlayer@@SAJPEAVITSWin32CoreApi@@U_GUID@@PEAUHINSTANCE__@@PEAVIMMPlayerManager@@PEAVIMMChannelManager@@PEAVCTSMfWrapper@@PEAPEAVITSMFPlayer@@@Z
0023B124 ??_GCTSDXPlayer@@UEAAPEAXI@Z
0023B244 ?OnServerMediaFormat@CTSDXPlayer@@EEAAJPEAVITSAsyncResult@@_K@Z
0023B7A4 ?OnServerMediaSample@CTSDXPlayer@@UEAAJKKPEAD@Z
0023B9C8 ?ApplyFormats@CTSDXPlayer@@EEAAJPEAVITSAsyncResult@@_K@Z
0023BB50 ?PreStartInitialization@CTSDXPlayer@@AEAAJXZ
0023BCE8 ?OnPlaybackStarted@CTSDXPlayer@@EEAAJPEAVITSAsyncResult@@_K@Z
0023BEC4 ?OnPlaybackPaused@CTSDXPlayer@@EEAAJPEAVITSAsyncResult@@_K@Z
0023BF54 ?OnPlaybackStopped@CTSDXPlayer@@EEAAJPEAVITSAsyncResult@@_K@Z
0023C024 ?OnPlaybackRestarted@CTSDXPlayer@@EEAAJPEAVITSAsyncResult@@_K@Z
0023C070 ?OnPlaybackRateChanged@CTSDXPlayer@@EEAAJPEAVITSAsyncResult@@_K@Z
0023C0DC ?NotifyPreroll@CTSDXPlayer@@EEAAJI@Z
0023C11C ?OnFlush@CTSDXPlayer@@EEAAJI@Z
0023C1DC ?OnVolume@CTSDXPlayer@@EEAAJPEAVITSAsyncResult@@_K@Z
0023C44C ?OnEndOfStream@CTSDXPlayer@@EEAAJI@Z
0023C54C ?SetAllocatorProps@CTSDXPlayer@@EEAAJIIIII@Z
0023C6F0 ?SetAllocatorProps@CTSDXPlayer@@MEAAJPEAVITSAsyncResult@@_K@Z
0023C8D8 ?OnChannelClosed@CTSDXPlayer@@EEAAJI@Z
0023C9EC ?SpecificInitialize@CTSDXPlayer@@UEAAJXZ
0023CB18 ?Shutdown@CTSDXPlayer@@UEAAJXZ
0023CBE8 ?SpecificShutdown@CTSDXPlayer@@UEAAJXZ
0023CF78 ?RepaintVideo@CTSDXPlayer@@EEAAXXZ
0023D038 ?NotifyVideoWindowPosition@CTSDXPlayer@@EEAAJUtagRECT@@@Z
0023D25C ?SpecificPlayerWndProc@CTSDXPlayer@@EEAA_JPEAUHWND__@@I_K_J@Z
0023D288 ?MonitorChanged@CTSDXPlayer@@MEAAJXZ
0023D310 ?GraphNotification@CTSDXPlayer@@AEAAXXZ
0023D54C ?StartPlayback@CTSDXPlayer@@AEAAJH@Z
0023D694 ?StartGraph@CTSDXPlayer@@AEAAJXZ
0023D988 ?StopGraph@CTSDXPlayer@@AEAAJXZ
0023DC40 ?PauseGraph@CTSDXPlayer@@QEAAJXZ
0023DE8C ?RenderPin@CTSDXPlayer@@AEAAJKH@Z
0023E854 ?TryGetQualPropInterface@CTSDXPlayer@@AEAAXPEAUIFilterGraph@@@Z
0023EB38 WPP_SF_dDDdD
0023EBB0 ?CreateTSDshowSource@@YAJU_GUID@@PEAVIMMChannelManager@@PEAPEAVITSDShowSource@@@Z
0023ECD8 ??0CRDPSource@@QEAA@U_GUID@@PEAVIMMChannelManager@@PEAJ@Z
0023ED98 ??_GCRDPSource@@UEAAPEAXI@Z
0023EE8C ?SetMediaType@CRDPSource@@UEAAJKPEAU_AMMediaType@@@Z
0023EF7C ?CreatePin@CRDPSource@@AEAAJKPEAU_AMMediaType@@@Z
0023F0E8 ?DestroyPin@CRDPSource@@UEAAXI@Z
0023F1A0 ?DeliverSample@CRDPSource@@UEAAJKPEAUtagTS_MM_DATA_SAMPLE@@I@Z
0023F2E4 ?FlushAllPinsForStop@CRDPSource@@UEAAJXZ
0023F388 ?FlushPin@CRDPSource@@UEAAJK@Z
0023F430 ?OnEndOfStream@CRDPSource@@UEAAJK@Z
0023F50C ?SetAllocatorProps@CRDPSource@@UEAAJIIIII@Z
0023F614 ?IsVideoStream@CRDPSource@@UEAAHI@Z
0023F76C ?GetPinByPinId@CRDPSource@@UEAAPEAUIPin@@K@Z
0023F790 ?DestroyAllPins@CRDPSource@@UEAAKXZ
0023F7F0 ?MonitorChanged@CRDPSource@@UEAAJXZ
0023F97C ?CreateInstance@CRDPStream@@SAJPEAVCRDPSource@@PEBGPEAU_AMMediaType@@IPEAPEAV1@@Z
0023FAC0 ??0CRDPStream@@QEAA@PEAVCRDPSource@@PEBGPEAU_AMMediaType@@IPEAJ@Z
0023FFE8 ??_GCRDPStream@@UEAAPEAXI@Z
002400F8 ?GetMediaType@CRDPStream@@UEAAJHPEAVCMediaType@@@Z
002401B8 ?CheckMediaType@CRDPStream@@UEAAJPEBVCMediaType@@@Z
00240284 ?DecideBufferSize@CRDPStream@@UEAAJPEAUIMemAllocator@@PEAU_AllocatorProperties@@@Z
00240384 ?FillBuffer@CRDPStream@@UEAAJPEAUIMediaSample@@@Z
00240898 ?CompleteConnect@CRDPStream@@UEAAJPEAUIPin@@@Z
00240914 ?BreakConnect@CRDPStream@@UEAAJXZ
0024095C ?DeliverSample@CRDPStream@@QEAAJPEAUtagTS_MM_DATA_SAMPLE@@I@Z
00240B8C ?FlushSamples@CRDPStream@@QEAAJH@Z
00240DDC ?InsertEndOfStreamSample@CRDPStream@@AEAAJXZ
00240ED4 ?SetAllocatorProps@CRDPStream@@QEAAJIIII@Z
00241044 WPP_SF_DDDDDDDDDDD
00241110 ?PrintDShowMediaType@@YAXPEBVCMediaType@@@Z
00241720 ValidateServerCert
00241894 GenerateMACSignature
002419E4 SparseTransform
00241AB4 FinalHash
00241B58 MakeMasterKey
00241CB8 MakeSessionKeys
00241EA4 ?IsDelegationAllowed@@YAJPEBGW4CRED_SOURCE@@PEAH@Z
00241F90 ?IsDelegationAllowedEx@@YAJPEBG0W4CRED_SOURCE@@PEAH@Z
00241FF8 ?OpenPolicyKey@@YAJPEAPEAUHKEY__@@H@Z
0024205C ?CheckPolicyValue@@YAJPEAUHKEY__@@0PEBGW4PolicyID@@PEAH3@Z
0024219C ?CheckValue@@YAJPEAUHKEY__@@0PEBG1111_KPEAH@Z
00242570 ?GetNextValue@@YAKPEAUHKEY__@@KPEAGPEA_K@Z
00242620 ?CompareValue@@YAHPEBG_K01@Z
002426EC ?AllocateAndInitializeSpn@@YAJPEBG0PEAPEAG@Z
00242830 ?QueryForMatch@@YAJPEAUHKEY__@@PEBG_KPEAH@Z
0024298C ?cicsthkl_CLSIDToStringA@@YAHAEBU_GUID@@PEAD@Z
00242A34 ?GetSubstituteHKLFromReg@@YAPEAUHKL__@@AEBU_GUID@@G0@Z
00242C80 ?CicGetSubstitueHKL@@YAJGPEAPEAUHKL__@@@Z
00242E00 CicSubstGetKeyboardLayout
00242ECC ?OnNewChannelConnection@CClientHandler@@UEAAJPEAUIWTSVirtualChannel@@PEAGPEAHPEAPEAUIWTSVirtualChannelCallback@@@Z
00242F70 ??0CClientHandler@@QEAA@XZ
0024315C ??_ECClientHandler@@UEAAPEAXI@Z
00243194 ??1CClientHandler@@UEAA@XZ
00243368 ?Initialize@CClientHandler@@UEAAJXZ
00243410 ?Terminate@CClientHandler@@UEAAJXZ
00243574 ?SetTransport@CClientHandler@@UEAAJPEAUIWTSVirtualChannelManager@@@Z
002438B4 ?GetAndParseXml@CClientHandler@@QEAAJXZ
00243AE0 ?SetConfigInfo@CClientHandler@@UEAAJPEAUIPropertyBag@@@Z
00243B34 ?OnConnect@CClientHandler@@UEAAJXZ
00243DE8 ?OnDisconnect@CClientHandler@@UEAAJXZ
00243EA4 ?OnDataReceived@CClientHandler@@UEAAJKPEAE@Z
00244068 ?OnVersion@CClientHandler@@AEAAJPEAUtagIRPDR_VERSION@@@Z
00244194 ?ProtocolError@CClientHandler@@AEAAXW4EProtocolError@1@@Z
002441DC ?SendPDU@CClientHandler@@EEAAJPEAUtagIRPDR_HEADER@@@Z
00244250 ?SendDeviceToUnRedirect@CClientHandler@@AEAAJPEAUILocalDevice@@@Z
00244368 ?SendDevicesToRedirect@CClientHandler@@AEAAJXZ
002443D8 ?SendDevicesToRedirectNew@CClientHandler@@AEAAJXZ
00244E74 ?OnDeviceAdded@CClientHandler@@UEAAJPEAUILocalDevice@@@Z
00244F94 ?OnDeviceRemoved@CClientHandler@@UEAAJPEAG@Z
00245110 ?GetInitialDevices@CClientHandler@@UEAAJPEAPEAUIDeviceCollection@@@Z
002452F0 ?GetCurrentDevices@CClientHandler@@UEAAJPEAPEAUIDeviceCollection@@PEAK@Z
0024545C ?AllocatePDU@CCommonPNPPDUHandler@@MEAAJKPEAPEAUtagIRPDR_HEADER@@@Z
00245558 ?FreePDU@CCommonPNPPDUHandler@@MEAAJPEAUtagIRPDR_HEADER@@@Z
00245574 ?ReadAndVerifyPDUHeader@CCommonPNPPDUHandler@@MEAAJJPEAE@Z
00245698 ?VerifyRedirectDevicesPDU@CCommonPNPPDUHandler@@MEAAJPEAUtagIRPDR_REDIRECT_DEVICES@@@Z
002458E0 ?SendVersion@CCommonPNPPDUHandler@@MEAAJXZ
002459D8 ?sDecoupledGenerateXml@CPnpRdrConfig@@CAKPEAX@Z
002459F0 ?Initialize@CPnpRdrConfig@@QEAAJPEAVITSInstance@@PEAVITSPropertySet@@@Z
00245AD0 ?GenerateXml@CPnpRdrConfig@@QEAAJPEAPEAG@Z
00245CD0 ?DecoupledGenerateXml@CPnpRdrConfig@@QEAAXXZ
00246198 ?Read@CPnpRdrConfig@@UEAAJPEBGPEAUtagVARIANT@@PEAUIErrorLog@@@Z
00246254 ??_ECUceProxConfig@@UEAAPEAXI@Z
002462F0 ?Read@CUceProxConfig@@UEAAJPEBGPEAUtagVARIANT@@PEAUIErrorLog@@@Z
002463B4 ?Write@CUceProxConfig@@UEAAJPEBGPEAUtagVARIANT@@@Z
00246474 ?Terminate@CUceProxConfig@@UEAAJXZ
002464D4 ?Initialize@CMilConnectionBackChannelCallBack@@QEAAJXZ
00246654 ?OnDataReceived@CMilConnectionBackChannelCallBack@@UEAAJKQEAE@Z
002466FC ?OnClose@CMilConnectionBackChannelCallBack@@UEAAJXZ
002467CC ?PostMessageToClient@CMilConnectionBackChannelCallBack@@UEAAJPEBUUCE_RDP_HEADER@@@Z
00246928 ?Initialize@CMilTSVirtualChannelPlugin@@UEAAJPEAUIWTSVirtualChannelManager@@@Z
00246CD4 ?Terminated@CMilTSVirtualChannelPlugin@@UEAAJXZ
00246DE0 ?OnNewChannelConnection@CMilTSVirtualChannelPlugin@@UEAAJPEAUIWTSVirtualChannel@@PEAGPEAHPEAPEAUIWTSVirtualChannelCallback@@@Z
00246F40 ?CDWMVCPlugin_CreateInstance@@YAJPEAPEAUIWTSPlugin@@@Z
002470BC ?Release@CMilTSVirtualChannelPlugin@@UEAAKXZ
0024718C ?Release@CMilConnectionBackChannelCallBack@@UEAAKXZ
002471BC ??_GCMilConnectionBackChannelCallBack@@QEAAPEAXI@Z
0024724C ??_GCDwmCoreApi@@UEAAPEAXI@Z
002472CC ??_ECMilTSConnector@@EEAAPEAXI@Z
00247314 ?InitializeHosting@CMilTSConnector@@UEAAJ_KPEAUITsDwmRedirectedGDISurfaceManager@@@Z
0024751C ?UpdateWindowSettings@CMilTSConnector@@UEAAJKPEAU_TSMIL_RECT@@@Z
002475C8 ?SetScaleTransform@CMilTSConnector@@UEAAJNN@Z
00247720 ?TeminateHosting@CMilTSConnector@@UEAAJXZ
002477B0 ?NonDelegatingQueryInterface@CMilTSConnector@@UEAAJAEBU_GUID@@PEAPEAX@Z
00247858 ?Init@CDwmCoreApi@@QEAAJXZ
00247C3C ??_ECMilRDPAdaptor@@UEAAPEAXI@Z
00247C74 ??1CMilRDPAdaptor@@UEAA@XZ
00247CF4 ?ProcessNotifyPacket@CMilRDPAdaptor@@UEAAJPEBXI@Z
00247DF0 ?GetPresentHistory@CMilRDPAdaptor@@UEAAJIPEAEPEAI@Z
00247E8C ?GetRedirSurface@CMilRDPAdaptor@@UEAAJ_KPEAPEAUIMilRedirectedGDISurface@@@Z
00248004 ?InitializeCompositionEngine@CMilRDPAdaptor@@IEAAJXZ
00248238 ?DeinitializeCompositionEngine@CMilRDPAdaptor@@IEAAJXZ
002482C8 ?EnsureContentHostStructure@CMilRDPAdaptor@@IEAAJXZ
0024895C ?ReleaseContentHostStructure@CMilRDPAdaptor@@IEAAJXZ
00248A98 ?Initialize@CMilRDPAdaptor@@QEAAJPEAUHWND__@@@Z
00248B70 ?NotifyHostedDwmOfDisplayChange@CMilRDPAdaptor@@QEAAJXZ
00248C2C ?NotifyOfHostingMessage@CMilRDPAdaptor@@QEAAJXZ
00248D3C ?UpdateWindowSettings@CMilRDPAdaptor@@QEAAJPEBUMilRectF@@@Z
002490A8 ??_ECMilTSProxyGDISurface@@UEAAPEAXI@Z
002490E0 ??1CMilTSProxyGDISurface@@UEAA@XZ
0024913C ?GetInformation@CMilTSProxyGDISurface@@UEAAJW4_RedirectGDISurfaceInformationClass@@PEAKPEAX@Z
002493EC ?SetInformation@CMilTSProxyGDISurface@@UEAAJW4_RedirectGDISurfaceInformationClass@@KPEAX@Z
002495FC ?GetSurfaceData@CMilTSProxyGDISurface@@AEAAJPEAPEAXPEAPEAUHBITMAP__@@0PEAI22PEAW4DXGI_FORMAT@@PEAU_LUID@@0@Z
0024976C ?NonDelegatingQueryInterface@CUceProxConfig_Vista@@UEAAJAEBU_GUID@@PEAPEAX@Z
00249814 ??_ECUceProxConfig_Vista@@UEAAPEAXI@Z
002498B0 ?Read@CUceProxConfig_Vista@@UEAAJPEBGPEAUtagVARIANT@@PEAUIErrorLog@@@Z
00249974 ?Write@CUceProxConfig_Vista@@UEAAJPEBGPEAUtagVARIANT@@@Z
00249A44 ?NonDelegatingQueryInterface@CTscSslFilter@@UEAAJAEBU_GUID@@PEAPEAX@Z
00249B54 ?TSCreateSSLFilter@@YAJPEAVITSCoreApiInternal@@PEAVITSPropertySet@@PEAXKPEAPEAVITSProtocolHandler@@@Z
00249D64 ??0CTscSslFilter@@QEAA@PEAVITSCoreApiInternal@@PEAVITSPropertySet@@PEBU_CERT_CONTEXT@@K@Z
00249EEC ??_ECTscSslFilter@@MEAAPEAXI@Z
00249F24 ??1CTscSslFilter@@MEAA@XZ
00249FE4 ?Initialize@CTscSslFilter@@UEAAJXZ
0024A12C ?Terminate@CTscSslFilter@@UEAAJXZ
0024A20C ?OnConnected@CTscSslFilter@@UEAAJXZ
0024ACA8 ?OnDisconnected@CTscSslFilter@@UEAAJK@Z
0024AE10 ?PrepareForReconnect@CTscSslFilter@@AEAAJXZ
0024AF68 ?MapErrorCode@CTscSslFilter@@AEAAIJ@Z
0024B46C ?OnDataAvailable@CTscSslFilter@@UEAAJKPEAEPEAH@Z
0024B610 ?GetBuffer@CTscSslFilter@@UEAAJKHPEAPEAVITSNetBuffer@@@Z
0024B6E4 ?SendBuffer@CTscSslFilter@@UEAAJPEAVITSNetBuffer@@KKKKK@Z
0024B8EC ?IsDataAvailable@CTscSslFilter@@UEAAHXZ
0024B934 ?ReadData@CTscSslFilter@@UEAAKPEAEK@Z
0024BA30 ?DirectReceive@CTscSslFilter@@UEAAJPEAPEAEK@Z
0024BB24 ?ProcessData@CTscSslFilter@@AEAAJPEAPEAEPEAK@Z
0024BE40 ?CreateInstance@CTscSslFilter@@SAJPEAVITSCoreApiInternal@@PEAVITSPropertySet@@PEBU_CERT_CONTEXT@@KPEAPEAV1@@Z
0024BF94 ?GetServerCertContext@CTscSslFilter@@UEAAPEAXXZ
0024BFF0 ?SetServerCertContext@CTscSslFilter@@AEAAXPEBU_CERT_CONTEXT@@@Z
0024C060 ?DisconnectWithErrorCode@CTscSslFilter@@AEAAJKH@Z
0024C240 ?SendHandshakeToken@CTscSslFilter@@AEAAJPEAEI@Z
0024C35C ?StartHandshake@CTscSslFilter@@AEAAJXZ
0024C4A4 ?ContinueHandshake@CTscSslFilter@@AEAAJXZ
0024C770 ?OnHandshakeCompleted@CTscSslFilter@@AEAAJXZ
0024CCB8 ?QueryConnectionInfo@CTscSslFilter@@AEAAJXZ
0024CF38 ?ValidateCertificateWorker@CTscSslFilter@@AEAAJPEBU_CERT_CONTEXT@@PEAGKKPEAUtagTS_SSL_CERT_ERROR@@@Z
0024D1A4 ?ValidateCertificate@CTscSslFilter@@AEAAJPEBU_CERT_CONTEXT@@PEAUtagTS_SSL_CERT_ERROR@@@Z
0024D294 ?SecLayerNegCompleteCallback@CTscSslFilter@@EEAAXJ@Z
0024D4B0 ?GetServerNameForAuthentication@CTscSslFilter@@AEAAJPEAPEBG@Z
0024D788 ?GetUserNameForAuthentication@CTscSslFilter@@AEAAJPEAPEBG@Z
0024D918 ?MapErrorStatusToErrorFlags@CTscSslFilter@@AEAAXKPEAK0@Z
0024DB58 ?TSCreatePCBFilter@@YAJPEAVITSCoreApiInternal@@PEAPEAVITSProtocolHandler@@@Z
0024DD24 ??_ECTscPCBFilter@@UEAAPEAXI@Z
0024DD5C ??1CTscPCBFilter@@UEAA@XZ
0024DDD4 ?Initialize@CTscPCBFilter@@UEAAJXZ
0024DF5C ?Terminate@CTscPCBFilter@@UEAAJXZ
0024DF9C ?OnConnected@CTscPCBFilter@@UEAAJXZ
0024E158 LSOpenLicenseStore
0024E284 LSAddLicenseToStore
0024E580 LSFindLicenseInStore
0024E608 LSOpenLicenseHandle
0024EA70 ?GetSecurityFilterHelper@CSecurityFilterTemplate@@UEAAPEAVISecurityFilterHelper@@XZ
0024EAA4 ??_GCSecFilterClientTemplate@@UEAAPEAXI@Z
0024EAE4 ?FilterIncomingData@CSecFilterClient@@UEAAJPEAEKPEAK1@Z
0024EB70 ?GetProcessedData@CSecFilterClient@@UEAAJPEAEKPEAK1@Z
0024EC60 ??_GCSecFilterClient@@UEAAPEAXI@Z
0024ECD0 ?GetInstanceOfSecFilterClientTemplate@@YAJPEAU_SECURITY_FILTER_CLIENT_SETTINGS@@PEAVISecurityFilterHelper@@PEAPEAVISecurityFilterTemplate@@@Z
0024EE18 ?GetInstanceOfSecFilterClient@@YAJPEAU_SECURITY_FILTER_CLIENT_SETTINGS@@PEAVISecurityFilterTemplate@@PEAPEAVISecFilterClient@@@Z
0024EFB0 ?Initialize@CSecFilterClientTemplate@@QEAAJPEAU_SECURITY_FILTER_CLIENT_SETTINGS@@PEAVISecurityFilterHelper@@@Z
0024F0A8 ?InitializeCredentials@CSecFilterClientTemplate@@AEAAJPEAVISecurityFilterHelper@@PEAU_SECURITY_FILTER_CLIENT_SETTINGS@@PEAPEAX2222@Z
0024F394 ?InitializeSPNegoCredentials@CSecFilterClientTemplate@@AEAAJPEAVISecurityFilterHelper@@PEAG11PEAPEAU_SEC_WINNT_AUTH_IDENTITY_W@@@Z
0024F544 ?Initialize@CSecFilterClient@@QEAAJPEAU_SECURITY_FILTER_CLIENT_SETTINGS@@PEAVISecurityFilterTemplate@@@Z
0024F70C ?DoHandshake@CSecFilterClient@@UEAAJPEAEKPEAPEAEPEAK02@Z
0024F880 ?QueryNegotiatedProtocolName@CSecFilterClient@@UEAAJPEAGK@Z
0024F900 ?CreateSPN@CSecFilterClient@@AEAAJPEAVISecurityFilterHelper@@PEBG1PEAPEAG@Z
0024FA68 ?Release@?$CTSPrivateObject@VISecurityFilterTemplate@@@@UEAAKXZ
0024FA98 ?Release@?$CTSPrivateObject@VISecFilterClient@@@@UEAAKXZ
0024FACC ??_E?$CTSPrivateObject@VISecFilterClient@@@@UEAAPEAXI@Z
0024FAF8 ??_GCSecurityFilterTemplate@@UEAAPEAXI@Z
0024FB30 ??1CSecurityFilterTemplate@@UEAA@XZ
0024FBA0 ?Initialize@CSecurityFilterTemplate@@QEAAJPEAVISecurityFilterHelper@@IPEAXK@Z
0024FC78 ??_GCSecurityFilter@@UEAAPEAXI@Z
0024FCB0 ??1CSecurityFilter@@UEAA@XZ
0024FD48 ?DoHandshake@CSecurityFilter@@UEAAJPEAEKPEAPEAEPEAK02@Z
0024FE68 ?FilterIncomingData@CSecurityFilter@@UEAAJPEAEKPEAK1@Z
0024FF78 ?FilterOutgoingData@CSecurityFilter@@UEAAJPEAEPEAK@Z
0024FFFC ?GetProcessedData@CSecurityFilter@@UEAAJPEAEKPEAK1@Z
002501B4 ?HandshakeWorker@CSecurityFilter@@AEAAJPEAEKPEAPEAEPEAK@Z
002506D0 ?InitializeInputBuffer@CSecurityFilter@@AEAAJXZ
00250778 ?OnHandshakeCompleted@CSecurityFilter@@AEAAJXZ
00250860 ?QueryStreamSizes@CSecurityFilter@@AEAAJXZ
002508D4 ?DecryptData@CSecurityFilter@@AEAAJPEAEK@Z
00250AD4 ?EncryptData@CSecurityFilter@@AEAAJPEAEPEAKK@Z
00250C1C ?Reset@CSecurityFilter@@UEAAJXZ
00250CC4 ?GetInputData@CSecurityFilter@@AEAAJPEAEKPEAPEAEPEAK@Z
00250D50 ?QueryContextAttributesW@CSecurityFilter@@UEAAJKPEAX@Z
00250D84 ??_G?$CTSPrivateObject@VISecurityFilterTemplate@@@@UEAAPEAXI@Z
00250DB0 ?AllocateSSPIBuffer@CSecurityFilterHelper@@UEAAJKPEAPEAX@Z
00250DF0 ?AllocateAndCopySSPIString@CSecurityFilterHelper@@UEAAJPEBGPEAPEAG@Z
00250ED0 ?InitSecurityInterfaceW@CSecurityFilterHelper@@UEAAJIPEAU_SECURITY_FUNCTION_TABLE_W@@@Z
00250F18 ?GetSchannelCred@CSecurityFilterHelper@@UEAAJPEAEKPEBGKPEAKPEAPEAX@Z
00251054 ?FreeSchannelCred@CSecurityFilterHelper@@UEAAJPEAX@Z
002510A0 ?DuplicateHandle@CSecurityFilterHelper@@UEAAJPEAXPEAPEAX@Z
002510D8 ?Release@?$CTSPrivateObject@VISecurityFilterHelper@@@@UEAAKXZ
00251108 ??_G?$CTSPrivateObject@VISecurityFilterHelper@@@@UEAAPEAXI@Z
00251134 ?DoRemapping@CClientPathToTempPathRemapper@@UEAAJPEAGPEA_KPEBG@Z
002512D8 ?CProxyWrite_USB_DEVICE_CAPABILITIES@@YAJPEAUIMessage@@PEAU_USB_DEVICE_CAPABILITIES@@K@Z
002513CC ?CProxyReceive_USB_DEVICE_CAPABILITIES@@YAJPEAUIMessage@@PEAU_USB_DEVICE_CAPABILITIES@@K@Z
00251A4C ?QueryInterface@?$CImplIUnknown@UIRIMStub@@@@UEAAJAEBU_GUID@@PEAPEAX@Z
00251AC4 ?ExchangeCapabilities@?$CProxyIRIMCapabilitiesNegotiator@UIRIMCapabilitiesNegotiator@@@@UEAAJKPEAK@Z
00251BB4 ??1?$CProxyIUnknown@UIRIMCapabilitiesNegotiator@@@@UEAA@XZ
00251C64 ?QueryInterface@?$CProxyIUnknown@UIRIMCapabilitiesNegotiator@@@@UEAAJAEBU_GUID@@PEAPEAX@Z
00251DB8 ?QueryInterface@?$CImplIUnknown@UIRIMCapabilitiesNegotiator@@@@UEAAJAEBU_GUID@@PEAPEAX@Z
00251E30 ?ChannelCreated@?$CProxyITsChannelNotification@UITsChannelNotification@@@@UEAAJPEAU_URBDR_VERSION@@@Z
00251F28 ??1?$CProxyIUnknown@UITsChannelNotification@@@@UEAA@XZ
00251FD8 ?QueryInterface@?$CProxyIUnknown@UITsChannelNotification@@@@UEAAJAEBU_GUID@@PEAPEAX@Z
0025212C ?QueryInterface@?$CImplIUnknown@UITsChannelNotification@@@@UEAAJAEBU_GUID@@PEAPEAX@Z
002521A4 ?IoControlCompleteRequest@?$CProxyITsRequestCompletion@UITsRequestCompletion@@@@UEAAJKJKPEADK@Z
002522B4 ?UrbCompletion@?$CProxyITsRequestCompletion@UITsRequestCompletion@@@@UEAAJKPEADKJ0K@Z
002523E4 ?UrbCompletionNoData@?$CProxyITsRequestCompletion@UITsRequestCompletion@@@@UEAAJKPEADKJK@Z
002524F8 ??1?$CProxyIUnknown@UITsRequestCompletion@@@@UEAA@XZ
002525A8 ?QueryInterface@?$CProxyIUnknown@UITsRequestCompletion@@@@UEAAJAEBU_GUID@@PEAPEAX@Z
002526FC ?Release@?$CImplIUnknown@UITsRequestCompletion@@@@UEAAKXZ
0025272C ?QueryInterface@?$CImplIUnknown@UITsRequestCompletion@@@@UEAAJAEBU_GUID@@PEAPEAX@Z
002527A4 ?CancelRequest@?$CProxyITsUsbDevice@UITsUsbDevice@@@@UEAAJK@Z
00252828 ?RegisterRequestCallback@?$CProxyITsUsbDevice@UITsUsbDevice@@@@UEAAJPEAUITsRequestCompletion@@@Z
002528B4 ?UsbIoControl@?$CProxyITsUsbDevice@UITsUsbDevice@@@@UEAAJKPEADKKK@Z
002529CC ?UsbInternalIoControl@?$CProxyITsUsbDevice@UITsUsbDevice@@@@UEAAJKPEADKKK@Z
00252AE4 ?PnpQueryDeviceTextDescription@?$CProxyITsUsbDevice@UITsUsbDevice@@@@UEAAJKKPEAPEAGPEAK@Z
00252C2C ?UrbTransferInRequest@?$CProxyITsUsbDevice@UITsUsbDevice@@@@UEAAJPEADKK@Z
00252CFC ?UrbTransferOutRequest@?$CProxyITsUsbDevice@UITsUsbDevice@@@@UEAAJPEADK0K@Z
00252DF0 ?RetractDevice@?$CProxyITsUsbDevice@UITsUsbDevice@@@@UEAAJK@Z
00252E74 ??1?$CProxyIUnknown@UITsUsbDevice@@@@UEAA@XZ
00252F24 ?QueryInterface@?$CProxyIUnknown@UITsUsbDevice@@@@UEAAJAEBU_GUID@@PEAPEAX@Z
00253078 ?Release@?$CImplIUnknown@UITSVC_PrintTicketProvider@@@@UEAAKXZ
002530A8 ?QueryInterface@?$CImplIUnknown@UITsUsbDevice@@@@UEAAJAEBU_GUID@@PEAPEAX@Z
00253120 ?AddNewVirtualChannel@?$CProxyITsUsbDeviceSink@UITsUsbDeviceSink@@@@UEAAJXZ
00253184 ?AddDevice@?$CProxyITsUsbDeviceSink@UITsUsbDeviceSink@@@@UEAAJPEAUITsUsbDevice@@KPEAGK1K1K1PEAU_USB_DEVICE_CAPABILITIES@@@Z
00253348 ??1?$CProxyIUnknown@UITsUsbDeviceSink@@@@UEAA@XZ
002533F8 ?QueryInterface@?$CProxyIUnknown@UITsUsbDeviceSink@@@@UEAAJAEBU_GUID@@PEAPEAX@Z
0025354C ?QueryInterface@?$CImplIUnknown@UITsUsbDeviceSink@@@@UEAAJAEBU_GUID@@PEAPEAX@Z
002535C4 ?Dispatch_Invoke@?$CStubIRIMCapabilitiesNegotiator@UIRIMCapabilitiesNegotiator@@@@UEAAJPEAUIMessage@@KPEAH@Z
00253678 ?Dispatch_Invoke@?$CStubITsChannelNotification@UITsChannelNotification@@@@UEAAJPEAUIMessage@@KPEAH@Z
002536A0 ?Dispatch_Invoke@?$CStubITsRequestCompletion@UITsRequestCompletion@@@@UEAAJPEAUIMessage@@KPEAH@Z
002536E4 ?Dispatch_Invoke@?$CStubITsUsbDevice@UITsUsbDevice@@@@UEAAJPEAUIMessage@@KPEAH@Z
002538E8 ?OnChannelClose@?$CStub@UIUnknown@@@@UEAAJXZ
00253940 ?Dispatch_Invoke@?$CStubITsUsbDeviceSink@UITsUsbDeviceSink@@@@UEAAJPEAUIMessage@@KPEAH@Z
0025397C ??_E?$CImplIUnknown@UIRIMStub@@@@UEAAPEAXI@Z
002539B0 ??_E?$CProxyIUnknown@UIRIMCapabilitiesNegotiator@@@@UEAAPEAXI@Z
002539E8 ??_G?$CImplIUnknown@UIRIMCapabilitiesNegotiator@@@@UEAAPEAXI@Z
00253A1C ??_E?$CProxyIUnknown@UITsChannelNotification@@@@UEAAPEAXI@Z
00253A54 ??_G?$CImplIUnknown@UITsChannelNotification@@@@UEAAPEAXI@Z
00253A88 ??_G?$CProxyIUnknown@UITsRequestCompletion@@@@UEAAPEAXI@Z
00253AC0 ??_G?$CImplIUnknown@UITsRequestCompletion@@@@UEAAPEAXI@Z
00253AF4 ??_G?$CProxyITsUsbDevice@UITsUsbDevice@@@@UEAAPEAXI@Z
00253B2C ??_G?$CImplIUnknown@UITsUsbDevice@@@@UEAAPEAXI@Z
00253B60 ??_G?$CProxyITsUsbDeviceSink@UITsUsbDeviceSink@@@@UEAAPEAXI@Z
00253B98 ??_G?$CImplIUnknown@UITsUsbDeviceSink@@@@UEAAPEAXI@Z
00253BCC ??_G?$CStub@UIMMServerData@@@@UEAAPEAXI@Z
00253C20 ?Invoke_ChannelCreated@?$CStubITsChannelNotification@UITsChannelNotification@@@@AEAAJPEAUIMessage@@@Z
00253D2C ?Invoke_IoControlCompleteRequest@?$CStubITsRequestCompletion@UITsRequestCompletion@@@@AEAAJPEAUIMessage@@@Z
00253E3C ?Invoke_UrbCompletion@?$CStubITsRequestCompletion@UITsRequestCompletion@@@@AEAAJPEAUIMessage@@@Z
00253FC8 ?Invoke_UrbCompletionNoData@?$CStubITsRequestCompletion@UITsRequestCompletion@@@@AEAAJPEAUIMessage@@@Z
002540DC ?Invoke_UsbIoControl@?$CStubITsUsbDevice@UITsUsbDevice@@@@AEAAJPEAUIMessage@@@Z
002541F0 ?Invoke_UsbInternalIoControl@?$CStubITsUsbDevice@UITsUsbDevice@@@@AEAAJPEAUIMessage@@@Z
00254304 ?Invoke_PnpQueryDeviceTextDescription@?$CStubITsUsbDevice@UITsUsbDevice@@@@AEAAJPEAUIMessage@@@Z
00254404 ?Invoke_UrbTransferOutRequest@?$CStubITsUsbDevice@UITsUsbDevice@@@@AEAAJPEAUIMessage@@@Z
00254528 ?Invoke_AddDevice@?$CStubITsUsbDeviceSink@UITsUsbDeviceSink@@@@AEAAJPEAUIMessage@@@Z
00254848 ??_GCRIMPooledUnknown@@UEAAPEAXI@Z
00254874 ?Initialize@CRimResource@@QEAAJXZ
002548BC ?ReleaseResources@?ICRIMPooledUnknown@CMemory@@UEAAXXZ
002548FC ??_GCMemory@@UEAAPEAXI@Z
00254968 ?Reset@CMessage@@UEAAJXZ
00254998 ?WriteNULLMark@CMessage@@UEAAJH@Z
002549BC ?WriteFunction@CMessage@@UEAAJK@Z
00254A40 ?ReceiveNULLMark@CMessage@@UEAAJPEAH@Z
00254AD0 ??_ECMessage@@UEAAPEAXI@Z
00254B08 ?Initialize@CRIMObjManager@@QEAAJXZ
00254C9C ?GetChannelCallback@CRIMObjManager@@UEAAJPEAPEAUIWTSVirtualChannelCallback@@@Z
00254CCC ??_ECRIMObjManager@@UEAAPEAXI@Z
00254DB4 ?GetInstanceOfObjectManager@@YAJP6AJAEBU_GUID@@PEAUIRIMStream@@PEAPEAUIUnknown@@@ZP6AJ0PEAU3@PEAPEAUIRIMStub@@@ZPEAPEAUIRIMObjManager@@KK@Z
00254F14 ?ReleaseResources@?ICRIMPooledUnknown@CRimWriteCallback@@UEAAXXZ
00254F54 ?WriteCompleted@CRimWriteCallback@@UEAAJH@Z
00254F94 ??_ECRimWriteCallback@@UEAAPEAXI@Z
00255000 ??_ECRimChannel@@UEAAPEAXI@Z
00255038 ??1CRimChannel@@UEAA@XZ
00255158 ?QueryInterface@CRimChannel@@UEAAJAEBU_GUID@@PEAPEAX@Z
002551D0 ?Write@CRimChannel@@QEAAJPEAVCMemory@@@Z
00255340 ?OnClose@CRimChannel@@UEAAJXZ
00255390 ?Release@?$CImplIUnknown@UIUnknown@@@@UEAAKXZ
002553C0 ?QueryInterface@?$CImplIUnknown@UIUnknown@@@@UEAAJAEBU_GUID@@PEAPEAX@Z
00255438 ?Release@?$CImplIUnknownPool@UIUnknown@@@@UEAAKXZ
0025546C ?Release@?$CImplIUnknown@UIMessage@@@@UEAAKXZ
002554A0 ?QueryInterface@?$CImplIUnknown@UIMessage@@@@UEAAJAEBU_GUID@@PEAPEAX@Z
00255518 ?QueryInterface@?$CImplIUnknown@UIWTSVirtualChannelCallback@@@@UEAAJAEBU_GUID@@PEAPEAX@Z
00255590 ?Release@?$CImplIUnknown@UIRIMObjManager@@@@UEAAKXZ
002555C0 ?QueryInterface@?$CImplIUnknown@UIRIMObjManager@@@@UEAAJAEBU_GUID@@PEAPEAX@Z
00255638 ??1?$DynArray@VCObjectEntry@CRIMObjManager@@K@@QEAA@XZ
002556AC ?CreateInstance@?$CRIMObjectPool@VCMemory@@@@SAJIPEAPEAV1@@Z
002557B0 ?Terminate@?$CRIMObjectPool@VCMemory@@@@QEAAJXZ
0025583C ?ReturnPooledObject@?$CRIMObjectPool@VCMemory@@@@UEAAJPEAVCRIMPooledUnknown@@@Z
002558D4 ??1?$CRIMObjectPool@VCRimWriteCallback@@@@MEAA@XZ
00255940 ?CreateInstance@?$CRIMObjectPool@VCMessage@@@@SAJIPEAPEAV1@@Z
00255A44 ?Terminate@?$CRIMObjectPool@VCMessage@@@@QEAAJXZ
00255AD0 ?QueryInterface@?$CImplIUnknown@UIWTSWriteCallback@@@@UEAAJAEBU_GUID@@PEAPEAX@Z
00255B48 ?GetPooledObject@?$CRIMObjectPool@VCRimWriteCallback@@@@QEAAJPEAPEAVCRimWriteCallback@@H@Z
00255CAC ??_E?$CImplIUnknown@UIUnknown@@@@UEAAPEAXI@Z
00255CE0 ??_E?$CImplIUnknown@UIMessage@@@@UEAAPEAXI@Z
00255D14 ??_E?$CImplIUnknown@UIWTSVirtualChannelCallback@@@@UEAAPEAXI@Z
00255D48 ??_E?$CImplIUnknown@UIRIMObjManager@@@@UEAAPEAXI@Z
00255D7C ??_G?$CRIMObjectPool@VCRimWriteCallback@@@@MEAAPEAXI@Z
00255DB4 ??_G?$CImplIUnknown@UIWTSWriteCallback@@@@UEAAPEAXI@Z
00255DE8 ?Initialize@?$CRIMObjectPool@VCMemory@@@@QEAAJXZ
00255EEC ?Initialize@?$CRIMObjectPool@VCMessage@@@@QEAAJXZ
00255FF4 ?Initialize@?$CRIMObjectPool@VCRimWriteCallback@@@@QEAAJXZ
00256198 ?Grow@CMemory@@QEAAJK@Z
00256224 ?Initialize@CMessage@@QEAAJPEAVCRIMStream@@KKPEAVCMemory@@@Z
002562DC ??1CMessage@@UEAA@XZ
00256364 ?ReleaseResources@CMessage@@UEAAXXZ
002563B8 ?CommitWrite@CMessage@@UEAAJXZ
00256478 ?WriteMemory@CMessage@@AEAAJPEAXK@Z
0025658C ?ReceiveMemory@CMessage@@AEAAJPEAXK@Z
002565EC ?WriteLPSTR@CMessage@@UEAAJPEAPEADK@Z
00256684 ?WriteBSTR@CMessage@@UEAAJPEAPEAGK@Z
00256734 ?ReceiveBSTR@CMessage@@UEAAJPEAPEAGK@Z
00256824 ?WriteLPWSTR@CMessage@@UEAAJPEAPEAGK@Z
002568C0 ?WriteIUnknown@CMessage@@UEAAJPEAPEAUIUnknown@@AEBU_GUID@@K@Z
002569F8 ?CommitReceive@CMessage@@UEAAJXZ
00256A1C ?ReceiveLPSTR@CMessage@@UEAAJPEAPEADK@Z
00256BA0 ?ReceiveLPWSTR@CMessage@@UEAAJPEAPEAGK@Z
00256D28 ?ReceiveIUnknown@CMessage@@UEAAJPEAPEAUIUnknown@@AEBU_GUID@@K@Z
00256E5C ?RemoveIUnknown@CMessage@@UEAAJKH@Z
00256FC4 ?GetPooledObject@?$CRIMObjectPool@VCMemory@@@@QEAAJPEAPEAVCMemory@@H@Z
00257134 ?Initialize@CRIMStreamProxy@@UEAAJXZ
00257164 ??_GCRIMStreamProxy@@UEAAPEAXI@Z
002571D0 ??0CRIMStreamStub@@QEAA@PEAVCRIMObjManager@@PEAUIRIMStub@@KV?$SmartPtr@V?$CRIMObjectPool@VCMessage@@@@@@@Z
0025727C ??_ECRIMStreamStub@@UEAAPEAXI@Z
002572DC ??_GCCapabilitiesNegotiator@CRIMObjManager@@UEAAPEAXI@Z
00257330 ?CreateStubObject@CRIMObjManager@@AEAAJP6AJAEBU_GUID@@PEAUIUnknown@@PEAPEAUIRIMStub@@@Z10K2@Z
00257424 ?CreateProxyObject@CRIMObjManager@@AEAAJP6AJAEBU_GUID@@PEAUIRIMStream@@PEAPEAUIUnknown@@@Z0KPEAPEAVCRIMStream@@2@Z
002575F0 ?GetIdFromObject@CRIMObjManager@@QEAAJPEAUIUnknown@@AEBU_GUID@@PEAK@Z
002578F4 ?OnDataReceived@CRIMObjManager@@QEAAJPEAEK@Z
00257B0C ?CloseChannel@CRIMObjManager@@QEAAJXZ
00257CF4 ?AddObject@CRIMObjManager@@UEAAJPEAUIUnknown@@AEBU_GUID@@K@Z
00257D1C ?AddObjectInternal@CRIMObjManager@@AEAAJP6AJAEBU_GUID@@PEAUIUnknown@@PEAPEAUIRIMStub@@@Z10K@Z
00257EF0 ?GetProxy@CRIMObjManager@@UEAAJAEBU_GUID@@KPEAPEAUIUnknown@@@Z
00257F18 ?GetProxyInternal@CRIMObjManager@@AEAAJP6AJAEBU_GUID@@PEAUIRIMStream@@PEAPEAUIUnknown@@@Z0K2@Z
002580A4 ?ExchangeCapabilities@CRIMObjManager@@UEAAJKPEAK@Z
0025826C ?RegisterCapabilities@CRIMObjManager@@AEAAJK@Z
00258340 ?SetChannel@CRIMObjManager@@UEAAJPEAUIWTSVirtualChannel@@@Z
0025844C ?QueryInterface@?$CImplIUnknown@UIRIMStream@@@@UEAAJAEBU_GUID@@PEAPEAX@Z
002584D8 ?Invoke@?$CStub@UITS_PrinterDriver_DocumentPropertiesCallBack@@@@UEAAJPEAUIMessage@@@Z
00258648 ??1?$CProxyIUnknown@UIUnknown@@@@UEAA@XZ
002586F8 ?QueryInterface@?$CProxyIUnknown@UIUnknown@@@@UEAAJAEBU_GUID@@PEAPEAX@Z
0025884C ??4CObjectEntry@CRIMObjManager@@QEAAAEAV01@AEAV01@@Z
002588D4 ??_G?$CProxyIUnknown@UIUnknown@@@@UEAAPEAXI@Z
0025890C ?Grow@?$DynArray@VCObjectEntry@CRIMObjManager@@K@@AEAAHK@Z
00258A38 ?AcquireId@CUniqueIdMap@@QEAAJPEAK@Z
00258B18 ??0CRIMStream@@QEAA@PEAVCRIMObjManager@@KV?$SmartPtr@V?$CRIMObjectPool@VCMessage@@@@@@@Z
00258BE0 ??_ECRIMStream@@UEAAPEAXI@Z
00258C18 ??1CRIMStream@@UEAA@XZ
00258CB4 ?ReleaseMessageId@CRIMStream@@QEAAJK@Z
00258D40 ?GetObjectFromId@CRIMStream@@QEAAJKAEBU_GUID@@PEAPEAUIUnknown@@@Z
00258EB8 ?ReceiveMessage@CRIMStreamProxy@@UEAAJKPEAPEAVCMemory@@@Z
002590B0 ?OnDataReceived@CRIMStreamProxy@@UEAAJPEAVCMemory@@@Z
002591A8 ?OnDisconnect@CRIMStreamProxy@@UEAAJXZ
00259240 ?OnDataReceived@CRIMStreamStub@@UEAAJPEAVCMemory@@@Z
0025930C ?GetMessageInstance@CRIMStream@@UEAAJPEAPEAUIMessage@@@Z
002593E0 ?GetPooledObject@?$CRIMObjectPool@VCMessage@@@@QEAAJPEAPEAVCMessage@@H@Z
00259554 ??_G?$CImplIUnknown@UIRIMStream@@@@UEAAPEAXI@Z
002598A0 ?GetSupportedVersions@?$CProxyITSVC_PrintTicketProvider@UITSVC_PrintTicketProvider@@@@UEAAJKPEAPEAHPEAH@Z
002599D4 ?BindPrinter@?$CProxyITSVC_PrintTicketProvider@UITSVC_PrintTicketProvider@@@@UEAAJKHPEAHPEAI0PEAPEAPEAG@Z
00259B64 ?QueryDeviceNamespace@?$CProxyITSVC_PrintTicketProvider@UITSVC_PrintTicketProvider@@@@UEAAJPEAPEAG@Z
00259C2C ?ConvertPrintTicketToDevMode@?$CProxyITSVC_PrintTicketProvider@UITSVC_PrintTicketProvider@@@@UEAAJPEAUIUnknown@@PEADKPEAPEADPEAK@Z
00259D94 ?ConvertDevModeToPrintTicket@?$CProxyITSVC_PrintTicketProvider@UITSVC_PrintTicketProvider@@@@UEAAJPEADKPEAUIUnknown@@PEAPEAU2@@Z
00259EC0 ?GetPrintCapabilities@?$CProxyITSVC_PrintTicketProvider@UITSVC_PrintTicketProvider@@@@UEAAJPEAPEAUIUnknown@@@Z
00259F84 ?GetPrintCapabilitiesUsingPrintTicket@?$CProxyITSVC_PrintTicketProvider@UITSVC_PrintTicketProvider@@@@UEAAJPEAUIUnknown@@PEAPEAU2@@Z
0025A068 ?ValidatePrintTicket@?$CProxyITSVC_PrintTicketProvider@UITSVC_PrintTicketProvider@@@@UEAAJPEAUIUnknown@@PEAPEAU2@@Z
0025A14C ??1?$CProxyIUnknown@UITSVC_PrintTicketProvider@@@@UEAA@XZ
0025A1FC ?QueryInterface@?$CProxyIUnknown@UITSVC_PrintTicketProvider@@@@UEAAJAEBU_GUID@@PEAPEAX@Z
0025A350 ?QueryInterface@?$CImplIUnknown@UITSVC_PrintTicketProvider@@@@UEAAJAEBU_GUID@@PEAPEAX@Z
0025A3C8 ?Dispatch_Invoke@?$CStubITSVC_PrintTicketProvider@UITSVC_PrintTicketProvider@@@@UEAAJPEAUIMessage@@KPEAH@Z
0025A6DC ??_E?$CProxyITSVC_PrintTicketProvider@UITSVC_PrintTicketProvider@@@@UEAAPEAXI@Z
0025A714 ??_G?$CImplIUnknown@UITSVC_PrintTicketProvider@@@@UEAAPEAXI@Z
0025A748 ?Invoke_BindPrinter@?$CStubITSVC_PrintTicketProvider@UITSVC_PrintTicketProvider@@@@AEAAJPEAUIMessage@@@Z
0025A8DC ?Invoke_ConvertPrintTicketToDevMode@?$CStubITSVC_PrintTicketProvider@UITSVC_PrintTicketProvider@@@@AEAAJPEAUIMessage@@@Z
0025AA74 ?Invoke_ConvertDevModeToPrintTicket@?$CStubITSVC_PrintTicketProvider@UITSVC_PrintTicketProvider@@@@AEAAJPEAUIMessage@@@Z
0025ABC8 ?CProxyWrite_TSDEVICE_CAPABILITY@@YAJPEAUIMessage@@PEAU_TSDEVICE_CAPABILITY@@K@Z
0025ACB0 ?CProxyReceive_TSDEVICE_CAPABILITY@@YAJPEAUIMessage@@PEAU_TSDEVICE_CAPABILITY@@K@Z
0025AD9C ?CProxyWrite_TSPRINTER_PROPERTY@@YAJPEAUIMessage@@PEAU_TSPRINTER_PROPERTY@@K@Z
0025AE84 ?CProxyReceive_TSPRINTER_PROPERTY@@YAJPEAUIMessage@@PEAU_TSPRINTER_PROPERTY@@K@Z
0025AF80 ?CProxyCleanup_TSPRINTER_PROPERTY@@YAJPEAU_TSPRINTER_PROPERTY@@K@Z
0025B364 ?InitializePrinter@?$CProxyITS_PrintDriver@UITS_PrintDriver@@@@UEAAJK@Z
0025B424 ?GetAllDevCaps@?$CProxyITS_PrintDriver@UITS_PrintDriver@@@@UEAAJPEAPEAU_TSDEVICE_CAPABILITY@@PEAK@Z
0025B52C ?ConvertDevMode@?$CProxyITS_PrintDriver@UITS_PrintDriver@@@@UEAAJKKPEADK0PEAPEADPEAKK222@Z
0025B774 ?GetDefaultDevMode@?$CProxyITS_PrintDriver@UITS_PrintDriver@@@@UEAAJPEAPEADPEAK@Z
0025B880 ?GetDeviceCapability@?$CProxyITS_PrintDriver@UITS_PrintDriver@@@@UEAAJKPEADGKPEAKPEAPEAD1@Z
0025BA34 ?DocumentPropertiesW@?$CProxyITS_PrintDriver@UITS_PrintDriver@@@@UEAAJK_KPEAK1PEADKKPEAPEAD1@Z
0025BC30 ?AsyncDocumentProperties@?$CProxyITS_PrintDriver@UITS_PrintDriver@@@@UEAAJK_KPEADKKPEAUITS_PrinterDriver_DocumentPropertiesCallBack@@@Z
0025BDA8 ?AsyncPrinterProperties@?$CProxyITS_PrintDriver@UITS_PrintDriver@@@@UEAAJK_KPEAUITS_PrinterDriver_PrinterPropertiesCallBack@@@Z
0025BEC4 ?PrinterProperties@?$CProxyITS_PrintDriver@UITS_PrintDriver@@@@UEAAJK_KPEAK1@Z
0025BFFC ?CancelAsyncDocumentProperties@?$CProxyITS_PrintDriver@UITS_PrintDriver@@@@UEAAJXZ
0025C09C ?CancelAsyncPrinterProperties@?$CProxyITS_PrintDriver@UITS_PrintDriver@@@@UEAAJXZ
0025C13C ?MoveAsyncDocumentProperties@?$CProxyITS_PrintDriver@UITS_PrintDriver@@@@UEAAJKK@Z
0025C224 ?MxdcGetPDEVAdjustment@?$CProxyITS_PrintDriver@UITS_PrintDriver@@@@UEAAJKPEADK0KPEAU_TSPRINTER_PROPERTY@@PEAKPEAPEAU2@@Z
0025C3F4 ??1?$CProxyIUnknown@UITS_PrintDriver@@@@UEAA@XZ
0025C4A4 ?QueryInterface@?$CProxyIUnknown@UITS_PrintDriver@@@@UEAAJAEBU_GUID@@PEAPEAX@Z
0025C5F8 ?Release@?$CImplIUnknown@UITS_PrintDriver@@@@UEAAKXZ
0025C62C ?QueryInterface@?$CImplIUnknown@UITS_PrintDriver@@@@UEAAJAEBU_GUID@@PEAPEAX@Z
0025C6A4 ?DocumentPropertiesCallBack@?$CProxyITS_PrinterDriver_DocumentPropertiesCallBack@UITS_PrinterDriver_DocumentPropertiesCallBack@@@@UEAAJKKPEADK@Z
0025C7D8 ??1?$CProxyIUnknown@UITS_PrinterDriver_DocumentPropertiesCallBack@@@@UEAA@XZ
0025C888 ?QueryInterface@?$CProxyIUnknown@UITS_PrinterDriver_DocumentPropertiesCallBack@@@@UEAAJAEBU_GUID@@PEAPEAX@Z
0025C9DC ?Release@?$CImplIUnknown@UITS_PrinterDriver_PrinterPropertiesCallBack@@@@UEAAKXZ
0025CA0C ?QueryInterface@?$CImplIUnknown@UITS_PrinterDriver_DocumentPropertiesCallBack@@@@UEAAJAEBU_GUID@@PEAPEAX@Z
0025CA84 ?PrinterPropertiesCallBack@?$CProxyITS_PrinterDriver_PrinterPropertiesCallBack@UITS_PrinterDriver_PrinterPropertiesCallBack@@@@UEAAJKK@Z
0025CB6C ??1?$CProxyIUnknown@UITS_PrinterDriver_PrinterPropertiesCallBack@@@@UEAA@XZ
0025CC1C ?QueryInterface@?$CProxyIUnknown@UITS_PrinterDriver_PrinterPropertiesCallBack@@@@UEAAJAEBU_GUID@@PEAPEAX@Z
0025CD70 ?QueryInterface@?$CImplIUnknown@UITS_PrinterDriver_PrinterPropertiesCallBack@@@@UEAAJAEBU_GUID@@PEAPEAX@Z
0025CDE8 ?Dispatch_Invoke@?$CStubITS_PrintDriver@UITS_PrintDriver@@@@UEAAJPEAUIMessage@@KPEAH@Z
0025D26C ?Dispatch_Invoke@?$CStubITS_PrinterDriver_DocumentPropertiesCallBack@UITS_PrinterDriver_DocumentPropertiesCallBack@@@@UEAAJPEAUIMessage@@KPEAH@Z
0025D294 ?Dispatch_Invoke@?$CStubITS_PrinterDriver_PrinterPropertiesCallBack@UITS_PrinterDriver_PrinterPropertiesCallBack@@@@UEAAJPEAUIMessage@@KPEAH@Z
0025D344 ??_G?$CProxyITS_PrintDriver@UITS_PrintDriver@@@@UEAAPEAXI@Z
0025D37C ??_G?$CImplIUnknown@UITS_PrintDriver@@@@UEAAPEAXI@Z
0025D3B0 ??_G?$CProxyITS_PrinterDriver_DocumentPropertiesCallBack@UITS_PrinterDriver_DocumentPropertiesCallBack@@@@UEAAPEAXI@Z
0025D3E8 ??_G?$CImplIUnknown@UITS_PrinterDriver_DocumentPropertiesCallBack@@@@UEAAPEAXI@Z
0025D41C ??_G?$CProxyITS_PrinterDriver_PrinterPropertiesCallBack@UITS_PrinterDriver_PrinterPropertiesCallBack@@@@UEAAPEAXI@Z
0025D454 ??_E?$CImplIUnknown@UITS_PrinterDriver_PrinterPropertiesCallBack@@@@UEAAPEAXI@Z
0025D488 ?Invoke_ConvertDevMode@?$CStubITS_PrintDriver@UITS_PrintDriver@@@@AEAAJPEAUIMessage@@@Z
0025D738 ?Invoke_GetDeviceCapability@?$CStubITS_PrintDriver@UITS_PrintDriver@@@@AEAAJPEAUIMessage@@@Z
0025D904 ?Invoke_DocumentPropertiesW@?$CStubITS_PrintDriver@UITS_PrintDriver@@@@AEAAJPEAUIMessage@@@Z
0025DB18 ?Invoke_AsyncDocumentProperties@?$CStubITS_PrintDriver@UITS_PrintDriver@@@@AEAAJPEAUIMessage@@@Z
0025DCC8 ?Invoke_MxdcGetPDEVAdjustment@?$CStubITS_PrintDriver@UITS_PrintDriver@@@@AEAAJPEAUIMessage@@@Z
0025DF48 ?Invoke_DocumentPropertiesCallBack@?$CStubITS_PrinterDriver_DocumentPropertiesCallBack@UITS_PrinterDriver_DocumentPropertiesCallBack@@@@AEAAJPEAUIMessage@@@Z
0025E060 CProxyReceive_IXMLDOMDocument2
0025E2F0 CProxyWrite_IXMLDOMDocument2
0025E4F0 ?CheckBufferSize@CMemStream@@IEAAJK@Z
0025E580 ?Read@CMemStream@@UEAAJPEAXKPEAK@Z
0025E640 ?Write@CMemStream@@UEAAJPEBXKPEAK@Z
0025E6AC ??_GCTSMfWrapper@@UEAAPEAXI@Z
0025E6E4 ?CreateInstance@CTSMfWrapper@@SAJPEAVITSPlatform@@PEAPEAV1@@Z
0025E874 ?Initialize@CTSMfWrapper@@UEAAJXZ
0025E9D4 ?Terminate@CTSMfWrapper@@UEAAJXZ
0025EA38 ??1CTSMfWrapper@@UEAA@XZ
0025EAC0 ?AcquireMFFunctions@CTSMfWrapper@@AEAAJXZ
0025EF6C ?AcquireMFPlatFunctions@CTSMfWrapper@@AEAAJXZ
0025F788 WPP_SF_g
0025F7C4 WPP_SF_gd
0025F810 WPP_SF_is
0025F8B8 WPP_SF_xg
0025F90C ?OnServerMediaFormat@CTSMFPlayer@@EEAAJPEAVITSAsyncResult@@_K@Z
0025FA9C ?OnServerMediaSample@CTSMFPlayer@@UEAAJKKPEAD@Z
0025FBE0 ?ApplyFormats@CTSMFPlayer@@EEAAJPEAVITSAsyncResult@@_K@Z
0025FCD8 ?OnPlaybackStarted@CTSMFPlayer@@EEAAJPEAVITSAsyncResult@@_K@Z
0025FFC0 ?OnPlaybackPaused@CTSMFPlayer@@EEAAJPEAVITSAsyncResult@@_K@Z
002601C0 ?OnPlaybackStopped@CTSMFPlayer@@EEAAJPEAVITSAsyncResult@@_K@Z
002603C0 ?OnPlaybackRestarted@CTSMFPlayer@@EEAAJPEAVITSAsyncResult@@_K@Z
002605AC ?OnEndOfStream@CTSMFPlayer@@UEAAJI@Z
0026067C ?OnPlaybackRateChanged@CTSMFPlayer@@EEAAJPEAVITSAsyncResult@@_K@Z
00260A98 ?OnFlush@CTSMFPlayer@@EEAAJI@Z
00260B58 ?OnVolume@CTSMFPlayer@@EEAAJPEAVITSAsyncResult@@_K@Z
00260C94 ?OnChannelVolume@CTSMFPlayer@@EEAAJPEAVITSAsyncResult@@_K@Z
00260DEC ?NotifyPreroll@CTSMFPlayer@@EEAAJI@Z
00260EB8 ?Shutdown@CTSMFPlayer@@UEAAJXZ
00260F88 ?SpecificShutdown@CTSMFPlayer@@UEAAJXZ
00261200 ?RepaintVideo@CTSMFPlayer@@EEAAXXZ
00261260 ?NotifyVideoWindowPosition@CTSMFPlayer@@EEAAJUtagRECT@@@Z
00261394 ?OnChannelClosed@CTSMFPlayer@@UEAAJI@Z
002614AC ??_ECTSMFPlayer@@UEAAPEAXI@Z
002614E4 ?CreateInstance@CTSMFPlayer@@SAJPEAVITSWin32CoreApi@@U_GUID@@PEAUHINSTANCE__@@PEAVIMMPlayerManager@@PEAVIMMChannelManager@@PEAVCTSMfWrapper@@PEAPEAVITSMFPlayer@@@Z
002616C4 ??1CTSMFPlayer@@UEAA@XZ
00261874 ?CreateTopology@CTSMFPlayer@@AEAAJXZ
00261BC4 ?SpecificInitialize@CTSMFPlayer@@UEAAJXZ
00261D34 ?Play@CTSMFPlayer@@AEAAJ_J@Z
00261F50 ?Invoke@CTSMFPlayer@@EEAAJPEAUIMFAsyncResult@@@Z
002624AC ?OnAsyncOperationFailure@CTSMFPlayer@@AEAAJKJ@Z
00262580 ?OnTopologyReady@CTSMFPlayer@@AEAAJPEAUIMFMediaEvent@@@Z
00262738 ?OnSessionStarted@CTSMFPlayer@@AEAAJPEAUIMFMediaEvent@@@Z
002628AC ?CreateMediaSession@CTSMFPlayer@@AEAAJXZ
002629A8 ?StartPlayback@CTSMFPlayer@@AEAAJ_J@Z
00262B7C ?CreateTopologyFromSource@CTSMFPlayer@@AEAAJPEAPEAUIMFTopology@@@Z
00262DEC ?AddBranchToPartialTopology@CTSMFPlayer@@AEAAJPEAUIMFTopology@@PEAUIMFPresentationDescriptor@@K@Z
00263128 ?CreateSourceStreamNode@CTSMFPlayer@@AEAAJPEAUIMFPresentationDescriptor@@PEAUIMFStreamDescriptor@@PEAPEAUIMFTopologyNode@@@Z
0026336C ?CreateOutputNode@CTSMFPlayer@@AEAAJPEAUIMFStreamDescriptor@@PEAPEAUIMFTopologyNode@@@Z
002638D4 ?ApplyVolumeMix@CTSMFPlayer@@AEAAJXZ
00263BB8 ?InitializeVolumeControls@CTSMFPlayer@@AEAAJXZ
00263FF0 ?OnChannelVolumeChanged@CTSMFPlayer@@UEAAJKQEAMKPEBU_GUID@@@Z
002641B4 ?OnSimpleVolumeChanged@CTSMFPlayer@@UEAAJMHPEBU_GUID@@@Z
002642CC ?NonDelegatingQueryInterface@TsmfSource@@UEAAJAEBU_GUID@@PEAPEAX@Z
00264468 ?CreateTSMFMediaSource@@YAJPEAVITSPlatform@@U_GUID@@PEAVIMMChannelManager@@PEAVCTSMfWrapper@@PEAPEAVITSMFMediaSource@@@Z
002645A4 ??0TsmfSource@@AEAA@PEAVITSPlatform@@U_GUID@@PEAVIMMChannelManager@@PEAVCTSMfWrapper@@AEAJ@Z
00264850 ??_GTsmfSource@@UEAAPEAXI@Z
00264888 ??1TsmfSource@@UEAA@XZ
00264A84 ?BeginGetEvent@TsmfSource@@UEAAJPEAUIMFAsyncCallback@@PEAUIUnknown@@@Z
00264C00 ?EndGetEvent@TsmfSource@@UEAAJPEAUIMFAsyncResult@@PEAPEAUIMFMediaEvent@@@Z
00264D7C ?GetEvent@TsmfSource@@UEAAJKPEAPEAUIMFMediaEvent@@@Z
00264EF4 ?QueueEvent@TsmfSource@@UEAAJKAEBU_GUID@@JPEBUtagPROPVARIANT@@@Z
00265080 ?CreatePresentationDescriptor@TsmfSource@@UEAAJPEAPEAUIMFPresentationDescriptor@@@Z
00265210 ?GetCharacteristics@TsmfSource@@UEAAJPEAK@Z
0026532C ?Start@TsmfSource@@UEAAJPEAUIMFPresentationDescriptor@@PEBU_GUID@@PEBUtagPROPVARIANT@@@Z
00265888 ?Pause@TsmfSource@@UEAAJXZ
00265A4C ?Stop@TsmfSource@@UEAAJXZ
00265BC4 ?Shutdown@TsmfSource@@UEAAJXZ
00265D70 ?CreatePresentationDescriptor@TsmfSource@@AEAAJXZ
00266120 ?ValidatePresentationDescriptor@TsmfSource@@AEAAJPEAUIMFPresentationDescriptor@@@Z
00266554 ?QueueNewStreamEvent@TsmfSource@@AEAAJPEAUIMFPresentationDescriptor@@@Z
00266954 ?CreateMediaStream@TsmfSource@@AEAAJKPEAPEAVTsmfSourceStream@@@Z
00266A40 ?GetCurrentPosition@TsmfSource@@AEAA_JXZ
00266B20 ?AddMediaStream@TsmfSource@@UEAAJKKPEAX@Z
00266DE0 ?HandleServerMediaSample@TsmfSource@@UEAAJKKPEAUtagTS_MM_DATA_SAMPLE@@@Z
00266F14 ?FlushSamples@TsmfSource@@UEAAXK@Z
00266FE8 ?OnEndOfStream@TsmfSource@@UEAAJK@Z
002670C0 ?NotifyPreroll@TsmfSource@@UEAAJI@Z
00267198 ?GetService@TsmfSource@@UEAAJAEBU_GUID@@0PEAPEAX@Z
0026732C ?SetRate@TsmfSource@@UEAAJHM@Z
002674A0 ?GetRate@TsmfSource@@UEAAJPEAHPEAM@Z
00267518 ?GetSlowestRate@TsmfSource@@UEAAJW4_MFRATE_DIRECTION@@HPEAM@Z
00267568 ?GetFastestRate@TsmfSource@@UEAAJW4_MFRATE_DIRECTION@@HPEAM@Z
00267660 ?IsRateSupported@TsmfSource@@UEAAJHMPEAM@Z
0026773C ?GetStream@TsmfSource@@AEAAPEAVTsmfSourceStream@@K@Z
002677F4 ?IsVideoStream@TsmfSource@@UEAAHI@Z
00267950 ?StopPreroll@TsmfSource@@UEAAXXZ
00267B10 ?NonDelegatingQueryInterface@TsmfSourceStream@@UEAAJAEBU_GUID@@PEAPEAX@Z
00267BEC WPP_SF_iidd
00267C5C ?CreateInstance@TsmfSourceStream@@SAJKPEAVTsmfSource@@PEAVCTSMfWrapper@@PEAPEAV1@@Z
00267EA0 ??_GTsmfSourceStream@@EEAAPEAXI@Z
00267ED8 ?Initialize@TsmfSourceStream@@QEAAJKPEAVTsmfSource@@PEAVCTSMfWrapper@@@Z
0026808C ?SetStreamParameters@TsmfSourceStream@@QEAAXPEAUIMFStreamDescriptor@@PEAUIMMClientNotifications@@@Z
0026816C ?Terminate@TsmfSourceStream@@UEAAJXZ
002682CC ??1TsmfSourceStream@@EEAA@XZ
00268484 ?BeginGetEvent@TsmfSourceStream@@UEAAJPEAUIMFAsyncCallback@@PEAUIUnknown@@@Z
002685F0 ?EndGetEvent@TsmfSourceStream@@UEAAJPEAUIMFAsyncResult@@PEAPEAUIMFMediaEvent@@@Z
0026875C ?GetEvent@TsmfSourceStream@@UEAAJKPEAPEAUIMFMediaEvent@@@Z
002688C0 ?QueueEvent@TsmfSourceStream@@UEAAJKAEBU_GUID@@JPEBUtagPROPVARIANT@@@Z
00268A40 ?GetMediaSource@TsmfSourceStream@@UEAAJPEAPEAUIMFMediaSource@@@Z
00268BA8 ?GetStreamDescriptor@TsmfSourceStream@@UEAAJPEAPEAUIMFStreamDescriptor@@@Z
00268CE0 ?RequestSample@TsmfSourceStream@@UEAAJPEAUIUnknown@@@Z
00268EDC ?TryFulfillSampleRequest@TsmfSourceStream@@AEAAJXZ
0026932C ?HandleServerMediaSample@TsmfSourceStream@@QEAAJKPEAUtagTS_MM_DATA_SAMPLE@@@Z
0026954C ?CreateTSMediaSample@TsmfSourceStream@@AEAAJPEAUtagTS_MM_DATA_SAMPLE@@PEAPEAUIMFSample@@@Z
00269A94 ?GetNextMediaSample@TsmfSourceStream@@AEAAJPEAPEAUtagTS_MF_SOURCE_HEADER@@@Z
00269B78 ?FlushSamples@TsmfSourceStream@@QEAAXXZ
00269C58 ?OnEndOfStream@TsmfSourceStream@@QEAAXXZ
00269D7C ?HandleEndOfStream@TsmfSourceStream@@QEAAXXZ
00269E70 ?SetMediaType@TsmfSourceStream@@QEAAJPEAUtagTS_AM_MEDIA_TYPE@@K@Z
0026A0D4 ?NotifyPreroll@TsmfSourceStream@@QEAAXXZ
0026A1B8 ?CProxyWrite_TSMM_CAPABILITY@@YAJPEAUIMessage@@PEAU_TSMM_CAPABILITY@@K@Z
0026A268 ?CProxyReceive_TSMM_CAPABILITY@@YAJPEAUIMessage@@PEAU_TSMM_CAPABILITY@@K@Z
0026A5A8 ?PlaybackAck@?$CProxyIMMClientNotifications@UIMMClientNotifications@@@@UEAAJI_K0@Z
0026A678 ?ClientEventNotification@?$CProxyIMMClientNotifications@UIMMClientNotifications@@@@UEAAJIIPEADK@Z
0026A76C ??1?$CProxyIUnknown@UIMMClientNotifications@@@@UEAA@XZ
0026A81C ?QueryInterface@?$CProxyIUnknown@UIMMClientNotifications@@@@UEAAJAEBU_GUID@@PEAPEAX@Z
0026A970 ?Release@?$CImplIUnknown@UIRIMStream@@@@UEAAKXZ
0026A9A0 ?QueryInterface@?$CImplIUnknown@UIMMClientNotifications@@@@UEAAJAEBU_GUID@@PEAPEAX@Z
0026AA18 ?ExchangeCapabilities@?$CProxyIMMServerData@UIMMServerData@@@@UEAAJIPEAU_TSMM_CAPABILITY@@PEAIPEAPEAU2@@Z
0026AB68 ?SetChannelParameters@?$CProxyIMMServerData@UIMMServerData@@@@UEAAJU_GUID@@I@Z
0026AC10 ?AddStream@?$CProxyIMMServerData@UIMMServerData@@@@UEAAJU_GUID@@IPEADK@Z
0026ACF0 ?DeliverSample@?$CProxyIMMServerData@UIMMServerData@@@@UEAAJU_GUID@@IPEADK@Z
0026ADD0 ?SetVideoWindow@?$CProxyIMMServerData@UIMMServerData@@@@UEAAJU_GUID@@_K1@Z
0026AE90 ?OnNewPresentation@?$CProxyIMMServerData@UIMMServerData@@@@UEAAJU_GUID@@I@Z
0026AF38 ?ShutdownPresentation@?$CProxyIMMServerData@UIMMServerData@@@@UEAAJU_GUID@@@Z
0026AFF8 ?SetTopology@?$CProxyIMMServerData@UIMMServerData@@@@UEAAJU_GUID@@PEAI@Z
0026B0D8 ?IsFormatSupported@?$CProxyIMMServerData@UIMMServerData@@@@UEAAJKKPEADKPEAI1@Z
0026B248 ?OnPlaybackStarted@?$CProxyIMMServerData@UIMMServerData@@@@UEAAJU_GUID@@_JI@Z
0026B308 ?OnPlaybackPaused@?$CProxyIMMServerData@UIMMServerData@@@@UEAAJU_GUID@@@Z
0026B38C ?OnPlaybackStopped@?$CProxyIMMServerData@UIMMServerData@@@@UEAAJU_GUID@@@Z
0026B410 ?OnPlaybackRestarted@?$CProxyIMMServerData@UIMMServerData@@@@UEAAJU_GUID@@@Z
0026B494 ?OnPlaybackRateChanged@?$CProxyIMMServerData@UIMMServerData@@@@UEAAJU_GUID@@M@Z
0026B53C ?OnFlush@?$CProxyIMMServerData@UIMMServerData@@@@UEAAJU_GUID@@I@Z
0026B5E4 ?OnVolume@?$CProxyIMMServerData@UIMMServerData@@@@UEAAJU_GUID@@II@Z
0026B6A4 ?OnChannelVolume@?$CProxyIMMServerData@UIMMServerData@@@@UEAAJU_GUID@@II@Z
0026B764 ?OnEndOfStream@?$CProxyIMMServerData@UIMMServerData@@@@UEAAJU_GUID@@I@Z
0026B80C ?SetAllocatorProps@?$CProxyIMMServerData@UIMMServerData@@@@UEAAJU_GUID@@IIIII@Z
0026B934 ?NotifyPreroll@?$CProxyIMMServerData@UIMMServerData@@@@UEAAJU_GUID@@I@Z
0026B9DC ?UpdateGeometryInfo@?$CProxyIMMServerData@UIMMServerData@@@@UEAAJU_GUID@@PEADK1K@Z
0026BAEC ?RemoveStream@?$CProxyIMMServerData@UIMMServerData@@@@UEAAJU_GUID@@I@Z
0026BB94 ??1?$CProxyIUnknown@UIMMServerData@@@@UEAA@XZ
0026BC44 ?QueryInterface@?$CProxyIUnknown@UIMMServerData@@@@UEAAJAEBU_GUID@@PEAPEAX@Z
0026BD98 ?Release@?$CImplIUnknown@UIMMServerData@@@@UEAAKXZ
0026BDCC ?QueryInterface@?$CImplIUnknown@UIMMServerData@@@@UEAAJAEBU_GUID@@PEAPEAX@Z
0026BE44 ?Dispatch_Invoke@?$CStubIMMClientNotifications@UIMMClientNotifications@@@@UEAAJPEAUIMessage@@KPEAH@Z
0026BFDC ?Dispatch_Invoke@?$CStubIMMServerData@UIMMServerData@@@@UEAAJPEAUIMessage@@KPEAH@Z
0026C744 ??_G?$CProxyIMMClientNotifications@UIMMClientNotifications@@@@UEAAPEAXI@Z
0026C77C ??_E?$CImplIUnknown@UIMMClientNotifications@@@@UEAAPEAXI@Z
0026C7B0 ??_G?$CProxyIMMServerData@UIMMServerData@@@@UEAAPEAXI@Z
0026C7E8 ??_E?$CImplIUnknown@UIMMServerData@@@@UEAAPEAXI@Z
0026C81C ?Invoke_ExchangeCapabilities@?$CStubIMMServerData@UIMMServerData@@@@AEAAJPEAUIMessage@@@Z
0026C998 ?Invoke_AddStream@?$CStubIMMServerData@UIMMServerData@@@@AEAAJPEAUIMessage@@@Z
0026CABC ?Invoke_DeliverSample@?$CStubIMMServerData@UIMMServerData@@@@AEAAJPEAUIMessage@@@Z
0026CBE0 ?Invoke_IsFormatSupported@?$CStubIMMServerData@UIMMServerData@@@@AEAAJPEAUIMessage@@@Z
0026CD64 ?Invoke_SetAllocatorProps@?$CStubIMMServerData@UIMMServerData@@@@AEAAJPEAUIMessage@@@Z
0026CEA0 ?Invoke_UpdateGeometryInfo@?$CStubIMMServerData@UIMMServerData@@@@AEAAJPEAUIMessage@@@Z
0026D014 WPP_SF_dqd
0026D078 WPP_SF_gggggg
0026D104 WPP_SF_qqqdddd
0026D1A0 ?PrintRegion@@YAHPEAUHRGN__@@@Z
0026D390 ??1CBasePlayer@@UEAA@XZ
0026D660 ?OnServerMediaFormat@CBasePlayer@@UEAAJKKPEAD@Z
0026D774 ?SetVideoWindow@CBasePlayer@@UEAAJ_K0@Z
0026D8F4 ?SetVideoWindow@CBasePlayer@@MEAAJPEAVITSAsyncResult@@_K@Z
0026DAB8 ?ApplyFormats@CBasePlayer@@UEAAJPEAI@Z
0026DC78 ?GetPlayerMfSessionId@CBasePlayer@@UEAA?AU_GUID@@XZ
0026DCE0 ?OnWindowInformation@CBasePlayer@@UEAAJPEAVITSWindowInformation@@@Z
0026E47C ?SwitchVideoWindowParent@CBasePlayer@@IEAAJH@Z
0026E678 ?UpdateVideoParentServerPos@CBasePlayer@@IEAAJ_K@Z
0026EA0C ?OnPlaybackStarted@CBasePlayer@@UEAAJ_JI@Z
0026EC14 ?OnPlaybackPaused@CBasePlayer@@UEAAJXZ
0026ED44 ?OnPlaybackStopped@CBasePlayer@@UEAAJXZ
0026EEAC ?OnPlaybackRestarted@CBasePlayer@@UEAAJXZ
0026EFD4 ?OnPlaybackRateChanged@CBasePlayer@@UEAAJM@Z
0026F170 ?OnVolume@CBasePlayer@@UEAAJIH@Z
0026F2B0 ?OnChannelVolume@CBasePlayer@@UEAAJII@Z
0026F3F0 ?Shutdown@CBasePlayer@@UEAAJXZ
0026F80C ?Initialize@CBasePlayer@@IEAAJPEAVITSWin32CoreApi@@U_GUID@@PEAUHINSTANCE__@@PEAVIMMPlayerManager@@PEAVIMMChannelManager@@@Z
00270168 ?STATIC_PlayerThreadProc@CBasePlayer@@KAXPEAX@Z
00270254 ?GetVideoWindowParent@CBasePlayer@@IEAAJ_KPEAPEAUHWND__@@@Z
00270540 ?InitializePlayerWindow@CBasePlayer@@IEAAJXZ
00270700 ?CreateVideoWindow@CBasePlayer@@IEAAJXZ
00270978 ?STATIC_PlayerWndProc@CBasePlayer@@KA_JPEAUHWND__@@I_K_J@Z
00270A68 ?PlayerWndProc@CBasePlayer@@IEAA_JPEAUHWND__@@I_K_J@Z
00270E34 ?UpdateVideoWindowPosition@CBasePlayer@@IEAAJUtagRECT@@@Z
00271288 ?ForwardToIH@CBasePlayer@@IEAAXI_K_JH@Z
00271400 ?IsRailMode@CBasePlayer@@IEAAHXZ
00271518 ?NotifyError@CBasePlayer@@MEAAXJ@Z
002715A0 ?OnPaint@CBasePlayer@@IEAAXPEAUHWND__@@@Z
00271694 ?StartPlayerDataCheck@CBasePlayer@@MEAAJPEAVITSAsyncResult@@_K@Z
00271750 ?OnPlayerDataCheck@CBasePlayer@@MEAAJPEAVITSAsyncResult@@_K@Z
00271854 ?OnWindowInformation@CBasePlayer@@UEAAJPEAVITSAsyncResult@@_K@Z
00271948 ?OnVisibleOutputWindowChanged@CBasePlayer@@UEAAJPEAVITSAsyncResult@@_K@Z
00271964 ?GetQualityParameters@CBasePlayer@@MEAAJPEAH00000@Z
00271CA0 ?OnGeometryInformation@CBasePlayer@@UEAAJPEAUtagGEO_INFO@@KPEAUtagTS_RECT@@K@Z
0027240C ?CalculateSmartSizingScale@CBasePlayer@@IEAAXII@Z
002725E0 ?SetState@CBasePlayer@@IEAA?AW4TSMMPlayerState@@W42@@Z
00272720 ?OnWindowPosChanged@CBasePlayer@@IEAAJPEAUHWND__@@@Z
0027292C WPP_SF_dgg
00272990 ?CreateInstance@CVolumeSet@@SAJIPEAPEAV1@@Z
00272B1C ??_GCVolumeSet@@UEAAPEAXI@Z
00272B90 ?Initialize@CVolumeSet@@IEAAJI@Z
00272C84 ?Merge@CVolumeSet@@QEAAJPEBV1@@Z
00272D80 ?CreateAsyncIRPRedirectionStub@@YAJPEAUIWTSVirtualChannelManager@@PEAPEAUIAsyncIrpStub@@@Z
00272F40 ??_ECAsyncIIrpStub@@UEAAPEAXI@Z
00272FDC ?Activate@CAsyncIIrpStub@@UEAAJPEAUIDeviceCollection@@@Z
002731AC ?OnNewChannelConnection@CAsyncIIrpStub@@UEAAJPEAUIWTSVirtualChannel@@PEAGPEAHPEAPEAUIWTSVirtualChannelCallback@@@Z
0027337C ??_GCCancelIoFunc@@UEAAPEAXI@Z
002733FC ??1_handler_info@CCustomEventManager@@UEAA@XZ
0027349C ??_E_handler_info@CCustomEventManager@@UEAAPEAXI@Z
002734D4 ??_ECCustomEventManager@@UEAAPEAXI@Z
0027350C ??_ECIrpRedirector@@UEAAPEAXI@Z
002735D0 ?Initialize@CStubCancelFileIo@@QEAAJPEAXPEAVCCancelIoFunc@@@Z
002736C8 ?GetInstanceOf@CStubCancelFileIo@@SAJPEAPEAV1@@Z
0027378C ?Cancel@CStubCancelFileIo@@UEAAJXZ
00273818 ??_ECStubCancelFileIo@@UEAAPEAXI@Z
002738E8 ?Initialize@CCustomEventManager@@UEAAJXZ
00273ADC ??1CCustomEventManager@@UEAA@XZ
00273C24 ?AddListener@CCustomEventManager@@QEAAJPEAXPEAUIAsyncCustomEventCallback@@@Z
00273E18 ?RemoveListener@CCustomEventManager@@QEAAJPEAX@Z
00273FC4 ?GetListenerCallback@CCustomEventManager@@QEAAJPEAXPEAPEAUIAsyncCustomEventCallback@@@Z
002740DC ??_GCFileRedirector@@UEAAPEAXI@Z
0027424C ?Initialize@CIrpRedirector@@QEAAJPEAUIDeviceCollection@@@Z
002744FC ?Terminate@CIrpRedirector@@UEAAJXZ
00274530 ?Create@CIrpRedirector@@UEAAJKKKKKKPEAUIAsyncIIrpProxyCallback@@PEAUIAsyncCustomEventCallback@@@Z
00274700 ?InitializeByFilename@CFileRedirector@@QEAAJPEBGKKKKPEAVCCancelIoFunc@@PEAUIAsyncCustomEventCallback@@PEAVCCustomEventManager@@@Z
00274914 ?Initialize@CFileRedirector@@QEAAJPEAUILocalDevice@@KKKKPEAVCCancelIoFunc@@PEAUIAsyncCustomEventCallback@@PEAVCCustomEventManager@@@Z
00274B68 ?Read@CFileRedirector@@UEAAJKKKPEAUIAsyncFileReadCallback@@PEAPEAUICancelFileIo@@@Z
00274D98 ?Write@CFileRedirector@@UEAAJPEAEKKKPEAUIAsyncFileWriteCallback@@PEAPEAUICancelFileIo@@@Z
00274FE0 ?IoControl@CFileRedirector@@UEAAJKPEAEK0KPEAUIAsyncIoControlCallback@@PEAPEAUICancelFileIo@@@Z
00275254 ?IoCancel@CFileRedirector@@UEAAJXZ
00275290 ?IOCompletionRoutine@CFileRedirector@@SAXKKPEAU_OVERLAPPED@@@Z
00275378 ?Close@CFileRedirector@@UEAAJXZ
00275434 ?OnCustomEvent@CFileRedirector@@UEAAJU_GUID@@KPEAE@Z
0027551C ?CustomEventMsgWndProc@@YA_JPEAUHWND__@@I_K_J@Z
002756EC ?FinalConstruct@?$CListTree@V_handler_info@CCustomEventManager@@@@QEAAJXZ
00275764 ?Remove@?$CListTree@V_handler_info@CCustomEventManager@@@@QEAAHPEAV_handler_info@CCustomEventManager@@@Z
002758F4 ??_ECStubAsyncFileReadCallback@@UEAAPEAXI@Z
00275984 ??_ECStubAsyncFileWriteCallback@@UEAAPEAXI@Z
00275A14 ??_GCStubAsyncIoControlCallback@@UEAAPEAXI@Z
00275AC8 ??_GCRdrServerRequestHandler@@UEAAPEAXI@Z
00275BDC ?OnReadComplete@CStubAsyncFileReadCallback@@UEAAJJKPEAE@Z
00275D30 ?OnWriteComplete@CStubAsyncFileWriteCallback@@UEAAJJK@Z
00275E74 ?OnIoControlComplete@CStubAsyncIoControlCallback@@UEAAJJKKPEAE@Z
00275FEC ?Initialize@CRdrServerRequestHandler@@QEAAJPEAUIWTSVirtualChannel@@PEAUIAsyncIIrpProxy@@PEAVCAsyncIIrpStub@@K@Z
002760DC ?OnDataReceived@CRdrServerRequestHandler@@UEAAJKPEAE@Z
00276214 ?OnClose@CRdrServerRequestHandler@@UEAAJXZ
002762A4 ?OnFileCreated@CRdrServerRequestHandler@@UEAAJJPEAUIAsyncFileProxy@@K@Z
002763CC ?DoRead@CRdrServerRequestHandler@@QEAAJPEAEK@Z
00276688 ?DoWrite@CRdrServerRequestHandler@@QEAAJPEAEK@Z
00276968 ?DoIoControl@CRdrServerRequestHandler@@QEAAJPEAEK@Z
00276C5C ?DoCreateFileRedirector@CRdrServerRequestHandler@@QEAAJPEAEK@Z
00276D58 ?DoCapabilities@CRdrServerRequestHandler@@QEAAJPEAEK@Z
00276E28 ?RemovePendingRequest@CRdrServerRequestHandler@@AEAAJK@Z
00276E98 ?OnCustomEvent@CRdrServerRequestHandler@@UEAAJU_GUID@@KPEAE@Z
00277038 ?QueueEventWithIUnknown@@YAJPEAUIMFMediaEventGenerator@@KJPEAUIUnknown@@@Z
0027751C _CRT_INIT
002778E8 _DllMainCRTStartup
00277968 _invoke_watson
00277A10 _invalid_parameter
00277A3C __GSHandlerCheckCommon
00277AA8 __GSHandlerCheck
00277BC0 qsort_s_downlevel
0027805C _itow_s
0027808C vsprintf_s
002780F4 sprintf_s_downlevel
00278118 strcat_s_downlevel
002781A8 strcpy_s_downlevel
00278220 strncpy_s_downlevel
002782FC vswprintf_s_downlevel
00278370 swprintf_s_downlevel
00278394 swscanf_s_downlevel
00278408 wcscat_s
002784AC wcsncat_s
002785B8 wcsncpy_s
002786D0 wcstok_s
002787B0 _onexit
0027883C atexit
002788FC _IsNonwritableInCurrentImage
00278974 __security_init_cookie
00278A30 __report_gsfailure
00278CAC _safecrt_cfltcvt
00278D8C _safecrt_wctomb_s
00278E9C _output_s
002798A8 _soutput_s
00279ACC _woutput_s
0027A5A8 _swoutput_s
0027AC34 _winput_s
0027BCB4 _swinput_s
0027BD4C _recalloc
0027BDBC _filbuf_s
0027BF1C _ld12tod
0027C528 _ld12tof
0027CB34 __mtold12
0027CD58 __strgtold12_decimal_point
0027D608 _safecrt_atodbl
0027D6A8 _safecrt_atoflt
0027D748 _safecrt_fassign
0027D790 _flsbuf_s
0027D940 _fgetwc_nolock
0027DA98 _ungetwc_nolock
0027DC48 _filwbuf_s
0027DE18 __tailMerge_WS2_32_dll
0027E186 __tailMerge_ole32_dll
0027E28F __tailMerge_OLEAUT32_dll
0027E488 __tailMerge_SHLWAPI_dll
0027E519 __tailMerge_CRYPT32_dll
0027E6A6 __tailMerge_CRYPTUI_dll
0027E72B __tailMerge_WININET_dll
0027E7B0 __tailMerge_credui_dll
0027E835 __tailMerge_IPHLPAPI_DLL
0027E920 SHATransform
0027FAC0 A_SHAUpdate
0027FB90 A_SHAFinal
0027FCB0 rc4
0027FD40 MD4Transform
002802C0 MD4Update
00280420 MD4Final
002804F0 rc4_key
002805F0 TransformMD5
00280D90 MD5Update
00280F00 MD5Final
00280FB0 BSafeEncPublicEx
00281110 BSafeEncPublic
00281170 BenalohModExp
002811D0 Mod
00281610 BaseMult
00281690 Accumulate
00281710 Reduce
00281790 BenalohEstimateQuotient64
002817B0 AccumulateSquares64
00281800 Accumulate64
00281850 Reduce64
002818C0 Add64
00281910 Sub64
00281960 Square64
00281A40 Multiply64
00281AF0 BenalohSetup64
00281C60 BenalohMod64
00281DF0 BenalohScramblePowerTable64
00281EB0 BenalohModExp64
002823F0 BenalohModExp64Wrapper
0028263E __tailMerge_WINMM_dll
0028290C ??0CAMEvent@@QEAA@HPEAJ@Z
00282958 ??1CAMEvent@@QEAA@XZ
00282978 ??0CAMThread@@QEAA@PEAJ@Z
002829D4 ??1CAMThread@@UEAA@XZ
00282A44 ?CallWorker@CAMThread@@QEAAKK@Z
00282AB4 ?GetRequest@CAMThread@@QEAAKXZ
00282ADC ?CheckRequest@CAMThread@@QEAAHPEAK@Z
00282B20 ?Reply@CAMThread@@QEAAXK@Z
00282B4C ?CoInitializeHelper@CAMThread@@SAJXZ
00282B98 ?InitialThreadProc@CAMThread@@SAKPEAX@Z
00282BD4 ?Create@CAMThread@@QEAAHXZ
00282C58 ?IntToWstr@@YAXHPEAG@Z
00282C90 ??1CBaseObject@@QEAA@XZ
00282CC4 GetInterface
00282D14 ?NonDelegatingQueryInterface@CUnknown@@UEAAJAEBU_GUID@@PEAPEAX@Z
00282D84 ?NonDelegatingRelease@CUnknown@@UEAAKXZ
00282DBC CreateMemoryAllocator
00282DEC ?NonDelegatingQueryInterface@CBaseFilter@@UEAAJAEBU_GUID@@PEAPEAX@Z
00282ECC ??1CBaseFilter@@UEAA@XZ
00282F44 ?SetSyncSource@CBaseFilter@@UEAAJPEAUIReferenceClock@@@Z
00282FA8 ?GetSyncSource@CBaseFilter@@UEAAJPEAPEAUIReferenceClock@@@Z
00283010 ?Stop@CBaseFilter@@UEAAJXZ
002830B4 ?Pause@CBaseFilter@@UEAAJXZ
0028315C ?Run@CBaseFilter@@UEAAJ_J@Z
00283224 ?StreamTime@CBaseFilter@@UEAAJAEAVCRefTime@@@Z
0028326C ?NotifyEvent@CBaseFilter@@QEAAJJ_J0@Z
002832AC ??1CEnumPins@@UEAA@XZ
002832E4 ?QueryInterface@CEnumPins@@UEAAJAEBU_GUID@@PEAPEAX@Z
00283380 ?Release@CEnumMediaTypes@@UEAAKXZ
002833B0 ?Skip@CEnumPins@@UEAAJK@Z
00283404 ?Reset@CEnumPins@@UEAAJXZ
00283444 ?Refresh@CEnumPins@@AEAAJXZ
0028347C ?QueryInterface@CEnumMediaTypes@@UEAAJAEBU_GUID@@PEAPEAX@Z
00283504 ?Next@CEnumMediaTypes@@UEAAJKPEAPEAU_AMMediaType@@PEAK@Z
00283634 ?Skip@CEnumMediaTypes@@UEAAJK@Z
002836DC ?Reset@CEnumMediaTypes@@UEAAJXZ
00283704 ??1CBasePin@@UEAA@XZ
00283734 ?NonDelegatingQueryInterface@CBasePin@@UEAAJAEBU_GUID@@PEAPEAX@Z
002837F4 ?AttemptConnection@CBasePin@@IEAAJPEAUIPin@@PEBVCMediaType@@@Z
002838DC ?TryMediaTypes@CBasePin@@IEAAJPEAUIPin@@PEBVCMediaType@@PEAUIEnumMediaTypes@@@Z
002839FC ?AgreeMediaType@CBasePin@@IEAAJPEAUIPin@@PEBVCMediaType@@@Z
00283ADC ?SetMediaType@CBasePin@@UEAAJPEBVCMediaType@@@Z
00283B00 ?CheckConnect@CBasePin@@UEAAJPEAUIPin@@@Z
00283B38 ?ReceiveConnection@CBasePin@@UEAAJPEAUIPin@@PEBU_AMMediaType@@@Z
00283C80 ?DisconnectInternal@CBasePin@@IEAAJXZ
00283CC0 ?ConnectedTo@CBasePin@@UEAAJPEAPEAUIPin@@@Z
00283CF8 ?ConnectionMediaType@CBasePin@@UEAAJPEAU_AMMediaType@@@Z
00283D90 ?QueryAccept@CBasePin@@UEAAJPEBU_AMMediaType@@@Z
00283DCC ?SetSink@CBasePin@@UEAAJPEAUIQualityControl@@@Z
00283E50 ?CheckConnect@CBaseOutputPin@@UEAAJPEAUIPin@@@Z
00283EA4 ?BreakConnect@CBaseOutputPin@@UEAAJXZ
00283F10 ?DecideAllocator@CBaseOutputPin@@UEAAJPEAUIMemInputPin@@PEAPEAUIMemAllocator@@@Z
00284028 ?GetDeliveryBuffer@CBaseOutputPin@@UEAAJPEAPEAUIMediaSample@@PEA_J1K@Z
00284060 ?Deliver@CBaseOutputPin@@UEAAJPEAUIMediaSample@@@Z
00284090 ?DeliverEndOfStream@CBaseOutputPin@@UEAAJXZ
002840B8 ?Active@CBaseOutputPin@@UEAAJXZ
002840E8 ?Inactive@CBaseOutputPin@@UEAAJXZ
00284120 ?DeliverBeginFlush@CBaseOutputPin@@UEAAJXZ
00284148 ?DeliverEndFlush@CBaseOutputPin@@UEAAJXZ
00284174 ?DeliverNewSegment@CBaseOutputPin@@UEAAJ_J0N@Z
002841A0 AMovieSetupRegisterFilter
00284374 ?QueryFilterInfo@CBaseFilter@@UEAAJPEAU_FilterInfo@@@Z
002843F8 ?JoinFilterGraph@CBaseFilter@@UEAAJPEAUIFilterGraph@@PEBG@Z
00284500 ?Register@CBaseFilter@@UEAAJXZ
00284588 ?Unregister@CBaseFilter@@UEAAJXZ
0028462C ??0CEnumPins@@QEAA@PEAVCBaseFilter@@PEAV0@@Z
002846D0 ??_ECEnumPins@@UEAAPEAXI@Z
00284708 ?Clone@CEnumPins@@UEAAJPEAPEAUIEnumPins@@@Z
00284790 ?Next@CEnumPins@@UEAAJKPEAPEAUIPin@@PEAK@Z
00284894 ??0CEnumMediaTypes@@QEAA@PEAVCBasePin@@PEAV0@@Z
002848F8 ??_GCEnumMediaTypes@@UEAAPEAXI@Z
00284940 ?Clone@CEnumMediaTypes@@UEAAJPEAPEAUIEnumMediaTypes@@@Z
002849C8 ??0CBasePin@@QEAA@PEBGPEAVCBaseFilter@@PEAVCCritSec@@PEAJ0W4_PinDirection@@@Z
00284AD0 ?Connect@CBasePin@@UEAAJPEAUIPin@@PEBU_AMMediaType@@@Z
00284B84 ?Disconnect@CBasePin@@UEAAJXZ
00284BD8 ?QueryPinInfo@CBasePin@@UEAAJPEAU_PinInfo@@@Z
00284C8C ?EnumMediaTypes@CBasePin@@UEAAJPEAPEAUIEnumMediaTypes@@@Z
00284CF8 ??0CBaseOutputPin@@QEAA@PEBGPEAVCBaseFilter@@PEAVCCritSec@@PEAJ0@Z
00284D44 ??0CBaseFilter@@QEAA@PEBGPEAUIUnknown@@PEAVCCritSec@@AEBU_GUID@@@Z
00284DA4 ?EnumPins@CBaseFilter@@UEAAJPEAPEAUIEnumPins@@@Z
00284E10 ??0CSource@@QEAA@PEBGPEAUIUnknown@@U_GUID@@@Z
00284E74 ??1CSource@@UEAA@XZ
00284EEC ?AddPin@CSource@@QEAAJPEAVCSourceStream@@@Z
00284FC0 ?RemovePin@CSource@@QEAAJPEAVCSourceStream@@@Z
0028504C ?FindPin@CSource@@UEAAJPEBGPEAPEAUIPin@@@Z
002850F4 ?GetPinCount@CSource@@UEAAHXZ
00285130 ?GetPin@CSource@@UEAAPEAVCBasePin@@H@Z
002851A4 ?QueryId@CSourceStream@@MEAAJPEAPEAG@Z
00285220 ??1CSourceStream@@UEAA@XZ
00285290 ?CheckMediaType@CSourceStream@@MEAAJPEBVCMediaType@@@Z
00285344 ?GetMediaType@CSourceStream@@MEAAJHPEAVCMediaType@@@Z
002853C4 ?Active@CSourceStream@@MEAAJXZ
002854AC ?Inactive@CSourceStream@@MEAAJXZ
00285564 ?ThreadProc@CSourceStream@@MEAAKXZ
00285638 ?DoBufferProcessingLoop@CSourceStream@@MEAAJXZ
0028575C ??_GCSource@@UEAAPEAXI@Z
00285794 ??0CSourceStream@@QEAA@PEBGPEAJPEAVCSource@@0@Z
00285854 ??_ECSourceStream@@UEAAPEAXI@Z
0028588C ??8CMediaType@@QEBAHAEBV0@@Z
00285980 ?AllocFormatBuffer@CMediaType@@QEAAPEAEK@Z
002859F0 ?InitMediaType@CMediaType@@QEAAXXZ
00285A78 ?MatchesPartial@CMediaType@@QEBAHPEBV1@@Z
00285B90 ?CopyMediaType@@YAJPEAU_AMMediaType@@PEBU1@@Z
00285BF8 ?FreeMediaType@@YAXAEAU_AMMediaType@@@Z
00285C38 ??0CMediaType@@QEAA@XZ
00285C6C ?Set@CMediaType@@QEAAJAEBU_AMMediaType@@@Z
00285CCC ?SetFormat@CMediaType@@QEAAHPEAEK@Z
00285D1C ?DeleteMediaType@@YAXPEAU_AMMediaType@@@Z
00285D44 ??4CMediaType@@QEAAAEAV0@AEBV0@@Z
00285D94 ?RemoveAll@CBaseList@@QEAAXXZ
00285E10 ?AddTailI@CBaseList@@IEAAPEAU__POSITION@@PEAX@Z
00285E88 ?AddTail@CBaseList@@QEAAHPEAV1@@Z
00285ECC ??1CBaseList@@QEAA@XZ
00285F00 HMACMD5Init
002860A0 HMACMD5Final
0028611F __tailMerge_SHELL32_dll
002861EC __tailMerge_WINSPOOL_DRV
00286481 __tailMerge_WTSAPI32_dll
00286572 __tailMerge_MSIMG32_dll
00286684 __GSHandlerCheck_SEH
00286730 __chkstk
00299008 _tsvirtualchannels_IID_Lookup
